------- FILE ./sokoboo.asm LEVEL 1 PASS 4
      1  8000 ????						;    Sokoboo - a Sokoban implementation
      2  8000 ????						;    using a generic tile-based display engine for the Atari 2600
      3  8000 ????						;    Sokoban (倉庫番)™ is © Falcon Co., Ltd.
      4  8000 ????						;
      5  8000 ????						;    Code related to this Sokoban™ implementation was developed by Andrew Davie.
      6  8000 ????						;
      7  8000 ????						;    Code related to the generic tile-based display engine was developed by
      8  8000 ????						;    Andrew Davie and Thomas Jentzsch during 2003-2011 and is
      9  8000 ????						;    Copyright(C)2003-2019 Thomas Jentzsch and Andrew Davie - contacts details:
     10  8000 ????						;    Andrew Davie (andrew@taswegian.com), Thomas Jentzsch (tjentzsch@yahoo.de).
     11  8000 ????						;
     12  8000 ????						;    Code related to music and sound effects uses the TIATracker music player
     13  8000 ????						;    Copyright 2016 Andre "Kylearan" Wichmann - see source code in the "sound"
     14  8000 ????						;    directory for Apache licensing details.
     15  8000 ????						;
     16  8000 ????						;    Some level data incorporated in this program were created by Lee J Haywood.
     17  8000 ????						;    See the copyright notices in the License directory for a list of level
     18  8000 ????						;    contributors.
     19  8000 ????						;
     20  8000 ????						;    Except where otherwise indicated, this software is released under the
     21  8000 ????						;    following licensing arrangement...
     22  8000 ????						;
     23  8000 ????						;    This program is free software: you can redistribute it and/or modify
     24  8000 ????						;    it under the terms of the GNU General Public License as published by
     25  8000 ????						;    the Free Software Foundation, either version 3 of the License, or
     26  8000 ????						;    (at your option) any later version.
     27  8000 ????						;    see https://www.gnu.org/licenses/gpl-3.0.en.html
     28  8000 ????
     29  8000 ????						;    This program is distributed in the hope that it will be useful,
     30  8000 ????						;    but WITHOUT ANY WARRANTY; without even the implied warranty of
     31  8000 ????						;    MERCHANTABILITY or FITNESS FOR A PARTICULAR PURPOSE.  See the
     32  8000 ????						;    GNU General Public License for more details.
     33  8000 ????
     34  8000 ????
     35  8000 ????
     36  8000 ????	       00 40	   TIA_BASE_ADDRESS =	$40
     37  8000 ????
     38  8000 ????				      processor	6502
------- FILE vcs.h LEVEL 2 PASS 4
      0  8000 ????				      include	"vcs.h"
      1  8000 ????						; VCS.H
      2  8000 ????						; Version 1.05, 13/November/2003
      3  8000 ????
      4  8000 ????	       00 69	   VERSION_VCS =	105
      5  8000 ????
      6  8000 ????						; This file defines hardware registers and memory mapping for the
      7  8000 ????						; Atari 2600. It is distributed as a companion machine-specific support package
      8  8000 ????						; for the DASM compiler. Updates to this file, DASM, and associated tools are
      9  8000 ????						; available at at http://www.atari2600.org/dasm
     10  8000 ????						;
     11  8000 ????						; Many thanks to the original author(s) of this file, and to everyone who has
     12  8000 ????						; contributed to understanding the Atari 2600.  If you take issue with the
     13  8000 ????						; contents, or naming of registers, please write to me (atari2600@taswegian.com)
     14  8000 ????						; with your views.  Please contribute, if you think you can improve this
     15  8000 ????						; file!
     16  8000 ????						;
     17  8000 ????						; Latest Revisions...
     18  8000 ????						; 1.05  13/NOV/2003	  - Correction to 1.04 - now functions as requested by MR.
     19  8000 ????						;			  - Added VERSION_VCS equate (which will reflect 100x version #)
     20  8000 ????						;			    This will allow conditional code to verify VCS.H being
     21  8000 ????						;			    used for code assembly.
     22  8000 ????						; 1.04  12/NOV/2003	 Added TIA_BASE_WRITE_ADDRESS and TIA_BASE_READ_ADDRESS for
     23  8000 ????						;			 convenient disassembly/reassembly compatibility for hardware
     24  8000 ????						;			 mirrored reading/writing differences.	This is more a
     25  8000 ????						;			 readability issue, and binary compatibility with disassembled
     26  8000 ????						;			 and reassembled sources.  Per Manuel Rotschkar's suggestion.
     27  8000 ????						; 1.03  12/MAY/2003	 Added SEG segment at end of file to fix old-code compatibility
     28  8000 ????						;			 which was broken by the use of segments in this file, as
     29  8000 ????						;			 reported by Manuel Polik on [stella] 11/MAY/2003
     30  8000 ????						; 1.02  22/MAR/2003	 Added TIMINT($285)
     31  8000 ????						; 1.01				Constant offset added to allow use for 3F-style bankswitching
     32  8000 ????						;						 - define TIA_BASE_ADDRESS as $40 for Tigervision carts, otherwise
     33  8000 ????						;						   it is safe to leave it undefined, and the base address will
     34  8000 ????						;						   be set to 0.  Thanks to Eckhard Stolberg for the suggestion.
     35  8000 ????						;			    Note, may use -DLABEL=EXPRESSION to define TIA_BASE_ADDRESS
     36  8000 ????						;			  - register definitions are now generated through assignment
     37  8000 ????						;			    in uninitialised segments.	This allows a changeable base
     38  8000 ????						;			    address architecture.
     39  8000 ????						; 1.0	22/MAR/2003		Initial release
     40  8000 ????
     41  8000 ????
     42  8000 ????						;-------------------------------------------------------------------------------
     43  8000 ????
     44  8000 ????						; TIA_BASE_ADDRESS
     45  8000 ????						; The TIA_BASE_ADDRESS defines the base address of access to TIA registers.
     46  8000 ????						; Normally 0, the base address should (externally, before including this file)
     47  8000 ????						; be set to $40 when creating 3F-bankswitched (and other?) cartridges.
     48  8000 ????						; The reason is that this bankswitching scheme treats any access to locations
     49  8000 ????						; < $40 as a bankswitch.
     50  8000 ????
     51  8000 ????			  -	      IFNCONST	TIA_BASE_ADDRESS
     52  8000 ????			  -TIA_BASE_ADDRESS =	0
     53  8000 ????				      ENDIF
     54  8000 ????
     55  8000 ????						; Note: The address may be defined on the command-line using the -D switch, eg:
     56  8000 ????						; dasm.exe code.asm -DTIA_BASE_ADDRESS=$40 -f3 -v5 -ocode.bin
     57  8000 ????						; *OR* by declaring the label before including this file, eg:
     58  8000 ????						; TIA_BASE_ADDRESS = $40
     59  8000 ????						;   include "vcs.h"
     60  8000 ????
     61  8000 ????						; Alternate read/write address capability - allows for some disassembly compatibility
     62  8000 ????						; usage ; to allow reassembly to binary perfect copies).  This is essentially catering
     63  8000 ????						; for the mirrored ROM hardware registers.
     64  8000 ????
     65  8000 ????						; Usage: As per above, define the TIA_BASE_READ_ADDRESS and/or TIA_BASE_WRITE_ADDRESS
     66  8000 ????						; using the -D command-line switch, as required.  If the addresses are not defined,
     67  8000 ????						; they defaut to the TIA_BASE_ADDRESS.
     68  8000 ????
     69  8000 ????			  -	      IFNCONST	TIA_BASE_READ_ADDRESS
     70  8000 ????			  -TIA_BASE_READ_ADDRESS =	TIA_BASE_ADDRESS
     71  8000 ????				      ENDIF
     72  8000 ????
     73  8000 ????			  -	      IFNCONST	TIA_BASE_WRITE_ADDRESS
     74  8000 ????			  -TIA_BASE_WRITE_ADDRESS =	TIA_BASE_ADDRESS
     75  8000 ????				      ENDIF
     76  8000 ????
     77  8000 ????						;-------------------------------------------------------------------------------
     78  8000 ????
     79 U006d ????				      SEG.U	TIA_REGISTERS_WRITE
     80 U0040					      ORG	TIA_BASE_WRITE_ADDRESS
     81 U0040
     82 U0040							; DO NOT CHANGE THE RELATIVE ORDERING OF REGISTERS!
     83 U0040
     84 U0040		       00	   VSYNC      ds	1	; $00	 0000 00x0   Vertical Sync Set-Clear
     85 U0041		       00	   VBLANK     ds	1	; $01	 xx00 00x0   Vertical Blank Set-Clear
     86 U0042		       00	   WSYNC      ds	1	; $02	 ---- ----   Wait for Horizontal Blank
     87 U0043		       00	   RSYNC      ds	1	; $03	 ---- ----   Reset Horizontal Sync Counter
     88 U0044		       00	   NUSIZ0     ds	1	; $04	 00xx 0xxx   Number-Size player/missle 0
     89 U0045		       00	   NUSIZ1     ds	1	; $05	 00xx 0xxx   Number-Size player/missle 1
     90 U0046		       00	   COLUP0     ds	1	; $06	 xxxx xxx0   Color-Luminance Player 0
     91 U0047		       00	   COLUP1     ds	1	; $07	 xxxx xxx0   Color-Luminance Player 1
     92 U0048		       00	   COLUPF     ds	1	; $08	 xxxx xxx0   Color-Luminance Playfield
     93 U0049		       00	   COLUBK     ds	1	; $09	 xxxx xxx0   Color-Luminance Background
     94 U004a		       00	   CTRLPF     ds	1	; $0A	 00xx 0xxx   Control Playfield, Ball, Collisions
     95 U004b		       00	   REFP0      ds	1	; $0B	 0000 x000   Reflection Player 0
     96 U004c		       00	   REFP1      ds	1	; $0C	 0000 x000   Reflection Player 1
     97 U004d		       00	   PF0	      ds	1	; $0D	 xxxx 0000   Playfield Register Byte 0
     98 U004e		       00	   PF1	      ds	1	; $0E	 xxxx xxxx   Playfield Register Byte 1
     99 U004f		       00	   PF2	      ds	1	; $0F	 xxxx xxxx   Playfield Register Byte 2
    100 U0050		       00	   RESP0      ds	1	; $10	 ---- ----   Reset Player 0
    101 U0051		       00	   RESP1      ds	1	; $11	 ---- ----   Reset Player 1
    102 U0052		       00	   RESM0      ds	1	; $12	 ---- ----   Reset Missle 0
    103 U0053		       00	   RESM1      ds	1	; $13	 ---- ----   Reset Missle 1
    104 U0054		       00	   RESBL      ds	1	; $14	 ---- ----   Reset Ball
    105 U0055		       00	   AUDC0      ds	1	; $15	 0000 xxxx   Audio Control 0
    106 U0056		       00	   AUDC1      ds	1	; $16	 0000 xxxx   Audio Control 1
    107 U0057		       00	   AUDF0      ds	1	; $17	 000x xxxx   Audio Frequency 0
    108 U0058		       00	   AUDF1      ds	1	; $18	 000x xxxx   Audio Frequency 1
    109 U0059		       00	   AUDV0      ds	1	; $19	 0000 xxxx   Audio Volume 0
    110 U005a		       00	   AUDV1      ds	1	; $1A	 0000 xxxx   Audio Volume 1
    111 U005b		       00	   GRP0       ds	1	; $1B	 xxxx xxxx   Graphics Register Player 0
    112 U005c		       00	   GRP1       ds	1	; $1C	 xxxx xxxx   Graphics Register Player 1
    113 U005d		       00	   ENAM0      ds	1	; $1D	 0000 00x0   Graphics Enable Missle 0
    114 U005e		       00	   ENAM1      ds	1	; $1E	 0000 00x0   Graphics Enable Missle 1
    115 U005f		       00	   ENABL      ds	1	; $1F	 0000 00x0   Graphics Enable Ball
    116 U0060		       00	   HMP0       ds	1	; $20	 xxxx 0000   Horizontal Motion Player 0
    117 U0061		       00	   HMP1       ds	1	; $21	 xxxx 0000   Horizontal Motion Player 1
    118 U0062		       00	   HMM0       ds	1	; $22	 xxxx 0000   Horizontal Motion Missle 0
    119 U0063		       00	   HMM1       ds	1	; $23	 xxxx 0000   Horizontal Motion Missle 1
    120 U0064		       00	   HMBL       ds	1	; $24	 xxxx 0000   Horizontal Motion Ball
    121 U0065		       00	   VDELP0     ds	1	; $25	 0000 000x   Vertical Delay Player 0
    122 U0066		       00	   VDELP1     ds	1	; $26	 0000 000x   Vertical Delay Player 1
    123 U0067		       00	   VDELBL     ds	1	; $27	 0000 000x   Vertical Delay Ball
    124 U0068		       00	   RESMP0     ds	1	; $28	 0000 00x0   Reset Missle 0 to Player 0
    125 U0069		       00	   RESMP1     ds	1	; $29	 0000 00x0   Reset Missle 1 to Player 1
    126 U006a		       00	   HMOVE      ds	1	; $2A	 ---- ----   Apply Horizontal Motion
    127 U006b		       00	   HMCLR      ds	1	; $2B	 ---- ----   Clear Horizontal Move Registers
    128 U006c		       00	   CXCLR      ds	1	; $2C	 ---- ----   Clear Collision Latches
    129 U006d
    130 U006d							;-------------------------------------------------------------------------------
    131 U006d
    132 U004e ????				      SEG.U	TIA_REGISTERS_READ
    133 U0040					      ORG	TIA_BASE_READ_ADDRESS
    134 U0040
    135 U0040							;											bit 7	 bit 6
    136 U0040		       00	   CXM0P      ds	1	; $00	     xx00 0000	     Read Collision  M0-P1   M0-P0
    137 U0041		       00	   CXM1P      ds	1	; $01	     xx00 0000			     M1-P0   M1-P1
    138 U0042		       00	   CXP0FB     ds	1	; $02	     xx00 0000			     P0-PF   P0-BL
    139 U0043		       00	   CXP1FB     ds	1	; $03	     xx00 0000			     P1-PF   P1-BL
    140 U0044		       00	   CXM0FB     ds	1	; $04	     xx00 0000			     M0-PF   M0-BL
    141 U0045		       00	   CXM1FB     ds	1	; $05	     xx00 0000			     M1-PF   M1-BL
    142 U0046		       00	   CXBLPF     ds	1	; $06	     x000 0000			     BL-PF   -----
    143 U0047		       00	   CXPPMM     ds	1	; $07	     xx00 0000			     P0-P1   M0-M1
    144 U0048		       00	   INPT0      ds	1	; $08	     x000 0000	     Read Pot Port 0
    145 U0049		       00	   INPT1      ds	1	; $09	     x000 0000	     Read Pot Port 1
    146 U004a		       00	   INPT2      ds	1	; $0A	     x000 0000	     Read Pot Port 2
    147 U004b		       00	   INPT3      ds	1	; $0B	     x000 0000	     Read Pot Port 3
    148 U004c		       00	   INPT4      ds	1	; $0C		x000 0000	 Read Input (Trigger) 0
    149 U004d		       00	   INPT5      ds	1	; $0D		x000 0000	 Read Input (Trigger) 1
    150 U004e
    151 U004e							;-------------------------------------------------------------------------------
    152 U004e
    153 U0298 ????				      SEG.U	RIOT
    154 U0280					      ORG	$280
    155 U0280
    156 U0280							; RIOT MEMORY MAP
    157 U0280
    158 U0280		       00	   SWCHA      ds	1	; $280      Port A data register for joysticks:
    159 U0281							;			Bits 4-7 for player 1.  Bits 0-3 for player 2.
    160 U0281
    161 U0281		       00	   SWACNT     ds	1	; $281      Port A data direction register (DDR)
    162 U0282		       00	   SWCHB      ds	1	; $282		Port B data (console switches)
    163 U0283		       00	   SWBCNT     ds	1	; $283      Port B DDR
    164 U0284		       00	   INTIM      ds	1	; $284		Timer output
    165 U0285
    166 U0285		       00	   TIMINT     ds	1	; $285
    167 U0286
    168 U0286							; Unused/undefined registers ($285-$294)
    169 U0286
    170 U0286		       00		      ds	1	; $286
    171 U0287		       00		      ds	1	; $287
    172 U0288		       00		      ds	1	; $288
    173 U0289		       00		      ds	1	; $289
    174 U028a		       00		      ds	1	; $28A
    175 U028b		       00		      ds	1	; $28B
    176 U028c		       00		      ds	1	; $28C
    177 U028d		       00		      ds	1	; $28D
    178 U028e		       00		      ds	1	; $28E
    179 U028f		       00		      ds	1	; $28F
    180 U0290		       00		      ds	1	; $290
    181 U0291		       00		      ds	1	; $291
    182 U0292		       00		      ds	1	; $292
    183 U0293		       00		      ds	1	; $293
    184 U0294
    185 U0294		       00	   TIM1T      ds	1	; $294		set 1 clock interval
    186 U0295		       00	   TIM8T      ds	1	; $295      set 8 clock interval
    187 U0296		       00	   TIM64T     ds	1	; $296      set 64 clock interval
    188 U0297		       00	   T1024T     ds	1	; $297      set 1024 clock interval
    189 U0298
    190 U0298							;-------------------------------------------------------------------------------
    191 U0298							; The following required for back-compatibility with code which does not use
    192 U0298							; segments.
    193 U0298
    194  0000 ????				      SEG
    195  0000 ????
    196  0000 ????						; EOF
------- FILE ./sokoboo.asm
------- FILE macro.h LEVEL 2 PASS 4
      0  0000 ????				      include	"macro.h"
      1  0000 ????
      2  0000 ????						; MACRO.H
      3  0000 ????						; Version 1.06, 3/SEPTEMBER/2004
      4  0000 ????
      5  0000 ????	       00 6a	   VERSION_MACRO =	106
      6  0000 ????
      7  0000 ????						;
      8  0000 ????						; THIS FILE IS EXPLICITLY SUPPORTED AS A DASM-PREFERRED COMPANION FILE
      9  0000 ????						; PLEASE DO *NOT* REDISTRIBUTE MODIFIED VERSIONS OF THIS FILE!
     10  0000 ????						;
     11  0000 ????						; This file defines DASM macros useful for development for the Atari 2600.
     12  0000 ????						; It is distributed as a companion machine-specific support package
     13  0000 ????						; for the DASM compiler. Updates to this file, DASM, and associated tools are
     14  0000 ????						; available at at http://www.atari2600.org/dasm
     15  0000 ????						;
     16  0000 ????						; Many thanks to the people who have contributed.  If you take issue with the
     17  0000 ????						; contents, or would like to add something, please write to me
     18  0000 ????						; (atari2600@taswegian.com) with your contribution.
     19  0000 ????						;
     20  0000 ????						; Latest Revisions...
     21  0000 ????						;
     22  0000 ????						; 1.06  03/SEP/2004	 - nice revision of VERTICAL_BLANK (Edwin Blink)
     23  0000 ????						; 1.05  14/NOV/2003	 - Added VERSION_MACRO equate (which will reflect 100x version #)
     24  0000 ????						;			   This will allow conditional code to verify MACRO.H being
     25  0000 ????						;			   used for code assembly.
     26  0000 ????						; 1.04  13/NOV/2003	 - SET_POINTER macro added (16-bit address load)
     27  0000 ????						;
     28  0000 ????						; 1.03  23/JUN/2003	 - CLEAN_START macro added - clears TIA, RAM, registers
     29  0000 ????						;
     30  0000 ????						; 1.02  14/JUN/2003	 - VERTICAL_SYNC macro added
     31  0000 ????						;			   (standardised macro for vertical synch code)
     32  0000 ????						; 1.01  22/MAR/2003	 - SLEEP macro added.
     33  0000 ????						;			 - NO_ILLEGAL_OPCODES switch implemented
     34  0000 ????						; 1.0	22/MAR/2003		Initial release
     35  0000 ????
     36  0000 ????						; Note: These macros use illegal opcodes.  To disable illegal opcode usage,
     37  0000 ????						;   define the symbol NO_ILLEGAL_OPCODES (-DNO_ILLEGAL_OPCODES=1 on command-line).
     38  0000 ????						;   If you do not allow illegal opcode usage, you must include this file
     39  0000 ????						;   *after* including VCS.H (as the non-illegal opcodes access hardware
     40  0000 ????						;   registers and require them to be defined first).
     41  0000 ????
     42  0000 ????						; Available macros...
     43  0000 ????						;   SLEEP n		 - sleep for n cycles
     44  0000 ????						;   VERTICAL_SYNC	 - correct 3 scanline vertical synch code
     45  0000 ????						;   CLEAN_START	 - set machine to known state on startup
     46  0000 ????						;   SET_POINTER	 - load a 16-bit absolute to a 16-bit variable
     47  0000 ????
     48  0000 ????						;-------------------------------------------------------------------------------
     49  0000 ????						; SLEEP duration
     50  0000 ????						; Original author: Thomas Jentzsch
     51  0000 ????						; Inserts code which takes the specified number of cycles to execute.	This is
     52  0000 ????						; useful for code where precise timing is required.
     53  0000 ????						; ILLEGAL-OPCODE VERSION DOES NOT AFFECT FLAGS OR REGISTERS.
     54  0000 ????						; LEGAL OPCODE VERSION MAY AFFECT FLAGS
     55  0000 ????						; Uses illegal opcode (DASM 2.20.01 onwards).
     56  0000 ????
     57  0000 ????				      MAC	sleep
     58  0000 ????			   .CYCLES    SET	{1}
     59  0000 ????
     60  0000 ????				      IF	.CYCLES < 2
     61  0000 ????				      ECHO	"MACRO ERROR: 'SLEEP': Duration must be > 1"
     62  0000 ????				      ERR
     63  0000 ????				      ENDIF
     64  0000 ????
     65  0000 ????				      IF	.CYCLES & 1
     66  0000 ????				      IFNCONST	NO_ILLEGAL_OPCODES
     67  0000 ????				      nop	0
     68  0000 ????				      ELSE
     69  0000 ????				      bit	VSYNC
     70  0000 ????				      ENDIF
     71  0000 ????			   .CYCLES    SET	.CYCLES - 3
     72  0000 ????				      ENDIF
     73  0000 ????
     74  0000 ????				      REPEAT	.CYCLES / 2
     75  0000 ????				      nop
     76  0000 ????				      REPEND
     77  0000 ????				      ENDM		;usage: SLEEP n (n>1)
     78  0000 ????
     79  0000 ????						;-------------------------------------------------------------------------------
     80  0000 ????						; VERTICAL_SYNC
     81  0000 ????						; revised version by Edwin Blink -- saves bytes!
     82  0000 ????						; Inserts the code required for a proper 3 scanline vertical sync sequence
     83  0000 ????						; Note: Alters the accumulator
     84  0000 ????
     85  0000 ????						; OUT: A = 0
     86  0000 ????
     87  0000 ????				      MAC	vertical_sync
     88  0000 ????				      lda	#%1110	; each '1' bits generate a VSYNC ON line (bits 1..3)
     89  0000 ????			   .VSLP1     sta	WSYNC	; 1st '0' bit resets Vsync, 2nd '0' bit exit loop
     90  0000 ????				      sta	VSYNC
     91  0000 ????				      lsr
     92  0000 ????				      bne	.VSLP1	; branch until VYSNC has been reset
     93  0000 ????				      ENDM
     94  0000 ????
     95  0000 ????						;-------------------------------------------------------------------------------
     96  0000 ????						; CLEAN_START
     97  0000 ????						; Original author: Andrew Davie
     98  0000 ????						; Standardised start-up code, clears stack, all TIA registers and RAM to 0
     99  0000 ????						; Sets stack pointer to $FF, and all registers to 0
    100  0000 ????						; Sets decimal mode off, sets interrupt flag (kind of un-necessary)
    101  0000 ????						; Use as very first section of code on boot (ie: at reset)
    102  0000 ????						; Code written to minimise total ROM usage - uses weird 6502 knowledge :)
    103  0000 ????
    104  0000 ????				      MAC	clean_start
    105  0000 ????				      sei
    106  0000 ????				      cld
    107  0000 ????
    108  0000 ????				      ldx	#0
    109  0000 ????				      txa
    110  0000 ????				      tay
    111  0000 ????			   .CLEAR_STACK dex
    112  0000 ????				      txs
    113  0000 ????				      pha
    114  0000 ????				      bne	.CLEAR_STACK	; SP=$FF, X = A = Y = 0
    115  0000 ????
    116  0000 ????				      ENDM
    117  0000 ????
    118  0000 ????						;-------------------------------------------------------
    119  0000 ????						; SET_POINTER
    120  0000 ????						; Original author: Manuel Rotschkar
    121  0000 ????						;
    122  0000 ????						; Sets a 2 byte RAM pointer to an absolute address.
    123  0000 ????						;
    124  0000 ????						; Usage: SET_POINTER pointer, address
    125  0000 ????						; Example: SET_POINTER SpritePTR, SpriteData
    126  0000 ????						;
    127  0000 ????						; Note: Alters the accumulator, NZ flags
    128  0000 ????						; IN 1: 2 byte RAM location reserved for pointer
    129  0000 ????						; IN 2: absolute address
    130  0000 ????
    131  0000 ????				      MAC	set_pointer
    132  0000 ????			   .POINTER   SET	{1}
    133  0000 ????			   .ADDRESS   SET	{2}
    134  0000 ????
    135  0000 ????				      LDA	#<.ADDRESS	; Get Lowbyte of Address
    136  0000 ????				      STA	.POINTER	; Store in pointer
    137  0000 ????				      LDA	#>.ADDRESS	; Get Hibyte of Address
    138  0000 ????				      STA	.POINTER+1	; Store in pointer+1
    139  0000 ????
    140  0000 ????				      ENDM
    141  0000 ????
    142  0000 ????						;-------------------------------------------------------
    143  0000 ????						; BOUNDARY byte#
    144  0000 ????						; Original author: Denis Debro (borrowed from Bob Smith / Thomas)
    145  0000 ????						;
    146  0000 ????						; Push data to a certain position inside a page and keep count of how
    147  0000 ????						; many free bytes the programmer will have.
    148  0000 ????						;
    149  0000 ????						; eg: BOUNDARY 5    ; position at byte #5 in page
    150  0000 ????
    151  0000 ????			   __DASM__TOTAL_FREE_MEMORY SET	0
    152  0000 ????			   .FREE_BYTES SET	0
    153  0000 ????				      MAC	boundary
    154  0000 ????				      REPEAT	256
    155  0000 ????				      IF	<. % {1} = 0
    156  0000 ????				      MEXIT
    157  0000 ????				      ELSE
    158  0000 ????			   .FREE_BYTES SET	.FREE_BYTES + 1
    159  0000 ????				      .byte	$00
    160  0000 ????				      ENDIF
    161  0000 ????				      REPEND
    162  0000 ????			   __DASM__TOTAL_FREE_MEMORY SET	__DASM__TOTAL_FREE_MEMORY + .FREE_BYTES
    163  0000 ????				      ENDM
    164  0000 ????
    165  0000 ????
    166  0000 ????						; EOF
------- FILE ./sokoboo.asm
     41  0000 ????
------- FILE segtime.asm LEVEL 2 PASS 4
      0  0000 ????				      include	"segtime.asm"
      1  0000 ????						;    Sokoboo - a Sokoban implementation
      2  0000 ????						;    using a generic tile-based display engine for the Atari 2600
      3  0000 ????						;    Sokoban (倉庫番)™ is © Falcon Co., Ltd.
      4  0000 ????						;
      5  0000 ????						;    Code related to this Sokoban™ implementation was developed by Andrew Davie.
      6  0000 ????						;
      7  0000 ????						;    Code related to the generic tile-based display engine was developed by
      8  0000 ????						;    Andrew Davie and Thomas Jentzsch during 2003-2011 and is
      9  0000 ????						;    Copyright(C)2003-2019 Thomas Jentzsch and Andrew Davie - contacts details:
     10  0000 ????						;    Andrew Davie (andrew@taswegian.com), Thomas Jentzsch (tjentzsch@yahoo.de).
     11  0000 ????						;
     12  0000 ????						;    Code related to music and sound effects uses the TIATracker music player
     13  0000 ????						;    Copyright 2016 Andre "Kylearan" Wichmann - see source code in the "sound"
     14  0000 ????						;    directory for Apache licensing details.
     15  0000 ????						;
     16  0000 ????						;    Some level data incorporated in this program were created by Lee J Haywood.
     17  0000 ????						;    See the copyright notices in the License directory for a list of level
     18  0000 ????						;    contributors.
     19  0000 ????						;
     20  0000 ????						;    Except where otherwise indicated, this software is released under the
     21  0000 ????						;    following licensing arrangement...
     22  0000 ????						;
     23  0000 ????						;    This program is free software: you can redistribute it and/or modify
     24  0000 ????						;    it under the terms of the GNU General Public License as published by
     25  0000 ????						;    the Free Software Foundation, either version 3 of the License, or
     26  0000 ????						;    (at your option) any later version.
     27  0000 ????						;    see https://www.gnu.org/licenses/gpl-3.0.en.html
     28  0000 ????
     29  0000 ????						;    This program is distributed in the hope that it will be useful,
     30  0000 ????						;    but WITHOUT ANY WARRANTY; without even the implied warranty of
     31  0000 ????						;    MERCHANTABILITY or FITNESS FOR A PARTICULAR PURPOSE.  See the
     32  0000 ????						;    GNU General Public License for more details.
     33  0000 ????
     34  0000 ????						; segtime optimization (averages):
     35  0000 ????						;   lost time = segtime/2 * 64
     36  0000 ????						;   num-segments = (vblank + overscan time) (NTSC 276=62+51=113) / 2 / segtime
     37  0000 ????						;   overhead: num-segments * 8 (assuming minimal INTIM check only)
     38  0000 ????						;
     39  0000 ????						; segtime = 2:
     40  0000 ????						;   lost time = 64
     41  0000 ????						;   num-segments = 28
     42  0000 ????						;   overhead = 224!
     43  0000 ????						; segtime = 3:
     44  0000 ????						;   lost time = 96
     45  0000 ????						;   num-segments = 18
     46  0000 ????						;   overhead = 144!
     47  0000 ????						; segtime = 4: 	     <--!!!
     48  0000 ????						;   lost time = 128!
     49  0000 ????						;   num-segments = 28
     50  0000 ????						;   overhead = 112
     51  0000 ????						; segtime = 5:
     52  0000 ????						;   lost time = 160!
     53  0000 ????						;   num-segments = 11
     54  0000 ????						;   overhead = 88
     55  0000 ????						; segtime = 6:
     56  0000 ????						;   lost time = 192!
     57  0000 ????						;   num-segments = 9
     58  0000 ????						;   overhead = 72
     59  0000 ????						; segtime = 7:
     60  0000 ????						;   lost time = 224!
     61  0000 ????						;   num-segments = 8
     62  0000 ????						;   overhead = 64
     63  0000 ????						; segtime = 10:
     64  0000 ????						;   lost time = 320!
     65  0000 ????						;   num-segments = 5
     66  0000 ????						;   overhead = 40
     67  0000 ????						; segtime = 20:
     68  0000 ????						;   lost time = 640!
     69  0000 ????						;   num-segments = 2
     70  0000 ????						;   overhead = 16
     71  0000 ????						; segtime = 40:
     72  0000 ????						;   lost time = 1280!
     73  0000 ????						;   num-segments = 1
     74  0000 ????						;   overhead = 8
     75  0000 ????
     76  0000 ????						; optimal INTIM segtime is 4 + 1 = 5,
     77  0000 ????						; below wasted time increases rapidly, above only moderately
     78  0000 ????						; if the overhead becomes larger, optimal segtimes will increase too
     79  0000 ????						; also the lost time will become smaller, if smaller segments can be used instead,
     80  0000 ????						;  so larger segtimes are not that bad then
     81  0000 ????
     82  0000 ????
     83  0000 ????				      MAC	segtime
     84  0000 ????			   {1}	      SET	{2}
     85  0000 ????			   TEST_{1}   =	0
     86  0000 ????				      ENDM
     87  0000 ????
     88  0000 ????				      MAC	xsegtime
     89  0000 ????			   {1}	      SET	{2}-1
     90  0000 ????			   TEST_{1}   =	1
     91  0000 ????				      ENDM
     92  0000 ????
     93  0000 ????				      MAC	segtime_c
     94  0000 ????			   {1}	      SET	({2}+32)/64 + 1
     95  0000 ????			   TEST_{1}   =	0
     96  0000 ????				      ENDM
     97  0000 ????
     98  0000 ????						;@TJ -- SIMPLY PUT AN X IN FRONT OF THE LINE(S) YOU WANT TO TEST
     99  0000 ????						; eg: XSEGTIME SEGTIME_BOX1,5
    100  0000 ????						; No other action required.  All code enables/disables automatically.
    101  0000 ????
    102  0000 ????						; 2012/02/11 -- experimental reduction in times (but not stress tested)
    103  0000 ????						; due to separation of timeslice overhead to separate check
    104  0000 ????
      0  0000 ????				      SEGTIME_C	SEGTIME_SCD_DIRECT, 355	; @ 4/8/2019
      1  0000 ????			   SEGTIME_SCD_DIRECT SET	(355+32)/64 + 1
      2  0000 ????	       00 00	   TEST_SEGTIME_SCD_DIRECT =	0
      0  0000 ????				      SEGTIME_C	SEGTIME_SCD_QUICK, 386	; @ 4/8/2019
      1  0000 ????			   SEGTIME_SCD_QUICK SET	(386+32)/64 + 1
      2  0000 ????	       00 00	   TEST_SEGTIME_SCD_QUICK =	0
      0  0000 ????				      SEGTIME_C	SEGTIME_SCD_SLOW, 651	; @ 4/8/2019
      1  0000 ????			   SEGTIME_SCD_SLOW SET	(651+32)/64 + 1
      2  0000 ????	       00 00	   TEST_SEGTIME_SCD_SLOW =	0
      0  0000 ????				      SEGTIME_C	SEGTIME_SCD_PF0, 88	; @ 4/8/2019 ??
      1  0000 ????			   SEGTIME_SCD_PF0 SET	(88+32)/64 + 1
      2  0000 ????	       00 00	   TEST_SEGTIME_SCD_PF0 =	0
    109  0000 ????
      0  0000 ????				      SEGTIME	SEGTIME_SCD_MIN,SEGTIME_SCD_PF0+1	; * MINIMUM TIME OF THE ABOVE + 1
      1  0000 ????			   SEGTIME_SCD_MIN SET	SEGTIME_SCD_PF0+1
      2  0000 ????	       00 00	   TEST_SEGTIME_SCD_MIN =	0
    111  0000 ????
    112  0000 ????			  -	      IF	MULTI_BANK_BOARD = YES
    113  0000 ????			  -	      SEGTIME	SEGTIME_BDF,42 +4	; * 5/8/11 stress tested DHS->DS
    114  0000 ????				      ELSE
      0  0000 ????				      SEGTIME	SEGTIME_BDF,38	; glitches on 37 - 10/8/2019
      1  0000 ????			   SEGTIME_BDF SET	38
      2  0000 ????	       00 00	   TEST_SEGTIME_BDF =	0
    116  0000 ????				      ENDIF
    117  0000 ????
      0  0000 ????				      SEGTIME	SEGTIME_BDS, 2	; *AD 11/8/11
      1  0000 ????			   SEGTIME_BDS SET	2
      2  0000 ????	       00 00	   TEST_SEGTIME_BDS =	0
      0  0000 ????				      SEGTIME_C	SEGTIME_DSL, 125	; * 9/8/11 unrolled once
      1  0000 ????			   SEGTIME_DSL SET	(125+32)/64 + 1
      2  0000 ????	       00 00	   TEST_SEGTIME_DSL =	0
    120  0000 ????
    121  0000 ????
    122  0000 ????						;following will lock-up system if used as 'XSEGTIME'.
      0  0000 ????				      SEGTIME_C	MINIMUM_SEGTIME, 87	; processing slice minimum requirement
      1  0000 ????			   MINIMUM_SEGTIME SET	(87+32)/64 + 1
      2  0000 ????	       00 00	   TEST_MINIMUM_SEGTIME =	0
      0  0000 ????				      SEGTIME	SEGTIME_MINIMUM_TIMESLICE,MINIMUM_SEGTIME+1	; MINIMUM of the TIMESLICE segments listed above
      1  0000 ????			   SEGTIME_MINIMUM_TIMESLICE SET	MINIMUM_SEGTIME+1
      2  0000 ????	       00 00	   TEST_SEGTIME_MINIMUM_TIMESLICE =	0
    125  0000 ????
    126  0000 ????						; Note: we add 1 to the minimum because there's a bit of overhead at the start of the timeslice code which vectors
    127  0000 ????						; to the appropriate timeslice.  That timeslice then checks the segtime again -- and in the case of the minimum we
    128  0000 ????						; will already have used 55 cycles of the available timeslice to get to the segtime check. Given that there are only
    129  0000 ????						; 9 spare cycles in the 'unit' left, it's probably more efficient to abort earlier and save those 55 cycles for other
    130  0000 ????						; uses ...
    131  0000 ????
    132  0000 ????
    133  0000 ????						; The following timings have been physicaly timed via code/debugger... the comment shows the worst observed time.
    134  0000 ????						; Generally the allocated segtime should be a bit bigger than the worst observed, to cater for the minor code
    135  0000 ????						; outside the creature itself which might otherwise cause screen time over-run.
    136  0000 ????
    137  0000 ????						; The following are NOT object-related and timing is a bit of manual guesswork/calculation
    138  0000 ????						; Comment may indicate at what value a glitch was DEFINITELY seen. These timings may not be optimal.
    139  0000 ????
      0  0000 ????				      SEGTIME	SEGTIME_MAN,10	;24 ;<< using this as XSEGTIME stops player working ...?!
      1  0000 ????			   SEGTIME_MAN SET	10
      2  0000 ????	       00 00	   TEST_SEGTIME_MAN =	0
      0  0000 ????				      SEGTIME	SEGTIME_CIRCLE, 10	; drawing circle creature
      1  0000 ????			   SEGTIME_CIRCLE SET	10
      2  0000 ????	       00 00	   TEST_SEGTIME_CIRCLE =	0
      0  0000 ????				      SEGTIME	SEGTIME_CIRCLE_HELPER, 10	; drawing circle creature's helper
      1  0000 ????			   SEGTIME_CIRCLE_HELPER SET	10
      2  0000 ????	       00 00	   TEST_SEGTIME_CIRCLE_HELPER =	0
    143  0000 ????
    144  0000 ????						; TJ: I should only prevent processes with an extra check (e.g. get TARGET)
    145  0000 ????
    146  0000 ????						; push BOX is slowest (besides get TARGET which has an extra timer check)
    147  0000 ????						; if we add another check for it, SEGTIME_MAN reduces by ~5
    148  0000 ????
      0  0000 ????				      SEGTIME_C	SEGTIME_SWITCHOBJECTS,74	; 16/8/11 by calculation. 72 cycles -->  ceil(72/64)+1 --> 3 Object stack switchover
      1  0000 ????			   SEGTIME_SWITCHOBJECTS SET	(74+32)/64 + 1
      2  0000 ????	       00 00	   TEST_SEGTIME_SWITCHOBJECTS =	0
------- FILE ./sokoboo.asm
     43  0000 ????
     44  0000 ????						;FIXED_BANK		 = 3 * 2048	      ;-->  8K ROM tested OK
     45  0000 ????						;FIXED_BANK		  = 7 * 2048	      ;-->  16K ROM tested OK
     46  0000 ????	       78 00	   FIXED_BANK =	15 * 2048	; ->> 32K
     47  0000 ????						;FIXED_BANK		 = 239 * 2048	      ;--> 480K ROM tested OK (KK/CC2 compatibility)
     48  0000 ????						;FIXED_BANK		 = 127 * 2048	      ;--> 256K ROM tested OK
     49  0000 ????						;FIXED_BANK		 = 255 * 2048	      ;--> 512K ROM tested OK (CC2 can't handle this)
     50  0000 ????
     51  0000 ????	       00 01	   YES	      =	1
     52  0000 ????	       00 00	   NO	      =	0
     53  0000 ????
     54  0000 ????	       00 00	   DEBUG      =	NO
     55  0000 ????
     56  0000 ????	       00 00	   TJ_MODE    =	NO	; some changes which TJ prefers
     57  0000 ????	       00 01	   AD_MODE    =	YES	; some changes which AD prefers
     58  0000 ????
     59  0000 ????			  -	      IF	TJ_MODE && AD_MODE
     60  0000 ????			  -	      ECHO	"ERROR: Both TJ_MODE and AD_MODE set. Can't do both TJ and AD at the same time!"
     61  0000 ????			  -	      ERR
     62  0000 ????				      ENDIF
     63  0000 ????
     64  0000 ????
     65  0000 ????						; Note: you may also need to change the emulator "-format" switch in the Makefile.
     66  0000 ????
     67  0000 ????
     68  0000 ????						;===================================
     69  0000 ????	       00 00	   FINAL_VERSION =	NO	; this OVERRIDES any selections below and sets everything correct for a final release
     70  0000 ????						;===================================
     71  0000 ????
     72  0000 ????						;-------------------------------------------------------------------------------
     73  0000 ????						; The following should be YES for the final or DEMO version
     74  0000 ????			   EMBED_COPYRIGHT SET	YES	; place embedded copyright notice in binary (hex string)
     75  0000 ????
     76  0000 ????						;-------------------------------------------------------------------------------
     77  0000 ????						; The following are optional YES/NO depending on phase of the moon
     78  0000 ????			   L276       SET	YES	; use 276 line display for NTSC
     79  0000 ????						;-------------------------------------------------------------------------------
     80  0000 ????
     81  0000 ????	       00 01	   NUMPLAYERS =	1	; 1-indexed
     82  0000 ????	       00 05	   NUM_LEVELS =	5
     83  0000 ????			   NUM_LIVES  SET	3	; use -1 for unlimited lives
     84  0000 ????
     85  0000 ????						;-------------------------------------------------------------------------------
     86  0000 ????						; DO NOT MODIFY THE BELOW SETTINGS -- USE THE ONES ABOVE!
     87  0000 ????						; Here we make sure everyting is OK based on the single switch -- less chance for accidents
     88  0000 ????			  -	      IF	FINAL_VERSION = YES
     89  0000 ????			  -L276       SET	YES	; use 276 line display for NTSC
     90  0000 ????			  -
     91  0000 ????			  -NUM_LIVES  SET	3	; use -1 for unlimited lives
     92  0000 ????				      ENDIF
     93  0000 ????
     94  0000 ????						;-------------------------------------------------------------------------------
     95  0000 ????
     96  0000 ????	       00 01	   COMPILE_ILLEGALOPCODES =	1
     97  0000 ????	       00 0c	   RESERVED_FOR_STACK =	12	; bytes guaranteed not overwritten by variable use
     98  0000 ????
     99  0000 ????
    100  0000 ????	       00 01	   PUSH_LIMIT =	1	; slowdown when pushing on a BOX
    101  0000 ????
    102  0000 ????						; time bonus countdown constants:
    103  0000 ????	       00 ff	   EXTRA_LIFE_TIMER =	255	; Cosmic Ark star effect on extra life. Should be 5 seconds like in original
    104  0000 ????	       00 3c	   SCORING_TIMER =	60	; ~1.0 second
    105  0000 ????	       00 96	   SCORING_TIMER_FIRST =	150	; begin level timer is long to show level/lives clearly
    106  0000 ????
    107  0000 ????	       00 07	   DIRECTION_BITS =	%111	; for ManLastDirection
    108  0000 ????
    109  0000 ????	       00 03	   FACE_LEFT  =	3
    110  0000 ????
    111  0000 ????	       00 a0	   MAX_THROTTLE =	160	; must be small enough to allow ~2 * max add value overflow (<256 - 2*max throttle value!)
    112  0000 ????
    113  0000 ????						;scoring flags contants:
    114  0000 ????	       00 03	   DISPLAY_FLAGS =	%11
    115  0000 ????	       00 00	   DISPLAY_TIME =	%00
    116  0000 ????	       00 01	   DISPLAY_SCORE =	%01
    117  0000 ????	       00 02	   DISPLAY_LIVES =	%10
    118  0000 ????	       00 03	   DISPLAY_HIGH =	%11
    119  0000 ????
    120  0000 ????						;------------------------------------------------------------------------------
    121  0000 ????
    122  0000 ????	       00 01	   MIRRORED_BOX =	YES
    123  0000 ????	       00 01	   MIRRORED_STEEL =	YES
    124  0000 ????	       00 01	   MIRRORED_WALL =	YES
    125  0000 ????
    126  0000 ????	       00 00	   TROPHY     =	NO
    127  0000 ????	       00 00	   DIGITS     =	NO
    128  0000 ????	       00 01	   WAIT_FOR_INITIAL_DRAW =	YES	; blank until all initial tiles drawn
    129  0000 ????
    130  0000 ????						;------------------------------------------------------------------------------
    131  0000 ????
    132  0000 ????	       00 0a	   SCREEN_WIDTH =	10	; board characters per line (DIFFICULT TO CHANGE)
    133  0000 ????
    134  0000 ????	       00 08	   SCREEN_LINES =	8	; number of scanlines in screen buffer
    135  0000 ????	       00 18	   LINES_PER_CHAR =	24	; MULTIPLE OF 3 SO RGB INTERFACES CHARS OK
    136  0000 ????
    137  0000 ????	       00 50	   SCREEN_ARRAY_SIZE =	SCREEN_WIDTH * SCREEN_LINES
    138  0000 ????
    139  0000 ????
    140  0000 ????	       00 3f	   SET_BANK   =	$3F	; write address to switch ROM banks
    141  0000 ????	       00 3e	   SET_BANK_RAM =	$3E	; write address to switch RAM banks
    142  0000 ????
    143  0000 ????
    144  0000 ????						; color constants:
    145  0000 ????	       00 0e	   WHITE      =	$0e	; bright white, for NTSC and PAL
    146  0000 ????
    147  0000 ????	       00 10	   YELLOW_NTSC =	$10
    148  0000 ????	       00 20	   YELLOW_PAL =	$20
    149  0000 ????
    150  0000 ????
    151  0000 ????	       10 00	   RAM_3E     =	$1000
    152  0000 ????	       04 00	   RAM_SIZE   =	$400
    153  0000 ????	       04 00	   RAM_WRITE  =	$400	; add this to RAM address when doing writes
    154  0000 ????
    155  0000 ????
    156  0000 ????	       00 b4	   RND_EOR_VAL =	$b4
    157  0000 ????
    158  0000 ????
    159  0000 ????						; Platform constants:
    160  0000 ????	       00 02	   PAL	      =	%10
    161  0000 ????	       00 02	   PAL_50     =	PAL|0
    162  0000 ????	       00 03	   PAL_60     =	PAL|1
    163  0000 ????
    164  0000 ????
    165  0000 ????				      IF	L276
    166  0000 ????	       00 32	   VBLANK_TIM_NTSC =	50	; NTSC 276 (Desert Falcon does 280, so this should be pretty safe)
    167  0000 ????			  -	      ELSE
    168  0000 ????			  -VBLANK_TIM_NTSC =	50	; NTSC 262
    169  0000 ????				      ENDIF
    170  0000 ????	       00 55	   VBLANK_TIM_PAL =	85	;85			    ; PAL 312 (we could increase this too, if we want to, but I suppose the used vertical screen size would become very small then)
    171  0000 ????
    172  0000 ????				      IF	L276
    173  0000 ????	       00 22	   OVERSCAN_TIM_NTSC =	34	;24 ;51			; NTSC 276 (Desert Falcon does 280, so this should be pretty safe)
    174  0000 ????			  -	      ELSE
    175  0000 ????			  -OVERSCAN_TIM_NTSC =	8	;51			    ; NTSC 262
    176  0000 ????				      ENDIF
    177  0000 ????	       00 29	   OVERSCAN_TIM_PAL =	41	; PAL 312 (we could increase this too, if we want to, but I suppose the used vertical screen size would become very small then)
    178  0000 ????
    179  0000 ????				      IF	L276
    180  0000 ????	       01 14	   SCANLINES_NTSC =	276	; NTSC 276 (Desert Falcon does 280, so this should be pretty safe)
    181  0000 ????			  -	      ELSE
    182  0000 ????			  -SCANLINES_NTSC =	262	; NTSC 262
    183  0000 ????				      ENDIF
    184  0000 ????	       01 38	   SCANLINES_PAL =	312
    185  0000 ????
    186  0000 ????
    187  0000 ????						;------------------------------------------------------------------------------
    188  0000 ????						; MACRO definitions
    189  0000 ????
    190  0000 ????	       08 00	   ROM_BANK_SIZE =	$800
    191  0000 ????
    192  0000 ????				      MAC	newbank
    193  0000 ????				      SEG	{1}
    194  0000 ????				      ORG	ORIGIN
    195  0000 ????				      RORG	$F000
    196  0000 ????			   BANK_START SET	*
    197  0000 ????			   {1}	      SET	ORIGIN / 2048
    198  0000 ????			   ORIGIN     SET	ORIGIN + 2048
    199  0000 ????			   _CURRENT_BANK SET	{1}
    200  0000 ????				      ENDM		; bank name
    201  0000 ????
    202  0000 ????				      MAC	define_1k_segment
    203  0000 ????				      ALIGN	$400
    204  0000 ????			   SEGMENT_{1} SET	*
    205  0000 ????			   BANK_{1}   SET	_CURRENT_BANK
    206  0000 ????				      ENDM		; {seg name}
    207  0000 ????
    208  0000 ????				      MAC	check_bank_size
    209  0000 ????			   .TEMP      =	* - BANK_START
    210  0000 ????				      ECHO	{1}, "(2K) SIZE = ", .TEMP, ", FREE=", ROM_BANK_SIZE - .TEMP
    211  0000 ????				      if	( .TEMP ) > ROM_BANK_SIZE
    212  0000 ????				      ECHO	"BANK OVERFLOW @ ", * - ORIGIN
    213  0000 ????				      ERR
    214  0000 ????				      endif
    215  0000 ????				      ENDM		; name
    216  0000 ????
    217  0000 ????
    218  0000 ????				      MAC	check_half_bank_size
    219  0000 ????						; This macro is for checking the first 1K of ROM bank data that is to be copied to RAM.
    220  0000 ????						; Note that these ROM banks can contain 2K, so this macro will generally go 'halfway'
    221  0000 ????			   .TEMP      =	* - BANK_START
    222  0000 ????				      ECHO	{1}, "(1K) SIZE = ", .TEMP, ", FREE=", ROM_BANK_SIZE/2 - .TEMP
    223  0000 ????				      if	( .TEMP ) > ROM_BANK_SIZE/2
    224  0000 ????				      ECHO	"HALF-BANK OVERFLOW @ ", * - ORIGIN
    225  0000 ????				      ERR
    226  0000 ????				      endif
    227  0000 ????				      ENDM		; name
    228  0000 ????
    229  0000 ????
    230  0000 ????				      MAC	overlay
    231  0000 ????				      SEG.U	OVERLAY_{1}
    232  0000 ????				      org	Overlay
    233  0000 ????				      ENDM		; {name}
    234  0000 ????
    235  0000 ????						;--------------------------------------------------------------------------
    236  0000 ????
    237  0000 ????				      MAC	validate_overlay
    238  0000 ????				      LIST	OFF
    239  0000 ????				      if	* - Overlay > OVERLAY_SIZE
    240  0000 ????				      ERR
    241  0000 ????				      endif
    242  0000 ????				      LIST	ON
    243  0000 ????				      ENDM
    244  0000 ????
    245  0000 ????						;--------------------------------------------------------------------------
    246  0000 ????						; Macro inserts a page break if the object would overlap a page
    247  0000 ????
    248  0000 ????				      MAC	optional_pagebreak
    249  0000 ????				      LIST	OFF
    250  0000 ????				      IF	(>( * + {2} -1 )) > ( >* )
    251  0000 ????			   EARLY_LOCATION SET	*
    252  0000 ????				      ALIGN	256
    253  0000 ????				      ECHO	"PAGE BREAK INSERTED FOR ", {1}
    254  0000 ????				      ECHO	"REQUESTED SIZE = ", {2}
    255  0000 ????				      ECHO	"WASTED SPACE = ", *-EARLY_LOCATION
    256  0000 ????				      ECHO	"PAGEBREAK LOCATION = ", *
    257  0000 ????				      ENDIF
    258  0000 ????				      LIST	ON
    259  0000 ????				      ENDM		; { string, size }
    260  0000 ????
    261  0000 ????
    262  0000 ????				      MAC	check_page_crossing
    263  0000 ????				      LIST	OFF
    264  0000 ????				      if	( >BLOCK_END != >BLOCK_START )
    265  0000 ????				      ECHO	"PAGE CROSSING @ ", BLOCK_START
    266  0000 ????				      endif
    267  0000 ????				      LIST	ON
    268  0000 ????				      ENDM
    269  0000 ????
    270  0000 ????				      MAC	checkpage
    271  0000 ????				      LIST	OFF
    272  0000 ????				      IF	>. != >{1}
    273  0000 ????				      ECHO	""
    274  0000 ????				      ECHO	"ERROR: different pages! (", {1}, ",", ., ")"
    275  0000 ????				      ECHO	""
    276  0000 ????				      ERR
    277  0000 ????				      ENDIF
    278  0000 ????				      LIST	ON
    279  0000 ????				      ENDM
    280  0000 ????
    281  0000 ????				      MAC	checkpagex
    282  0000 ????				      LIST	OFF
    283  0000 ????				      IF	>. != >{1}
    284  0000 ????				      ECHO	""
    285  0000 ????				      ECHO	"ERROR: different pages! (", {1}, ",", ., ") @ {0}"
    286  0000 ????				      ECHO	{2}
    287  0000 ????				      ECHO	""
    288  0000 ????				      ERR
    289  0000 ????				      ENDIF
    290  0000 ????				      LIST	ON
    291  0000 ????				      ENDM
    292  0000 ????
    293  0000 ????
    294  0000 ????				      MAC	checkpage_bne
    295  0000 ????				      LIST	OFF
    296  0000 ????				      IF	0	;>(. + 2) != >{1}
    297  0000 ????				      ECHO	""
    298  0000 ????				      ECHO	"ERROR: different pages! (", {1}, ",", ., ")"
    299  0000 ????				      ECHO	""
    300  0000 ????				      ERR
    301  0000 ????				      ENDIF
    302  0000 ????				      LIST	ON
    303  0000 ????				      bne	{1}
    304  0000 ????				      ENDM
    305  0000 ????
    306  0000 ????				      MAC	checkpage_bpl
    307  0000 ????				      LIST	OFF
    308  0000 ????				      IF	(>(.+2 )) != >{1}
    309  0000 ????				      ECHO	""
    310  0000 ????				      ECHO	"ERROR: different pages! (", {1}, ",", ., ")"
    311  0000 ????				      ECHO	""
    312  0000 ????				      ERR
    313  0000 ????				      ENDIF
    314  0000 ????				      LIST	ON
    315  0000 ????				      bpl	{1}
    316  0000 ????				      ENDM
    317  0000 ????
    318  0000 ????				      MAC	align_free
    319  0000 ????			   FREE       SET	FREE - .
    320  0000 ????				      align	{1}
    321  0000 ????			   FREE       SET	FREE + .
    322  0000 ????				      echo	"@", ., ":", FREE
    323  0000 ????				      ENDM
    324  0000 ????
    325  0000 ????				      MAC	stress_time
    326  0000 ????				      IF	TEST_{1} = 1
    327  0000 ????
    328  0000 ????
    329  0000 ????						;LIST OFF
    330  0000 ????						; has to be put *directly* after cmp #SEGTIME_... , bcc abort
    331  0000 ????						;LIST ON
    332  0000 ????				      echo	"***** WARNING! STRESS_TIME enabled @", ., "! *****"
    333  0000 ????				      bne	. - 7	; branches to lda INTIM
    334  0000 ????				      ENDIF
    335  0000 ????				      ENDM
    336  0000 ????
    337  0000 ????			   IDENTITY   SET	0
    338  0000 ????				      MAC	ident
    339  0000 ????				      if	DEBUG=YES
    340  0000 ????				      lda	#IDENTITY
    341  0000 ????				      sta	debug_ident
    342  0000 ????				      lda	{1}
    343  0000 ????				      sta	debug_object
    344  0000 ????				      endif
    345  0000 ????			   IDENTITY   SET	IDENTITY + 1
    346  0000 ????				      ENDM		; {object}
    347  0000 ????
    348  0000 ????						;--------------------------------------------------------------------------
    349  0000 ????
    350  0000 ????				      MAC	vector
    351  0000 ????				      .word	{1}
    352  0000 ????				      ENDM		; just a word pointer to code
    353  0000 ????
    354  0000 ????
    355  0000 ????				      MAC	define_subroutine
    356  0000 ????			   BANK_{1}   =	_CURRENT_BANK	; bank in which this subroutine resides
    357  0000 ????				      SUBROUTINE		; keep everything local
    358  0000 ????			   {1}			; entry point
    359  0000 ????				      ENDM		; name of subroutine
    360  0000 ????
    361  0000 ????
    362  0000 ????
    363  0000 ????						;--------------------------------------------------------------------------
    364  0000 ????
    365  0000 ????				      MAC	newrambank
    366  0000 ????				      SEG.U	{1}
    367  0000 ????				      ORG	ORIGIN
    368  0000 ????				      RORG	RAM_3E
    369  0000 ????			   BANK_START SET	*
    370  0000 ????			   {1}	      SET	ORIGIN / RAM_SIZE
    371  0000 ????			   ORIGIN     SET	ORIGIN + RAM_SIZE
    372  0000 ????				      ENDM		; bank name
    373  0000 ????
    374  0000 ????				      MAC	validate_ram_size
    375  0000 ????				      if	* - RAM_3E > RAM_SIZE
    376  0000 ????				      ERR
    377  0000 ????				      endif
    378  0000 ????				      ENDM
    379  0000 ????
    380  0000 ????				      MAC	next_random
    381  0000 ????						; update random value:
    382  0000 ????				      lda	rnd	; 3
    383  0000 ????				      lsr		; 2
    384  0000 ????				      IFCONST	rndHi
    385  0000 ????				      ror	rndHi	; 5	 16 bit LFSR
    386  0000 ????				      ENDIF
    387  0000 ????				      bcc	.skipEOR	; 2/3
    388  0000 ????				      eor	#RND_EOR_VAL	; 2
    389  0000 ????			   .skipEOR
    390  0000 ????				      sta	rnd	; 3 = 14/19
    391  0000 ????				      ENDM
    392  0000 ????
    393  0000 ????				      MAC	resync
    394  0000 ????						; resync screen, X and Y == 0 afterwards
    395  0000 ????				      lda	#%10	; make sure VBLANK is ON
    396  0000 ????				      sta	VBLANK
    397  0000 ????
    398  0000 ????				      ldx	#8	; 5 or more RESYNC_FRAMES
    399  0000 ????			   .loopResync
    400  0000 ????				      VERTICAL_SYNC
    401  0000 ????
    402  0000 ????				      ldy	#SCANLINES_NTSC/2 - 2
    403  0000 ????				      lda	Platform
    404  0000 ????				      eor	#PAL_50	; PAL-50?
    405  0000 ????				      bne	.ntsc
    406  0000 ????				      ldy	#SCANLINES_PAL/2 - 2
    407  0000 ????			   .ntsc
    408  0000 ????			   .loopWait
    409  0000 ????				      sta	WSYNC
    410  0000 ????				      sta	WSYNC
    411  0000 ????				      dey
    412  0000 ????				      bne	.loopWait
    413  0000 ????				      dex
    414  0000 ????				      bne	.loopResync
    415  0000 ????				      ENDM
    416  0000 ????
    417  0000 ????				      MAC	set_platform
    418  0000 ????						; 00 = NTSC
    419  0000 ????						; 01 = NTSC
    420  0000 ????						; 10 = PAL-50
    421  0000 ????						; 11 = PAL-60
    422  0000 ????				      lda	SWCHB
    423  0000 ????				      rol
    424  0000 ????				      rol
    425  0000 ????				      rol
    426  0000 ????				      and	#%11
    427  0000 ????				      eor	#PAL
    428  0000 ????				      sta	Platform	; P1 difficulty --> TV system (0=NTSC, 1=PAL)
    429  0000 ????				      ENDM
    430  0000 ????
    431  0000 ????						;  IF TJ_MODE
    432  0000 ????						;    MAC GET_RAM_BYTE_FROM_RAM ; = 29
    433  0000 ????						;	  ldy #{1}			  ; 2	  read bank
    434  0000 ????						;	  ldx #{2}			  ; 2	  return bank
    435  0000 ????						;	  jsr GetRAMByteFromRAM 	  ;25
    436  0000 ????						;    ENDM
    437  0000 ????						;
    438  0000 ????						;    MAC PUT_RAM_BYTE_FROM_RAM ; = 30
    439  0000 ????						;	  ldy #{1}			  ; 2	  write bank
    440  0000 ????						;	  ldx #{2}			  ; 2	  return bank
    441  0000 ????						;	  jsr PutRAMByteFromRAM 	  ;26
    442  0000 ????						;    ENDM
    443  0000 ????						;
    444  0000 ????						;    MAC GET_RAM_BYTE_FROM_RAM_ADR ; = 39
    445  0000 ????						;	  ldx #<{1}			  ; 2
    446  0000 ????						;	  stx addressR			  ; 3
    447  0000 ????						;	  ldx #>{1}			  ; 2
    448  0000 ????						;	  stx addressR+1		  ; 3
    449  0000 ????						;	  GET_RAM_BYTE_FROM_RAM {2}, {3}  ;29
    450  0000 ????						;    ENDM
    451  0000 ????						;
    452  0000 ????						;    MAC PUT_RAM_BYTE_FROM_RAM_ADR ; = 40
    453  0000 ????						;	  ldx #<{1}			  ; 2
    454  0000 ????						;	  stx addressW			  ; 3
    455  0000 ????						;	  ldx #>({1}+RAM_WRITE) 	  ; 2
    456  0000 ????						;	  stx addressW+1		  ; 3
    457  0000 ????						;	  PUT_RAM_BYTE_FROM_RAM {2}, {3}  ;30
    458  0000 ????						;    ENDM
    459  0000 ????						;  ENDIF
    460  0000 ????
    461  0000 ????				      MAC	nop_b
    462  0000 ????				      .byte	$82
    463  0000 ????				      ENDM		; unused
    464  0000 ????
    465  0000 ????				      MAC	nop_w
    466  0000 ????				      .byte	$0c
    467  0000 ????				      ENDM
    468  0000 ????
    469  0000 ????						;------------------------------------------------------------------------------
    470  0000 ????
    471  0000 ????
------- FILE zeropage.asm LEVEL 2 PASS 4
      0  0000 ????				      include	"zeropage.asm"
      1  0000 ????						;    Sokoboo - a Sokoban implementation
      2  0000 ????						;    using a generic tile-based display engine for the Atari 2600
      3  0000 ????						;    Sokoban (倉庫番)™ is © Falcon Co., Ltd.
      4  0000 ????						;
      5  0000 ????						;    Code related to this Sokoban™ implementation was developed by Andrew Davie.
      6  0000 ????						;
      7  0000 ????						;    Code related to the generic tile-based display engine was developed by
      8  0000 ????						;    Andrew Davie and Thomas Jentzsch during 2003-2011 and is
      9  0000 ????						;    Copyright(C)2003-2019 Thomas Jentzsch and Andrew Davie - contacts details:
     10  0000 ????						;    Andrew Davie (andrew@taswegian.com), Thomas Jentzsch (tjentzsch@yahoo.de).
     11  0000 ????						;
     12  0000 ????						;    Code related to music and sound effects uses the TIATracker music player
     13  0000 ????						;    Copyright 2016 Andre "Kylearan" Wichmann - see source code in the "sound"
     14  0000 ????						;    directory for Apache licensing details.
     15  0000 ????						;
     16  0000 ????						;    Some level data incorporated in this program were created by Lee J Haywood.
     17  0000 ????						;    See the copyright notices in the License directory for a list of level
     18  0000 ????						;    contributors.
     19  0000 ????						;
     20  0000 ????						;    Except where otherwise indicated, this software is released under the
     21  0000 ????						;    following licensing arrangement...
     22  0000 ????						;
     23  0000 ????						;    This program is free software: you can redistribute it and/or modify
     24  0000 ????						;    it under the terms of the GNU General Public License as published by
     25  0000 ????						;    the Free Software Foundation, either version 3 of the License, or
     26  0000 ????						;    (at your option) any later version.
     27  0000 ????						;    see https://www.gnu.org/licenses/gpl-3.0.en.html
     28  0000 ????
     29  0000 ????						;    This program is distributed in the hope that it will be useful,
     30  0000 ????						;    but WITHOUT ANY WARRANTY; without even the implied warranty of
     31  0000 ????						;    MERCHANTABILITY or FITNESS FOR A PARTICULAR PURPOSE.  See the
     32  0000 ????						;    GNU General Public License for more details.
     33  0000 ????
     34 U00fd ????				      SEG.U	variables
     35 U0080					      ORG	$80
     36 U0080
     37 U0080
     38 U0080		       00 40	   GAMEMODE_2600 =	64
     39 U0080		       00 80	   GAMEMODE_PAUSED =	128
     40 U0080
     41 U0080		       00	   gameMode   ds	1	; bit7=0: 7800; bit7=1: 2600.	bit 6=1: paused: bit3: toggle bit for B/W
     42 U0081		       00	   Platform   ds	1	; TV system (%0x=NTSC, %10=PAL-50, %11=PAL-60)
     43 U0082							; above variables are preserved ALL the time!
     44 U0082
     45 U0082		       00	   rnd	      ds	1
     46 U0083		       00	   rndHi      ds	1	; to get better random values
     47 U0084
     48 U0084		       00	   DrawStackPointer ds	1	; points to start entry of drawing stack (-1 = nothing to draw)
     49 U0085		       00	   ObjStackNum ds	1	; which stack in use
     50 U0086		       00 00	   ObjStackPtr ds	2	; index to objects on object stack (0 = empty)
     51 U0088		       00	   BlankStackPtr ds	1	; index to blank object stack (0=empty)
     52 U0089		       00	   ScreenDrawPhase ds	1	; phase of screen drawing
     53 U008a
     54 U008a		       00	   POS_X      ds	1
     55 U008b		       00	   POS_Y      ds	1
     56 U008c		       00	   POS_X_NEW  ds	1
     57 U008d		       00	   POS_Y_NEW  ds	1
     58 U008e		       00	   POS_Type   ds	1
     59 U008f		       00	   POS_VAR    ds	1
     60 U0090
     61 U0090		       00	   TB_X       ds	1
     62 U0091		       00	   TB_Y       ds	1
     63 U0092		       00	   TB_PUSHX   ds	1
     64 U0093		       00	   TB_PUSHY   ds	1
     65 U0094		       00	   TB_CHAR    ds	1
     66 U0095
     67 U0095		       00 00	   BufferedJoystick ds	2	; player joystick input
     68 U0097		       00 00	   BufferedButton ds	2	; player button press
     69 U0099
     70 U0099							; Scrolling is limited to only show board within the following area...
     71 U0099		       00	   BoardLimit_Width ds	1	; width of current playfield (only used in UnpackLevel)
     72 U009a		       00	   BoardLimit_Height ds	1	; height of current playfield (only used in UnpackLevel)
     73 U009b		       00	   BoardScrollY ds	1	; scroll position in board (Y)
     74 U009c		       00	   BoardScrollX ds	1	; scroll position in board (X)
     75 U009c		       00 99	   BoardEdge_Right =	BoardLimit_Width	; absolute rightmost scroll value
     76 U009c		       00 9a	   BoardEdge_Bottom =	BoardLimit_Height	; absolute bottommost scroll value
     77 U009d		       00	   scrollBits ds	1
     78 U009e
     79 U009e		       00	   whichPlayer ds	1	; 0 = P1, 1 = P2
     80 U009f		       00	   manAnimationIndex ds	1
     81 U00a0		       00	   ManX       ds	1
     82 U00a1		       00	   ManY       ds	1
     83 U00a2		       00	   ManDrawX   ds	1
     84 U00a3		       00	   ManDrawY   ds	1
     85 U00a4		       00	   ManMode    ds	1
     86 U00a5		       00	   ManDelayCount ds	1
     87 U00a6		       00 00	   ManAnimation ds	2
     88 U00a8		       00	   ManAnimationFrameLO ds	1
     89 U00a9		       00	   ManLastDirection ds	1	; so we don't overwrite animations in-progress
     90 U00aa		       00	   ManPushCounter ds	1
     91 U00ab		       00	   LookingAround ds	1
     92 U00ac		       00	   ManCount   ds	1	; player life counter
     93 U00ad		       00	   DelayEndOfLevel ds	1
     94 U00ae		       00	   jtoggle    ds	1	; 0/1 toggles joystick on player swapping
     95 U00af		       00 00	   circle_d   ds	2
     96 U00b1
     97 U00b1				  -	      if	0
     98 U00b1				  -circ_x     ds	1
     99 U00b1				  -circ_y     ds	1
    100 U00b1				  -circ_char  ds	1
    101 U00b1				  -circ_scratch ds	1
    102 U00b1					      endif
    103 U00b1		       00	   LEVEL_bank ds	1
    104 U00b2		       00 00	   levelPtr   ds	2
    105 U00b4
    106 U00b4					      IF	WAIT_FOR_INITIAL_DRAW
    107 U00b4		       00	   blankState ds	1
    108 U00b5					      ENDIF
    109 U00b5
    110 U00b5							;---------------------------------------------------------------------------
    111 U00b5							; 2 (shared) demo mode variables:
    112 U00b5		       00 ae	   demoMode   =	jtoggle	; bit 7==1 => demo mode
    113 U00b5		       00 ae	   moveLen    =	jtoggle	; bits 0..6
    114 U00b5		       00 9e	   moveIdx    =	whichPlayer
    115 U00b5
    116 U00b5		       00	   LastSpriteY ds	1
    117 U00b6
    118 U00b6		       00	   timer      ds	1
    119 U00b7
    120 U00b7		       00	   BGColour   ds	1
    121 U00b8
    122 U00b8							; levelx and level have to be consecutive variables!
    123 U00b8		       00	   levelX     ds	1	; current player's level (other in scoring bank)
    124 U00b9		       00	   level      ds	1	; current player's level (other in scoring bank)
    125 U00ba		       00	   levelDisplay ds	1	; what to display as the level ID
    126 U00bb		       00	   Throttle   ds	1	; frame throttle to prevent super-speeds
    127 U00bc		       00	   ThrottleSpeed ds	1	; system-dependant throttle speed
    128 U00bd
    129 U00bd		       00	   targetsRequired ds	1	; number of un-targeted left to go
    130 U00be		       00	   moveCounter ds	1	; BCD seconds for level
    131 U00bf		       00	   moveCounterHi ds	1
    132 U00c0
    133 U00c0		       00	   moveCounterBinary ds	1
    134 U00c1		       00	   moveCounterBase ds	1
    135 U00c2
    136 U00c2		       00 00 00    color      ds	3	; RGB for NTSC, RGB for PAL
    137 U00c5		       00 00	   Board_AddressR ds	2
    138 U00c7		       00 00	   Board_AddressW ds	2
    139 U00c9		       00	   ROM_Bank   ds	1	; last switched ROM bank (not accessible if RAM subsequently switched)
    140 U00ca		       00	   RAM_Bank   ds	1
    141 U00cb
    142 U00cb		       00	   ColourTimer ds	1	; colour of BG in scoring area to show level flash/complete
    143 U00cc		       00	   ColourFlash ds	1	; colour of flash
    144 U00cd		       00	   extraLifeTimer ds	1	; should be 5 seconds!
    145 U00ce
    146 U00ce							; extraLifeTimer:
    147 U00ce							;   When non-zero causes Cosmic Ark star effect in background. Used to indicate extra life.
    148 U00ce
    149 U00ce		       00	   scoringTimer ds	1	; times the various score displays
    150 U00cf		       00	   scoringFlags ds	1	; scoring flags are stored here
    151 U00d0
    152 U00d0							; scoringFlags:
    153 U00d0							; D7		 Extra TARGETs in effect (TARGETs collected over requirement score more) ASSUMED BPL/BMI usage
    154 U00d0							; D6		 unused
    155 U00d0							; D5		 unused
    156 U00d0							; D4		 unused
    157 U00d0							; D3		 unused
    158 U00d0							; D2		 unused
    159 U00d0							; D1	 D1-D0	 Which display kernel to use for scoring
    160 U00d0							; D0		 0 = 2x4     used for TARGETs/time
    161 U00d0							;		 1 = 1x6     used for score
    162 U00d0							;		 2 = 3x2     used for level/lives/player
    163 U00d0
    164 U00d0		       00	   NextLevelTrigger ds	1	; d7 -- next level.  d6 -- loss of life
    165 U00d0		       00 80	   BIT_NEXTLEVEL =	128
    166 U00d0		       00 40	   BIT_NEXTLIFE =	64
    167 U00d1
    168 U00d1							;---------------------------------------------------------------------------
    169 U00d1
    170 U00d1		       00	   sortRequired ds	1
    171 U00d2		       00	   sortPtr    ds	1
    172 U00d3
    173 U00d3							;------------------------------------------------------------------------------
    174 U00d3
    175 U00d3		       00	   ObjIterator ds	1	; count UP iterator over objects
    176 U00d4		       00	   DSL	      ds	1	; stack line counter
    177 U00d5		       00	   TakebackInhibit ds	1
    178 U00d6
------- FILE sound/intro1_variables.asm LEVEL 3 PASS 4
      0 U00d6					      include	"sound/intro1_variables.asm"
      1 U00d6							; TIATracker music player
      2 U00d6							; Copyright 2016 Andre "Kylearan" Wichmann
      3 U00d6							; Website: https://bitbucket.org/kylearan/tiatracker
      4 U00d6							; Email: andre.wichmann@gmx.de
      5 U00d6							;
      6 U00d6							; Licensed under the Apache License, Version 2.0 (the "License");
      7 U00d6							; you may not use this file except in compliance with the License.
      8 U00d6							; You may obtain a copy of the License at
      9 U00d6							;
     10 U00d6							;   http://www.apache.org/licenses/LICENSE-2.0
     11 U00d6							;
     12 U00d6							; Unless required by applicable law or agreed to in writing, software
     13 U00d6							; distributed under the License is distributed on an "AS IS" BASIS,
     14 U00d6							; WITHOUT WARRANTIES OR CONDITIONS OF ANY KIND, either express or implied.
     15 U00d6							; See the License for the specific language governing permissions and
     16 U00d6							; limitations under the License.
     17 U00d6
     18 U00d6							; Song author: 
     19 U00d6							; Song name: 
     20 U00d6
     21 U00d6							; @com.wudsn.ide.asm.hardware=ATARI2600
     22 U00d6
     23 U00d6							; =====================================================================
     24 U00d6							; Flags
     25 U00d6							; =====================================================================
     26 U00d6
     27 U00d6							; 1: Global song speed, 0: Each pattern has individual speed
     28 U00d6		       00 01	   TT_GLOBAL_SPEED =	1
     29 U00d6							; duration (number of TV frames) of a note
     30 U00d6		       00 05	   TT_SPEED   =	5
     31 U00d6							; duration of odd frames (needs TT_USE_FUNKTEMPO)
     32 U00d6		       00 04	   TT_ODD_SPEED =	4
     33 U00d6
     34 U00d6							; 1: Overlay percussion, +40 bytes
     35 U00d6		       00 01	   TT_USE_OVERLAY =	1
     36 U00d6							; 1: Melodic instrument slide, +9 bytes
     37 U00d6		       00 00	   TT_USE_SLIDE =	0
     38 U00d6							; 1: Goto pattern, +8 bytes
     39 U00d6		       00 01	   TT_USE_GOTO =	1
     40 U00d6							; 1: Odd/even rows have different SPEED values, +7 bytes
     41 U00d6		       00 01	   TT_USE_FUNKTEMPO =	1
     42 U00d6							; If the very first notes played on each channel are not PAUSE, HOLD or
     43 U00d6							; SLIDE, i.e. if they start with an instrument or percussion, then set
     44 U00d6							; this flag to 0 to save 2 bytes.
     45 U00d6							; 0: +2 bytes
     46 U00d6		       00 01	   TT_STARTS_WITH_NOTES =	1
     47 U00d6
     48 U00d6
     49 U00d6							; =====================================================================
     50 U00d6							; Permanent variables. These are states needed by the player.
     51 U00d6							; =====================================================================
     52 U00d6		       00	   tt_timer   ds	1	; current music timer value
     53 U00d7		       00	   tt_cur_pat_index_c0 ds	1	; current pattern index into tt_SequenceTable
     54 U00d8		       00	   tt_cur_pat_index_c1 ds	1
     55 U00d9		       00	   tt_cur_note_index_c0 ds	1	; note index into current pattern
     56 U00da		       00	   tt_cur_note_index_c1 ds	1
     57 U00db		       00	   tt_envelope_index_c0 ds	1	; index into ADSR envelope
     58 U00dc		       00	   tt_envelope_index_c1 ds	1
     59 U00dd		       00	   tt_cur_ins_c0 ds	1	; current instrument
     60 U00de		       00	   tt_cur_ins_c1 ds	1
     61 U00df
     62 U00df
     63 U00df							; =====================================================================
     64 U00df							; Temporary variables. These will be overwritten during a call to the
     65 U00df							; player routine, but can be used between calls for other things.
     66 U00df							; =====================================================================
     67 U00df		       00 00	   tt_ptr     ds	2
------- FILE zeropage.asm
    180 U00e1
    181 U00e1
    182 U00e1
    183 U00e1				   OVERLAY_SIZE SET	16
    184 U00e1
    185 U00e1
    186 U00e1
    187 U00e1							; This overlay variable is used for the overlay variables.  That's OK.
    188 U00e1							; However, it is positioned at the END of the variables so, if on the off chance we're overlapping
    189 U00e1							; stack space and variable, it is LIKELY that that won't be a problem, as the temp variables
    190 U00e1							; (especially the latter ones) are only used in rare occasions.
    191 U00e1
    192 U00e1							; FOR SAFETY, DO NOT USE THIS AREA DIRECTLY (ie: NEVER reference 'Overlay' in the code)
    193 U00e1							; ADD AN OVERLAY FOR EACH ROUTINE'S USE, SO CLASHES CAN BE EASILY CHECKED
    194 U00e1
    195 U00e1		       00 00 00 00*Overlay    ds	OVERLAY_SIZE	;--> overlay (share) variables
      0 U00f1					      VALIDATE_OVERLAY
      5 U00f1					      LIST	ON
    197 U00f1
    198 U00f1
    199 U00f1		       00 00 00 00*	      ds	RESERVED_FOR_STACK
    200 U00fd
 FREE BYTES IN ZERO PAGE =  $2
    201 U00fd					      ECHO	"FREE BYTES IN ZERO PAGE = ", $FF - *
    202 U00fd				  -	      IF	* > $FF
    203 U00fd				  -	      ERR
    204 U00fd					      ENDIF
------- FILE ./sokoboo.asm
    473 U00fd
    474 U00fd
    475 U00fd							;------------------------------------------------------------------------------
    476 U00fd							; OVERLAYS!
    477 U00fd							; These variables are overlays, and should be managed with care
    478 U00fd							; That is, variables are ALREADY DEFINED, and we're reusing RAM for other purposes
    479 U00fd
    480 U00fd							; EACH OF THESE ARE VARIABLES (TEMPORARY) USED BY ONE ROUTINE (AND IT'S SUBROUTINES)
    481 U00fd							; THAT IS, LOCAL VARIABLES.  USE 'EM FREELY, THEY COST NOTHING
    482 U00fd
    483 U00fd							; TOTAL SPACE USED BY ANY OVERLAY GROUP SHOULD BE <= SIZE OF 'Overlay'
    484 U00fd
    485 U00fd
    486 U00fd
    487 U00fd							;------------------------------------------------------------------------------
      0 U00fd					      OVERLAY	BuildDrawFlags
      1 U00ec ????				      SEG.U	OVERLAY_BuildDrawFlags
      2 U00e1					      org	Overlay
    489 U00e1
    490 U00e1		       00 00	   BDF_DrawFlagAddress ds	2	; destination address of draw flag (mirrors ScreenBuffer)
    491 U00e3		       00 00	   BDF_DrawFlagAddress2 ds	2	; dito + SCREEN_WIDTH/2
    492 U00e5		       00 00	   BDF_BoardAddress ds	2	; source address from Board
    493 U00e7		       00 00	   BDF_BoardAddress2 ds	2	; dito + SCREEN_WIDTH/2
    494 U00e9							;  IF MULTI_BANK_BOARD = YES		      ; commented, else DASM freaks out because MULTI_BANK_BOARD is calculated below
    495 U00e9		       00	   BDF_BoardBank ds	1	; holds bank of current line
    496 U00ea							;  ENDIF
    497 U00ea		       00	   DHS_Line   ds	1
    498 U00eb		       00	   DHS_Stack  ds	1	; for restoring SP
    499 U00ec							;ECHO "FREE BYTES IN OVERLAY_BuildDrawFlags = ", OVERLAY_SIZE - ( * - Overlay )
      0 U00ec					      VALIDATE_OVERLAY
      5 U00ec					      LIST	ON
    501 U00ec
    502 U00ec							;------------------------------------------------------------------------------
    503 U00ec
      0 U00ec					      OVERLAY	Process
      1 U00e4 ????				      SEG.U	OVERLAY_Process
      2 U00e1					      org	Overlay
    505 U00e1
    506 U00e1		       00	   BOXLeft    ds	1
    507 U00e2		       00	   BOXRight   ds	1
    508 U00e3		       00	   restorationCharacter ds	1
    509 U00e4
      0 U00e4					      VALIDATE_OVERLAY
      5 U00e4					      LIST	ON
    511 U00e4
    512 U00e4							;------------------------------------------------------------------------------
    513 U00e4
    514 U00e4
      0 U00e4					      OVERLAY	Animate
      1 U00e2 ????				      SEG.U	OVERLAY_Animate
      2 U00e1					      org	Overlay
    516 U00e1		       00	   halftimer  ds	1
      0 U00e2					      VALIDATE_OVERLAY
      5 U00e2					      LIST	ON
    518 U00e2
    519 U00e2							;------------------------------------------------------------------------------
    520 U00e2
      0 U00e2					      OVERLAY	TitleScreen
      1 U00e3 ????				      SEG.U	OVERLAY_TitleScreen
      2 U00e1					      org	Overlay
    522 U00e1		       00 00	   colour_table ds	2
      0 U00e3					      VALIDATE_OVERLAY
      5 U00e3					      LIST	ON
    524 U00e3
    525 U00e3							;------------------------------------------------------------------------------
    526 U00e3
      0 U00e3					      OVERLAY	TimeSlice
      1 U00e3 ????				      SEG.U	OVERLAY_TimeSlice
      2 U00e1					      org	Overlay
    528 U00e1
    529 U00e1		       00 00	   TS_Vector  ds	2	; vector to correct processing code
    530 U00e3							;ECHO "FREE BYTES IN OVERLAY_TimeSlice = ", OVERLAY_SIZE - ( * - Overlay )
      0 U00e3					      VALIDATE_OVERLAY
      5 U00e3					      LIST	ON
    532 U00e3
    533 U00e3							;------------------------------------------------------------------------------
    534 U00e3
      0 U00e3					      OVERLAY	CopyROMShadowToRAM
      1 U00e4 ????				      SEG.U	OVERLAY_CopyROMShadowToRAM
      2 U00e1					      org	Overlay
    536 U00e1
    537 U00e1		       00	   O_CopyCount ds	1
    538 U00e2		       00	   O_ROM_Source_Bank ds	1
    539 U00e3		       00	   O_Index    ds	1
    540 U00e4							;ECHO "FREE BYTES IN OVERLAY_CopyROMShadowToRAM = ", OVERLAY_SIZE - ( * - Overlay )
      0 U00e4					      VALIDATE_OVERLAY
      5 U00e4					      LIST	ON
    542 U00e4
    543 U00e4							;------------------------------------------------------------------------------
    544 U00e4
      0 U00e4					      OVERLAY	Scoring
      1 U00e2 ????				      SEG.U	OVERLAY_Scoring
      2 U00e1					      org	Overlay
    546 U00e1		       00	   tmpStack   ds	1
    547 U00e1		       00 e1	   newDisplay =	tmpStack
    548 U00e2							; also for UpdateTimer
    549 U00e2		       00 e1	   tmpSound   =	tmpStack
      0 U00e2					      VALIDATE_OVERLAY
      5 U00e2					      LIST	ON
    551 U00e2
    552 U00e2
    553 U00e2							;------------------------------------------------------------------------------
    554 U00e2
      0 U00e2					      OVERLAY	SaveKey
      1 U00ea ????				      SEG.U	OVERLAY_SaveKey
      2 U00e1					      org	Overlay
    556 U00e1
    557 U00e1		       00 00 00    dummySK    ds	3	; avoid getting overwritten by CopyROMShadowToRAM
    558 U00e4		       00 00 00    highScoreSK ds	3
    559 U00e7		       00	   startingLevel ds	1	; levelx * 5
    560 U00e8		       00	   startLevel ds	1
    561 U00e9		       00	   offsetSK   ds	1	; for calculating the SK slot address
    562 U00ea
      0 U00ea					      VALIDATE_OVERLAY
      5 U00ea					      LIST	ON
    564 U00ea
    565 U00ea							;------------------------------------------------------------------------------
    566 U00ea
      0 U00ea					      OVERLAY	DrawMan
      1 U00e3 ????				      SEG.U	OVERLAY_DrawMan
      2 U00e1					      org	Overlay
    568 U00e1
    569 U00e1		       00 00	   MAN_Move   ds	2
    570 U00e3
    571 U00e3							;ECHO "FREE BYTES IN OVERLAY_DrawMan = ", OVERLAY_SIZE - ( * - Overlay )
      0 U00e3					      VALIDATE_OVERLAY
      5 U00e3					      LIST	ON
    573 U00e3
    574 U00e3							;------------------------------------------------------------------------------
    575 U00e3
      0 U00e3					      OVERLAY	ProcessObjStack
      1 U00e3 ????				      SEG.U	OVERLAY_ProcessObjStack
      2 U00e1					      org	Overlay
    577 U00e1
    578 U00e1		       00 00	   POS_Vector ds	2
    579 U00e3
    580 U00e3							;ECHO "FREE BYTES IN OVERLAY_ProcessObjStack = ", OVERLAY_SIZE - ( * - Overlay )
      0 U00e3					      VALIDATE_OVERLAY
      5 U00e3					      LIST	ON
    582 U00e3
    583 U00e3							;------------------------------------------------------------------------------
    584 U00e3
      0 U00e3					      OVERLAY	ScoreLineOverlay
      1 U00f0 ????				      SEG.U	OVERLAY_ScoreLineOverlay
      2 U00e1					      org	Overlay
    586 U00e1
    587 U00e1		       00 00	   S0	      ds	2	; used for addressing digits of score
    588 U00e3		       00 00	   S1	      ds	2
    589 U00e5		       00 00	   S2	      ds	2
    590 U00e7		       00 00	   S3	      ds	2
    591 U00e9		       00 00	   S4	      ds	2
    592 U00eb		       00 00	   S5	      ds	2
    593 U00ed
    594 U00ed		       00	   stkp       ds	1
    595 U00ee		       00	   sreg       ds	1
    596 U00ef		       00	   loop       ds	1
    597 U00f0
    598 U00f0							;ECHO "FREE BYTES IN ScoreLineOverlay = ", OVERLAY_SIZE - ( * - Overlay )
      0 U00f0					      VALIDATE_OVERLAY
      5 U00f0					      LIST	ON
    600 U00f0
    601 U00f0							;------------------------------------------------------------------------------
    602 U00f0
    603 U00f0
      0 U00f0					      OVERLAY	UnpackLevelOverlay
      1 U00e6 ????				      SEG.U	OVERLAY_UnpackLevelOverlay
      2 U00e1					      org	Overlay
    605 U00e1
    606 U00e1		       00	   base_x     ds	1
    607 U00e2		       00	   base_y     ds	1
    608 U00e3		       00	   upk_length ds	1
    609 U00e4		       00	   upk_column ds	1
    610 U00e5		       00	   upk_temp   ds	1
    611 U00e6
    612 U00e6							;ECHO "FREE BYTES IN UnpackLevelOverlay = ", OVERLAY_SIZE - ( * - Overlay )
      0 U00e6					      VALIDATE_OVERLAY
      5 U00e6					      LIST	ON
    614 U00e6
    615 U00e6							;------------------------------------------------------------------------------
    616 U00e6
      0 U00e6					      OVERLAY	ManProcessing
      1 U00e3 ????				      SEG.U	OVERLAY_ManProcessing
      2 U00e1					      org	Overlay
    618 U00e1		       00 00	   actionVector ds	2
      0 U00e3					      VALIDATE_OVERLAY
      5 U00e3					      LIST	ON
    620 U00e3
      0 U00e3					      OVERLAY	SetPlatformColours
      1 U00e2 ????				      SEG.U	OVERLAY_SetPlatformColours
      2 U00e1					      org	Overlay
    622 U00e1		       00	   colorIdx   ds	1
      0 U00e2					      VALIDATE_OVERLAY
      5 U00e2					      LIST	ON
    624 U00e2
      0 U00e2					      OVERLAY	SwapPlayers
      1 U00e2 ????				      SEG.U	OVERLAY_SwapPlayers
      2 U00e1					      org	Overlay
    626 U00e1		       00	   tmpX       ds	1
      0 U00e2					      VALIDATE_OVERLAY
      5 U00e2					      LIST	ON
    628 U00e2
      0 U00e2					      OVERLAY	DrawIntoStack
      1 U00e2 ????				      SEG.U	OVERLAY_DrawIntoStack
      2 U00e1					      org	Overlay
    630 U00e1		       00	   save_SP    ds	1
      0 U00e2					      VALIDATE_OVERLAY
      5 U00e2					      LIST	ON
    632 U00e2
    633 U00e2							;------------------------------------------------------------------------------
    634 U00e2							;##############################################################################
    635 U00e2							;------------------------------------------------------------------------------
    636 U00e2
    637 U00e2							; NOW THE VERY INTERESTING '3E' RAM BANKS
    638 U00e2							; EACH BANK HAS A READ-ADDRESS AND A WRITE-ADDRESS, WITH 2k TOTAL
    639 U00e2
    640 U00e2				   ORIGIN     SET	0
      0 U00e2					      NEWRAMBANK	BANK_SCREENMARKII1
      1 U0000 ????				      SEG.U	BANK_SCREENMARKII1
      2 U0000					      ORG	ORIGIN
      3 U0000					      RORG	RAM_3E
      4 U0000				   BANK_START SET	*
      5 U0000				   BANK_SCREENMARKII1 SET	ORIGIN / RAM_SIZE
      6 U0000				   ORIGIN     SET	ORIGIN + RAM_SIZE
    642 U0000
    643 U0000							; NOTE: THIS BANK JUST *LOOKS* EMPTY.
    644 U0000							; It actually contains everything copied from the ROM copy of the ROW RAM banks.
    645 U0000							; The variable definitions are also in that ROM bank (even though they're RAM :)
    646 U0000
    647 U0000		       00 60	   SCREEN_BITMAP_SIZE =	4 * LINES_PER_CHAR
    648 U0000
    649 U0000							; These banks (there are #SCREEN_LINES of them) hold a RAM copy of the screen draw
    650 U0000							; code.  This code is self-modifying, in that the colour values for each scanline
    651 U0000							; are set to NTSC or PAL values on startup -- thus, the single binary can run
    652 U0000							; on either format system.  The main purpose for copying the draw code to RAM,
    653 U0000							; though, is to free up space in the fixed bank (which is incredibly valuable).
    654 U0000
    655 U0000							; A neat feature of having multiple copies of the same code in different RAM banks
    656 U0000							; is that we can use that code to switch between banks, and the system will happily
    657 U0000							; execute the next instruction from the newly switched-in bank without a problem.
    658 U0000
    659 U0000							; Now we have the actual graphics data for each of the rows.  This consists of an
    660 U0000							; actual bitmap (in exact PF-style format, 6 bytes per line) into which the
    661 U0000							; character shapes are masked/copied. The depth of the character shapes may be
    662 U0000							; changed by changing the #LINES_PER_CHAR value.  Note that this depth should be
    663 U0000							; a multiple of 3, so that the RGB scanlines match at character joins.
    664 U0000
    665 U0000							; The next part of the graphics data is a bitmap sprite buffer -- space for two
    666 U0000							; sprites' graphics shape and colour data.  The shape and colour may be set as
    667 U0000							; part of the draw routine *every* scanline (though the system currently uses
    668 U0000							; one colour shared between both players).
    669 U0000
      0 U0000					      VALIDATE_RAM_SIZE
      1 U0000				  -	      if	* - RAM_3E > RAM_SIZE
      2 U0000				  -	      ERR
      3 U0000					      endif
    671 U0000
    672 U0000							; We have one bank for each screen row.  These banks are duplicates of the above,
    673 U0000							; accessed via the above labels but with the appropriate bank switched in.
    674 U0000
    675 U0000							;------------------------------------------------------------------------------
    676 U0000
    677 U0000					      REPEAT	SCREEN_LINES - 1
      0 U0000					      NEWRAMBANK	.DUMMY
      1 U1c00 ????				      SEG.U	.DUMMY
      2 U0400					      ORG	ORIGIN
      3 U0400					      RORG	RAM_3E
      4 U0400				   BANK_START SET	*
      5 U0400				   .DUMMY     SET	ORIGIN / RAM_SIZE
      6 U0400				   ORIGIN     SET	ORIGIN + RAM_SIZE
      0 U0400					      VALIDATE_RAM_SIZE
      1 U0400				  -	      if	* - RAM_3E > RAM_SIZE
      2 U0400				  -	      ERR
      3 U0400					      endif
    677 U0400					      REPEND
      0 U0400					      NEWRAMBANK	.DUMMY
      1 U0400					      SEG.U	.DUMMY
      2 U0800					      ORG	ORIGIN
      3 U0800					      RORG	RAM_3E
      4 U0800				   BANK_START SET	*
      5 U0800				   .DUMMY     SET	ORIGIN / RAM_SIZE
      6 U0800				   ORIGIN     SET	ORIGIN + RAM_SIZE
      0 U0800					      VALIDATE_RAM_SIZE
      1 U0800				  -	      if	* - RAM_3E > RAM_SIZE
      2 U0800				  -	      ERR
      3 U0800					      endif
    677 U0800					      REPEND
      0 U0800					      NEWRAMBANK	.DUMMY
      1 U0800					      SEG.U	.DUMMY
      2 U0c00					      ORG	ORIGIN
      3 U0c00					      RORG	RAM_3E
      4 U0c00				   BANK_START SET	*
      5 U0c00				   .DUMMY     SET	ORIGIN / RAM_SIZE
      6 U0c00				   ORIGIN     SET	ORIGIN + RAM_SIZE
      0 U0c00					      VALIDATE_RAM_SIZE
      1 U0c00				  -	      if	* - RAM_3E > RAM_SIZE
      2 U0c00				  -	      ERR
      3 U0c00					      endif
    677 U0c00					      REPEND
      0 U0c00					      NEWRAMBANK	.DUMMY
      1 U0c00					      SEG.U	.DUMMY
      2 U1000					      ORG	ORIGIN
      3 U1000					      RORG	RAM_3E
      4 U1000				   BANK_START SET	*
      5 U1000				   .DUMMY     SET	ORIGIN / RAM_SIZE
      6 U1000				   ORIGIN     SET	ORIGIN + RAM_SIZE
      0 U1000					      VALIDATE_RAM_SIZE
      1 U1000				  -	      if	* - RAM_3E > RAM_SIZE
      2 U1000				  -	      ERR
      3 U1000					      endif
    677 U1000					      REPEND
      0 U1000					      NEWRAMBANK	.DUMMY
      1 U1000					      SEG.U	.DUMMY
      2 U1400					      ORG	ORIGIN
      3 U1400					      RORG	RAM_3E
      4 U1400				   BANK_START SET	*
      5 U1400				   .DUMMY     SET	ORIGIN / RAM_SIZE
      6 U1400				   ORIGIN     SET	ORIGIN + RAM_SIZE
      0 U1400					      VALIDATE_RAM_SIZE
      1 U1400				  -	      if	* - RAM_3E > RAM_SIZE
      2 U1400				  -	      ERR
      3 U1400					      endif
    677 U1400					      REPEND
      0 U1400					      NEWRAMBANK	.DUMMY
      1 U1400					      SEG.U	.DUMMY
      2 U1800					      ORG	ORIGIN
      3 U1800					      RORG	RAM_3E
      4 U1800				   BANK_START SET	*
      5 U1800				   .DUMMY     SET	ORIGIN / RAM_SIZE
      6 U1800				   ORIGIN     SET	ORIGIN + RAM_SIZE
      0 U1800					      VALIDATE_RAM_SIZE
      1 U1800				  -	      if	* - RAM_3E > RAM_SIZE
      2 U1800				  -	      ERR
      3 U1800					      endif
    677 U1800					      REPEND
      0 U1800					      NEWRAMBANK	.DUMMY
      1 U1800					      SEG.U	.DUMMY
      2 U1c00					      ORG	ORIGIN
      3 U1c00					      RORG	RAM_3E
      4 U1c00				   BANK_START SET	*
      5 U1c00				   .DUMMY     SET	ORIGIN / RAM_SIZE
      6 U1c00				   ORIGIN     SET	ORIGIN + RAM_SIZE
      0 U1c00					      VALIDATE_RAM_SIZE
      1 U1c00				  -	      if	* - RAM_3E > RAM_SIZE
      2 U1c00				  -	      ERR
      3 U1c00					      endif
    680 U1c00					      REPEND
    681 U1c00
    682 U1c00							;------------------------------------------------------------------------------
    683 U1c00							;##############################################################################
    684 U1c00							;------------------------------------------------------------------------------
    685 U1c00
      0 U1c00					      NEWRAMBANK	BANK_DRAW_BUFFERS
      1 U2000 ????				      SEG.U	BANK_DRAW_BUFFERS
      2 U2000					      ORG	ORIGIN
      3 U2000					      RORG	RAM_3E
      4 U2000				   BANK_START SET	*
      5 U2000				   BANK_DRAW_BUFFERS SET	ORIGIN / RAM_SIZE
      6 U2000				   ORIGIN     SET	ORIGIN + RAM_SIZE
    687 U2000							; VARS DEFINED IN ROM_SHADOW_OF_BANK_DRAW_BUFFERS
    688 U2000							; SELF-MODIFYING SUBROUTINES MAY BE PRESENT IN THIS BANK TOO!
      0 U2000					      VALIDATE_RAM_SIZE
      1 U2000				  -	      if	* - RAM_3E > RAM_SIZE
      2 U2000				  -	      ERR
      3 U2000					      endif
    690 U2000
    691 U2000							;------------------------------------------------------------------------------
    692 U2000							;##############################################################################
    693 U2000							;------------------------------------------------------------------------------
    694 U2000
      0 U2000					      NEWRAMBANK	BANK_SCORING
      1 U2400 ????				      SEG.U	BANK_SCORING
      2 U2400					      ORG	ORIGIN
      3 U2400					      RORG	RAM_3E
      4 U2400				   BANK_START SET	*
      5 U2400				   BANK_SCORING SET	ORIGIN / RAM_SIZE
      6 U2400				   ORIGIN     SET	ORIGIN + RAM_SIZE
    696 U2400							; VARS DEFINED IN ROM_SHADOW_OF_BANK_SCORING
    697 U2400							; SELF-MODIFYING SUBROUTINES MAY BE PRESENT IN THIS BANK TOO!
      0 U2400					      VALIDATE_RAM_SIZE
      1 U2400				  -	      if	* - RAM_3E > RAM_SIZE
      2 U2400				  -	      ERR
      3 U2400					      endif
    699 U2400
    700 U2400							;------------------------------------------------------------------------------
    701 U2400							;##############################################################################
    702 U2400							;------------------------------------------------------------------------------
    703 U2400
      0 U2400					      NEWRAMBANK	BANK_DECODE_LEVEL
      1 U2800 ????				      SEG.U	BANK_DECODE_LEVEL
      2 U2800					      ORG	ORIGIN
      3 U2800					      RORG	RAM_3E
      4 U2800				   BANK_START SET	*
      5 U2800				   BANK_DECODE_LEVEL SET	ORIGIN / RAM_SIZE
      6 U2800				   ORIGIN     SET	ORIGIN + RAM_SIZE
    705 U2800							; VARS DEFINED IN BANK_DECODE_LEVEL_SHADOW
    706 U2800							; SELF-MODIFYING SUBROUTINES MAY BE PRESENT IN THIS BANK TOO!
      0 U2800					      VALIDATE_RAM_SIZE
      1 U2800				  -	      if	* - RAM_3E > RAM_SIZE
      2 U2800				  -	      ERR
      3 U2800					      endif
    708 U2800
    709 U2800							;------------------------------------------------------------------------------
    710 U2800							;##############################################################################
    711 U2800							;------------------------------------------------------------------------------
    712 U2800
      0 U2800					      NEWRAMBANK	BANK_OBJSTACK
      1 U2e80 ????				      SEG.U	BANK_OBJSTACK
      2 U2c00					      ORG	ORIGIN
      3 U2c00					      RORG	RAM_3E
      4 U2c00				   BANK_START SET	*
      5 U2c00				   BANK_OBJSTACK SET	ORIGIN / RAM_SIZE
      6 U2c00				   ORIGIN     SET	ORIGIN + RAM_SIZE
    714 U2c00
    715 U2c00							; The objects are a list of X,Y positions into the BOARD.  Each of these is a board
    716 U2c00							; position of something that needs to be processed.  These things include anything
    717 U2c00							; that animates.  Objects which no longer need processing do not re-add themselves
    718 U2c00							; to the object stack.  There are two stacks -- the one being processed, and the
    719 U2c00							; one for the next processing iteration.
    720 U2c00
    721 U2c00							; Note: These are referenced by ObjStackNum, as is the BLANK_STACK paired bank set.
    722 U2c00
    723 U2c00		       00 80	   OBJ_STACK_SIZE =	128
    724 U2c00
    725 U2c00							; WARNING: THESE MUST NOT CROSS PAGE BOUNDARIES!!!
    726 U2c00
    727 U2c00		       00 00 00 00*ObjStackX  ds	OBJ_STACK_SIZE
    728 U2c80		       00 00 00 00*ObjStackY  ds	OBJ_STACK_SIZE
    729 U2d00		       00 00 00 00*ObjStackVar ds	OBJ_STACK_SIZE	; for general use
    730 U2d80
    731 U2d80							; SortedObjPtr is now in the middle of a page, thus allowing to address with -1
    732 U2d80		       00 00 00 00*SortedObjPtr ds	OBJ_STACK_SIZE	; list of indexes of objects (sorted)
    733 U2e00
    734 U2e00		       00 00 00 00*ObjStackType ds	OBJ_STACK_SIZE	; type of object
    735 U2e80
 FREE RAM IN BANK_OBJSTACK =  $180
    736 U2e80					      ECHO	"FREE RAM IN BANK_OBJSTACK = ", RAM_SIZE - ( * - BANK_START )
    737 U2e80
      0 U2e80					      VALIDATE_RAM_SIZE
      1 U2e80				  -	      if	* - RAM_3E > RAM_SIZE
      2 U2e80				  -	      ERR
      3 U2e80					      endif
    739 U2e80
    740 U2e80							;------------------------------------------------------------------------------
    741 U2e80
      0 U2e80					      NEWRAMBANK	BANK_OBJSTACK2
      1 U3000 ????				      SEG.U	BANK_OBJSTACK2
      2 U3000					      ORG	ORIGIN
      3 U3000					      RORG	RAM_3E
      4 U3000				   BANK_START SET	*
      5 U3000				   BANK_OBJSTACK2 SET	ORIGIN / RAM_SIZE
      6 U3000				   ORIGIN     SET	ORIGIN + RAM_SIZE
    743 U3000							; THIS IS A MIRROR OF BANK_OBJSTACK -- DO NOT MODIFY OR USE!!
      0 U3000					      VALIDATE_RAM_SIZE
      1 U3000				  -	      if	* - RAM_3E > RAM_SIZE
      2 U3000				  -	      ERR
      3 U3000					      endif
    745 U3000
    746 U3000							;------------------------------------------------------------------------------
    747 U3000							;##############################################################################
    748 U3000							;------------------------------------------------------------------------------
    749 U3000
      0 U3000					      NEWRAMBANK	BANK_BOARD
      1 U35f0 ????				      SEG.U	BANK_BOARD
      2 U3400					      ORG	ORIGIN
      3 U3400					      RORG	RAM_3E
      4 U3400				   BANK_START SET	*
      5 U3400				   BANK_BOARD SET	ORIGIN / RAM_SIZE
      6 U3400				   ORIGIN     SET	ORIGIN + RAM_SIZE
    751 U3400
    752 U3400							; Now the interesting 'BOARD' -- which in reality is a free-form system of M*N
    753 U3400							; rows and columns.  We need to reserve enough RAM for the board's entirety, but
    754 U3400							; don't really care much how it overlaps the 1K bank limit.  The code accessing
    755 U3400							; the board *MUST* calculate and take account of the correct RAM bank to switch
    756 U3400							; when accessing.
    757 U3400
    758 U3400							; The system is fairly free-form, in that it rearranges the memory and tables
    759 U3400							; automatically based on the sizes set in these constants. The board may overlay
    760 U3400							; MULTIPLE banks -- just as long as any particular LINE does not cross a bank
    761 U3400							; we're doing OK.
    762 U3400
    763 U3400							; NOTE: Assumption is that board lines CANNOT CROSS page boundaries.
    764 U3400
    765 U3400							; now fits into one single bank (if we don't reserve too much space for code)
    766 U3400
    767 U3400		       00 18	   SIZE_BOARD_X =	24	;
    768 U3400		       00 14	   SIZE_BOARD_Y =	20	;22
    769 U3400				  -	      if	0
    770 U3400				  -			; have to precalculate it here, else DASM freaks out:
    771 U3400				  -.BOARD_SIZE SET	0
    772 U3400				  -.BOARD_LOCATION SET	0
    773 U3400				  -	      REPEAT	SIZE_BOARD_Y
    774 U3400				  -	      IF	>.BOARD_LOCATION != >(.BOARD_LOCATION + SIZE_BOARD_X-1)
    775 U3400				  -.BOARD_SIZE SET	.BOARD_SIZE - .BOARD_LOCATION
    776 U3400				  -.BOARD_LOCATION SET	.BOARD_LOCATION - <.BOARD_LOCATION + 256
    777 U3400				  -.BOARD_SIZE SET	.BOARD_SIZE + .BOARD_LOCATION
    778 U3400				  -	      ENDIF
    779 U3400				  -.BOARD_SIZE SET	.BOARD_SIZE + SIZE_BOARD_X
    780 U3400				  -.BOARD_LOCATION SET	.BOARD_LOCATION + SIZE_BOARD_X
    781 U3400				  -	      REPEND
    782 U3400				  -
    783 U3400				  -SIZE_BOARD =	.BOARD_SIZE
    784 U3400					      endif
    785 U3400				  -	      IF	SIZE_BOARD > RAM_SIZE
    786 U3400				  -MULTI_BANK_BOARD =	YES
    787 U3400					      ELSE
    788 U3400		       00 00	   MULTI_BANK_BOARD =	NO	; timings: [-..]
    789 U3400					      ENDIF
    790 U3400
    791 U3400		       00 00 00 00*Board      ds	SIZE_BOARD	; Note, we can only access this in
    792 U35f0							; 1024 byte chunks, switching RAM
    793 U35f0							; banks as we go.  In other words,
    794 U35f0							; this overlaps multiple banks!
    795 U35f0
      0 U35f0					      NEWRAMBANK	BANK_TAKEBACK
      1 U3940 ????				      SEG.U	BANK_TAKEBACK
      2 U3800					      ORG	ORIGIN
      3 U3800					      RORG	RAM_3E
      4 U3800				   BANK_START SET	*
      5 U3800				   BANK_TAKEBACK SET	ORIGIN / RAM_SIZE
      6 U3800				   ORIGIN     SET	ORIGIN + RAM_SIZE
    797 U3800
    798 U3800		       00 3f	   TAKEBACK_MASK =	$3F
    799 U3800
    800 U3800		       00 00 00 00*TakeBackPreviousX ds	$40
    801 U3840		       00 00 00 00*TakeBackPreviousY ds	$40
    802 U3880		       00 00 00 00*TakeBackPushX ds	$40
    803 U38c0		       00 00 00 00*TakeBackPushY ds	$40
    804 U3900		       00 00 00 00*TakeBackPushChar ds	$40
    805 U3940
    806 U3940							; reverting...
    807 U3940							; A prevoius position
    808 U3940							;	     POS_VAR = board
    809 U3940							;	     board = MANOCCUPIED
    810 U3940							;	     manx,y = x,y
    811 U3940							; B current position (MANX,Y)
    812 U3940							;	     board = POS_VAR
    813 U3940							; C push position
    814 U3940							;	     BOARD = PREV_BOARD
    815 U3940							; TAKEBACK_PREV_X, TAKEBACK_PREV_Y, TAKEBACK_PUSH_X,PUSH_Y,TAKEBACK_PUSH_PREV
    816 U3940							;
    817 U3940
    818 U3940
    819 U3940							; free space here (but hard to use)
    820 U3940							; So we need to calculate where the next free bank is!
    821 U3940							; TODO: This looks dodgy.  Check..
    822 U3940
    823 U3940				   ORIGIN     SET	( * + RAM_SIZE - 1 ) / RAM_SIZE
    824 U3940				   ORIGIN     SET	ORIGIN * RAM_SIZE
    825 U3940
    826 U3940
    827 U3940
    828 U3940							;------------------------------------------------------------------------------
    829 U3940							;##############################################################################
    830 U3940							;------------------------------------------------------------------------------
    831 U3940
    832 U3940							;------------------------------------------------------------------------------
    833 U3940
    834 U3940							;    IFNCONST MAX_LEVEL_SIZE
    835 U3940				   MAX_LEVEL_SIZE SET	0
    836 U3940							;    ENDIF
    837 U3940
    838 U3940
    839 U3940				   MAX_LEVEL_NUMBER SET	0
    840 U3940					      MAC	start_level
    841 U3940				   LEVEL_START SET	*
    842 U3940				   BANK_LEVEL_{1} =	_CURRENT_BANK
    843 U3940				   LEVEL_{1}  SUBROUTINE
    844 U3940				   MAX_LEVEL_NUMBER SET	MAX_LEVEL_NUMBER + 1
    845 U3940							; ECHO "current MAX_LEVEL_NUMBER = ", MAX_LEVEL_NUMBER
    846 U3940					      ENDM		; {name}
    847 U3940
    848 U3940
    849 U3940					      MAC	end_level
    850 U3940				   LEVEL_SIZE_{1} =	* - LEVEL_START
    851 U3940					      IF	LEVEL_SIZE_{1} > MAX_LEVEL_SIZE
    852 U3940				   MAX_LEVEL_SIZE SET	LEVEL_SIZE_{1}
    853 U3940					      ENDIF
    854 U3940					      ENDM		; {name}
    855 U3940
    856 U3940
    857 U3940					      MAC	defl
    858 U3940					      START_LEVEL	{1}
    859 U3940					      .byte	{2},0
    860 U3940					      END_LEVEL	{1}
    861 U3940					      ENDM
    862 U3940
    863 U3940							;--------------------------------------------------------------------------------
    864 U3940
    865 U3940				   ORIGIN     SET	$00000
    866 U3940
------- FILE BANK_ROM_SHADOW_RAMBANK.asm LEVEL 2 PASS 4
      0 U3940					      include	"BANK_ROM_SHADOW_RAMBANK.asm"
      1 U3940							;    Sokoboo - a Sokoban implementation
      2 U3940							;    using a generic tile-based display engine for the Atari 2600
      3 U3940							;    Sokoban (倉庫番)™ is © Falcon Co., Ltd.
      4 U3940							;
      5 U3940							;    Code related to this Sokoban™ implementation was developed by Andrew Davie.
      6 U3940							;
      7 U3940							;    Code related to the generic tile-based display engine was developed by
      8 U3940							;    Andrew Davie and Thomas Jentzsch during 2003-2011 and is
      9 U3940							;    Copyright(C)2003-2019 Thomas Jentzsch and Andrew Davie - contacts details:
     10 U3940							;    Andrew Davie (andrew@taswegian.com), Thomas Jentzsch (tjentzsch@yahoo.de).
     11 U3940							;
     12 U3940							;    Code related to music and sound effects uses the TIATracker music player
     13 U3940							;    Copyright 2016 Andre "Kylearan" Wichmann - see source code in the "sound"
     14 U3940							;    directory for Apache licensing details.
     15 U3940							;
     16 U3940							;    Some level data incorporated in this program were created by Lee J Haywood.
     17 U3940							;    See the copyright notices in the License directory for a list of level
     18 U3940							;    contributors.
     19 U3940							;
     20 U3940							;    Except where otherwise indicated, this software is released under the
     21 U3940							;    following licensing arrangement...
     22 U3940							;
     23 U3940							;    This program is free software: you can redistribute it and/or modify
     24 U3940							;    it under the terms of the GNU General Public License as published by
     25 U3940							;    the Free Software Foundation, either version 3 of the License, or
     26 U3940							;    (at your option) any later version.
     27 U3940							;    see https://www.gnu.org/licenses/gpl-3.0.en.html
     28 U3940
     29 U3940							;    This program is distributed in the hope that it will be useful,
     30 U3940							;    but WITHOUT ANY WARRANTY; without even the implied warranty of
     31 U3940							;    MERCHANTABILITY or FITNESS FOR A PARTICULAR PURPOSE.  See the
     32 U3940							;    GNU General Public License for more details.
     33 U3940
     34 U3940							;------------------------------------------------------------------------------
     35 U3940							;##############################################################################
     36 U3940							;------------------------------------------------------------------------------
      0 U3940					      NEWBANK	ROM_SHADOW_OF_RAMBANK_CODE
      1  03e2 ????				      SEG	ROM_SHADOW_OF_RAMBANK_CODE
      2  0000					      ORG	ORIGIN
      3  0000					      RORG	$F000
      4  0000				   BANK_START SET	*
      5  0000				   ROM_SHADOW_OF_RAMBANK_CODE SET	ORIGIN / 2048
      6  0000				   ORIGIN     SET	ORIGIN + 2048
      7  0000				   _CURRENT_BANK SET	ROM_SHADOW_OF_RAMBANK_CODE
     38  0000
     39  0000							; This is essentially a ROM mirror of a RAM bank.
     40  0000							; The contents of this bank are copied to each of the ROW banks on startup, and
     41  0000							; this gives a 1:1 correspondence between the data/addresses defined here, and
     42  0000							; the addresses in the switched-in RAM bank.
     43  0000
     44  0000							; Note: Bankswitching code between any of these banks guarantees the code can
     45  0000							; continue to run -- because, of course, the same code is still at the same
     46  0000							; memory address.
     47  0000
     48  0000		       00 01	   _PROFILE_DRAW =	YES
     49  0000
     50  0000					      MAC	profile_draw
     51  0000					      IF	_PROFILE_DRAW
     52  0000					      inc	Profile{1}
     53  0000					      bne	$skip
     54  0000					      inc	Profile{1}+1
     55  0000				   $skip
     56  0000					      ENDIF
     57  0000					      ENDM		; {label}
     58  0000
     59  0000
      0  0000					      DEFINE_SUBROUTINE	DrawTheScreen
      1  0000		       00 00	   BANK_DrawTheScreen =	_CURRENT_BANK
      2  0000					      SUBROUTINE
      3  0000				   DrawTheScreen
     61  0000
     62  0000							; Thomas Jentzsch strikes again.  And Andrew Davie too ;)
     63  0000							; A refactor of the kernel to improve the timing.
     64  0000							; Experimental refactor to remove the blank line...
     65  0000
     66  0000							; adjust here so that the first line of the kernel starts exactly at cycle 67
     67  0000							; (since TJ said it could start up to 5 cycles earlier than #67).
     68  0000
     69  0000							; TODO: remove GRP1 and COLUP1 access (or use higher resolution player)
     70  0000							;	     @57
      0  0000					      SLEEP	3	; 3
      1  0000				   .CYCLES    SET	3
      2  0000
      3  0000				  -	      IF	.CYCLES < 2
      4  0000				  -	      ECHO	"MACRO ERROR: 'SLEEP': Duration must be > 1"
      5  0000				  -	      ERR
      6  0000					      ENDIF
      7  0000
      8  0000					      IF	.CYCLES & 1
      9  0000					      IFNCONST	NO_ILLEGAL_OPCODES
     10  0000		       04 00		      nop	0
     11  0002				  -	      ELSE
     12  0002				  -	      bit	VSYNC
     13  0002					      ENDIF
     14  0002				   .CYCLES    SET	.CYCLES - 3
     15  0002					      ENDIF
     16  0002
     17  0002				  -	      REPEAT	.CYCLES / 2
     18  0002				  -	      nop
     19  0002					      REPEND
     72  0002
     73  0002		       a2 00		      ldx	#<(BANK_SCREENMARKII1)	; 2		     == 0!!!
     74  0004		       10 3e		      bpl	NextALineStart	; 3 =	8    @65     unconditional
     75  0006
     76  0006				   Proc2		; 5
      0  0006					      SLEEP	3	; 3	     @64
      1  0006				   .CYCLES    SET	3
      2  0006
      3  0006				  -	      IF	.CYCLES < 2
      4  0006				  -	      ECHO	"MACRO ERROR: 'SLEEP': Duration must be > 1"
      5  0006				  -	      ERR
      6  0006					      ENDIF
      7  0006
      8  0006					      IF	.CYCLES & 1
      9  0006					      IFNCONST	NO_ILLEGAL_OPCODES
     10  0006		       04 00		      nop	0
     11  0008				  -	      ELSE
     12  0008				  -	      bit	VSYNC
     13  0008					      ENDIF
     14  0008				   .CYCLES    SET	.CYCLES - 3
     15  0008					      ENDIF
     16  0008
     17  0008				  -	      REPEAT	.CYCLES / 2
     18  0008				  -	      nop
     19  0008					      REPEND
     78  0008		       10 3c		      bpl	ScanBLUEBD	; 3 = 11    @67     unconditional
     79  000a
     80  000a				   ScanRED		;	     @60
     81  000a		       b9 8a f3    SM_PF0_REDl lda	CHARACTERSHAPE_BLANK,y	; 4
     82  000d		       85 4d		      sta	PF0	; 3	     @67
     83  000f		       b9 00 f3 	      lda	ScreenBitmapRED+0*LINES_PER_CHAR,y	; 4
     84  0012		       85 4e		      sta	PF1	; 3 = 14    @74
     85  0014				   SELFMOD_PLAYERCOL_RED
     86  0014		       b9 af f0 	      lda	SpriteColourRED,y	; 4
     87  0017		       85 46		      sta	COLUP0	; 3	     @05
     88  0019		       85 47		      sta	COLUP1	; 3 = 10    @08
     89  001b
     90  001b							; TIMING COUNTS ARE WRONG FROM HERE, DUE TO ABOVE CYCLE LOSS
     91  001b
     92  001b				   SELFMOD_RED
     93  001b		       a9 00		      lda	#0	; 2
     94  001d		       85 48		      sta	COLUPF	; 3 =	5    @13
     95  001f
     96  001f				   SELFMOD_PLAYER0_RED
     97  001f		       b9 8a f3 	      lda	ShapePlayerRED,y	; 4
     98  0022		       85 5b		      sta	GRP0	; 3 =	7    @20
     99  0024
    100  0024		       b9 18 f3 	      lda	ScreenBitmapRED+1*LINES_PER_CHAR,y	; 4
    101  0027		       85 4f		      sta	PF2	; 3 =	7    @27
    102  0029
    103  0029		       b9 8a f3    SM_PF0_REDr lda	CHARACTERSHAPE_BLANK,y	; 4
    104  002c		       85 4d		      sta	PF0	; 3	     @34
    105  002e		       b9 30 f3 	      lda	ScreenBitmapRED+2*LINES_PER_CHAR,y	; 4
    106  0031		       85 4e		      sta	PF1	; 3	     @41
    107  0033		       b9 48 f3 	      lda	ScreenBitmapRED+3*LINES_PER_CHAR,y	; 4
    108  0036		       85 4f		      sta	PF2	; 3 = 21    @48     must be >=48! :-)
    109  0038
    110  0038				   SELFMOD_PLAYER1_RED
    111  0038		       b9 8a f3 	      lda	ShapePlayerRED,y	; 4
    112  003b		       8d 5c 00 	      sta.w	GRP1	; 4 =	8    @56   VDELed!
    113  003e
    114  003e		       88		      dey		; 2
    115  003f		       10 c5		      bpl	Proc2	; 2(3)      --> 61 if taken
    116  0041
    117  0041		       e8	   SELFMOD_X  inx		; 2
    118  0042		       86 3e		      stx	SET_BANK_RAM	; 3	     SWITCH TO CORRECT ROW BANK (OR EXIT BANK)
    119  0044							;EXIT_RETURN_HERE
    120  0044				   NextALineStart
    121  0044		       a0 07		      ldy	#LINES_PER_CHAR/3-1	; 2 = 11    @67
    122  0046				   ScanBLUEBD		;	     @67     let's start as late as possible
    123  0046
    124  0046							;------------------------------------------------------------------------------
    125  0046
    126  0046		       b9 8a f3    SM_PF0_BLUEl lda	CHARACTERSHAPE_BLANK,y	; 4
    127  0049		       85 4d		      sta	PF0	; 3 =	7    @74
    128  004b				   SELFMOD_PLAYERCOL_BLUE
    129  004b		       b9 0f f1 	      lda	SpriteColourBLUE,y	; 4
    130  004e		       85 47		      sta	COLUP1	; 3	     @05
    131  0050		       85 46		      sta	COLUP0	; 3 = 10    @08
    132  0052
    133  0052				   SELFMOD_BLUE
    134  0052		       a9 00		      lda	#0	; 2
    135  0054		       85 48		      sta	COLUPF	; 3 =	5    @13
    136  0056
    137  0056				   SELFMOD_PLAYER0_BLUE
    138  0056		       b9 8a f3 	      lda	ShapePlayerBLUE,y	; 4
    139  0059		       85 5b		      sta	GRP0	; 3 =	7    @20
    140  005b
    141  005b		       b9 10 f3 	      lda	ScreenBitmapBLUE+0*LINES_PER_CHAR,y	; 4
    142  005e		       85 4e		      sta	PF1	; 3	     @27     <=27! :-)
    143  0060		       b9 28 f3 	      lda	ScreenBitmapBLUE+1*LINES_PER_CHAR,y	; 4
    144  0063		       85 4f		      sta	PF2	; 3 = 14    @34
    145  0065
    146  0065		       b9 8a f3    SM_PF0_BLUEr lda	CHARACTERSHAPE_BLANK,y	; 4
    147  0068		       85 4d		      sta	PF0	; 3	     @41
    148  006a		       b9 40 f3 	      lda	ScreenBitmapBLUE+2*LINES_PER_CHAR,y	; 4
    149  006d		       85 4e		      sta	PF1	; 3	     @48
    150  006f		       b9 58 f3 	      lda	ScreenBitmapBLUE+3*LINES_PER_CHAR,y	; 4
    151  0072		       85 4f		      sta	PF2	; 3 = 21    @55
    152  0074
    153  0074				   SELFMOD_PLAYER1_BLUE
    154  0074		       b9 8a f3 	      lda	ShapePlayerBLUE,y	; 4
    155  0077		       85 5c		      sta	GRP1	; 3 =	7    VDELed! @62
    156  0079
    157  0079							;------------------------------------------------------------------------------
    158  0079
    159  0079				   ScanGREEN		;	     @62
    160  0079		       b9 8a f3    SM_PF0_GREENl lda	CHARACTERSHAPE_BLANK,y	; 4
    161  007c		       85 4d		      sta	PF0	; 3 =	7    @69
    162  007e				   SELFMOD_PLAYERCOL_GREEN
    163  007e		       b9 df f0 	      lda	SpriteColourGREEN,y	; 4
    164  0081		       85 47		      sta	COLUP1	; 3	     @00
    165  0083		       85 46		      sta	COLUP0	; 3 = 10    @03
    166  0085
    167  0085				   SELFMOD_GREEN
    168  0085		       a9 00		      lda	#0	; 2
    169  0087		       85 48		      sta	COLUPF	; 3 =	5    @08
    170  0089
    171  0089				   SELFMOD_PLAYER0_GREEN
    172  0089		       b9 8a f3 	      lda	ShapePlayerGREEN,y	; 4
    173  008c		       85 5b		      sta	GRP0	; 3 =	7    @15
    174  008e
    175  008e		       b9 08 f3 	      lda	ScreenBitmapGREEN+0*LINES_PER_CHAR,y	; 4
    176  0091		       85 4e		      sta	PF1	; 3	     @22
    177  0093		       b9 20 f3 	      lda	ScreenBitmapGREEN+1*LINES_PER_CHAR,y	; 4
    178  0096		       85 4f		      sta	PF2	; 3 = 14    @29
    179  0098
    180  0098		       b9 8a f3    SM_PF0_GREENr lda	CHARACTERSHAPE_BLANK,y	; 4
    181  009b		       85 4d		      sta	PF0	; 3	     @36
    182  009d		       b9 38 f3 	      lda	ScreenBitmapGREEN+2*LINES_PER_CHAR,y	; 4
    183  00a0		       85 4e		      sta	PF1	; 3	     @43
    184  00a2		       b9 50 f3 	      lda	ScreenBitmapGREEN+3*LINES_PER_CHAR,y	; 4
    185  00a5		       85 4f		      sta	PF2	; 3 = 21    @50
    186  00a7
    187  00a7				   SELFMOD_PLAYER1_GREEN
    188  00a7		       b9 8a f3 	      lda	ShapePlayerGREEN,y	; 4
    189  00aa		       85 5c		      sta	GRP1	; 3 =	7    @57     VDELed!
    190  00ac
    191  00ac		       4c 0a f0 	      jmp	ScanRED	; 3	     @60
    192  00af
    193  00af							;------------------------------------------------------------------------------
    194  00af
    195  00af							;     OPTIONAL_PAGEBREAK "PLAYER BLANK SHAPE", LINES_PER_CHAR
    196  00af
    197  00af		       f3 8a	   ShapePlayer =	PLAYER_BLANK
    198  00af		       f3 8a	   ShapePlayerBLUE =	ShapePlayer	; low adresses patched
    199  00af		       f3 8a	   ShapePlayerGREEN =	ShapePlayer	; low adresses patched
    200  00af		       f3 8a	   ShapePlayerRED =	ShapePlayer	; low adresses patched
    201  00af
    202  00af		       f3 8a	   CHARACTERSHAPE_MANOCCUPIED =	PLAYER_BLANK
    203  00af		       f3 8a	   CHARACTERSHAPE_BLANK =	PLAYER_BLANK
    204  00af
------- FILE playerColour.asm LEVEL 3 PASS 4
      0  00af					      include	"playerColour.asm"	; 1 * LINES_PER_CHAR bytes
      1  00af							;;    Sokoboo - a Sokoban implementation
      2  00af							;    using a generic tile-based display engine for the Atari 2600
      3  00af							;    Sokoban (倉庫番)™ is © Falcon Co., Ltd.
      4  00af							;
      5  00af							;    Code related to this Sokoban™ implementation was developed by Andrew Davie.
      6  00af							;
      7  00af							;    Code related to the generic tile-based display engine was developed by
      8  00af							;    Andrew Davie and Thomas Jentzsch during 2003-2011 and is
      9  00af							;    Copyright(C)2003-2019 Thomas Jentzsch and Andrew Davie - contacts details:
     10  00af							;    Andrew Davie (andrew@taswegian.com), Thomas Jentzsch (tjentzsch@yahoo.de).
     11  00af							;
     12  00af							;    Code related to music and sound effects uses the TIATracker music player
     13  00af							;    Copyright 2016 Andre "Kylearan" Wichmann - see source code in the "sound"
     14  00af							;    directory for Apache licensing details.
     15  00af							;
     16  00af							;    Some level data incorporated in this program were created by Lee J Haywood.
     17  00af							;    See the copyright notices in the License directory for a list of level
     18  00af							;    contributors.
     19  00af							;
     20  00af							;    Except where otherwise indicated, this software is released under the
     21  00af							;    following licensing arrangement...
     22  00af							;
     23  00af							;    This program is free software: you can redistribute it and/or modify
     24  00af							;    it under the terms of the GNU General Public License as published by
     25  00af							;    the Free Software Foundation, either version 3 of the License, or
     26  00af							;    (at your option) any later version.
     27  00af							;    see https://www.gnu.org/licenses/gpl-3.0.en.html
     28  00af
     29  00af							;    This program is distributed in the hope that it will be useful,
     30  00af							;    but WITHOUT ANY WARRANTY; without even the implied warranty of
     31  00af							;    MERCHANTABILITY or FITNESS FOR A PARTICULAR PURPOSE.  See the
     32  00af							;    GNU General Public License for more details.
     33  00af
      0  00af					      OPTIONAL_PAGEBREAK	"SpriteColour", LINES_PER_CHAR*2
     10  00af					      LIST	ON
     35  00af
     36  00af		       00 10	   YELLOW_NTSC =	$10	; hair
     37  00af		       00 30	   ORANGE_NTSC =	$30	; skin
     38  00af		       00 40	   RED_NTSC   =	$40	; shirt
     39  00af		       00 a4	   BLUE_NTSC  =	$A4
     40  00af
     41  00af		       00 20	   YELLOW_PAL =	$20
     42  00af		       00 40	   ORANGE_PAL =	$40
     43  00af		       00 60	   RED_PAL    =	$60
     44  00af
     45  00af				   SpriteColour
     46  00af							; NTSC
     47  00af							;SpriteColourRED
     48  00af							;    .byte RED_NTSC|$6       ; 0 feet
     49  00af							;    .byte WHITE	      ; 3
     50  00af							;    .byte RED_NTSC|$4       ; 6
     51  00af							;    .byte RED_NTSC|$4       ; 9
     52  00af							;    .byte ORANGE_NTSC|$6    ;12
     53  00af							;    .byte ORANGE_NTSC|$8    ;15
     54  00af							;    .byte WHITE	      ;18
     55  00af							;SpriteColourGREEN
     56  00af							;    .byte RED_NTSC|$4       ; 1
     57  00af							;    .byte WHITE	      ; 4
     58  00af							;    .byte WHITE	      ; 7
     59  00af							;    .byte WHITE	      ;10
     60  00af							;    .byte ORANGE_NTSC|$8    ;13
     61  00af							;    .byte ORANGE_NTSC|$6    ;16
     62  00af							;    .byte WHITE	      ;19
     63  00af							;SpriteColourBLUE
     64  00af							;    .byte WHITE	      ; 2
     65  00af							;    .byte RED_NTSC|$4       ; 5
     66  00af							;    .byte RED_NTSC|$4       ; 8
     67  00af							;    .byte ORANGE_NTSC|$4    ;11 neck
     68  00af							;    .byte ORANGE_NTSC|$a    ;14
     69  00af							;    .byte YELLOW_NTSC|$c    ;17 hair
     70  00af							;    .byte WHITE	      ;20
     71  00af
     72  00af				   SpriteColourRED
     73  00af					      REPEAT	LINES_PER_CHAR
     74  00af		       a4		      .byte.b	$A4
     73  00af					      REPEND
     74  00b0		       a4		      .byte.b	$A4
     73  00b0					      REPEND
     74  00b1		       a4		      .byte.b	$A4
     73  00b1					      REPEND
     74  00b2		       a4		      .byte.b	$A4
     73  00b2					      REPEND
     74  00b3		       a4		      .byte.b	$A4
     73  00b3					      REPEND
     74  00b4		       a4		      .byte.b	$A4
     73  00b4					      REPEND
     74  00b5		       a4		      .byte.b	$A4
     73  00b5					      REPEND
     74  00b6		       a4		      .byte.b	$A4
     73  00b6					      REPEND
     74  00b7		       a4		      .byte.b	$A4
     73  00b7					      REPEND
     74  00b8		       a4		      .byte.b	$A4
     73  00b8					      REPEND
     74  00b9		       a4		      .byte.b	$A4
     73  00b9					      REPEND
     74  00ba		       a4		      .byte.b	$A4
     73  00ba					      REPEND
     74  00bb		       a4		      .byte.b	$A4
     73  00bb					      REPEND
     74  00bc		       a4		      .byte.b	$A4
     73  00bc					      REPEND
     74  00bd		       a4		      .byte.b	$A4
     73  00bd					      REPEND
     74  00be		       a4		      .byte.b	$A4
     73  00be					      REPEND
     74  00bf		       a4		      .byte.b	$A4
     73  00bf					      REPEND
     74  00c0		       a4		      .byte.b	$A4
     73  00c0					      REPEND
     74  00c1		       a4		      .byte.b	$A4
     73  00c1					      REPEND
     74  00c2		       a4		      .byte.b	$A4
     73  00c2					      REPEND
     74  00c3		       a4		      .byte.b	$A4
     73  00c3					      REPEND
     74  00c4		       a4		      .byte.b	$A4
     73  00c4					      REPEND
     74  00c5		       a4		      .byte.b	$A4
     73  00c5					      REPEND
     74  00c6		       a4		      .byte.b	$A4
     75  00c7					      REPEND
     76  00c7					      REPEAT	LINES_PER_CHAR
     77  00c7		       76		      .byte.b	$76
     76  00c7					      REPEND
     77  00c8		       76		      .byte.b	$76
     76  00c8					      REPEND
     77  00c9		       76		      .byte.b	$76
     76  00c9					      REPEND
     77  00ca		       76		      .byte.b	$76
     76  00ca					      REPEND
     77  00cb		       76		      .byte.b	$76
     76  00cb					      REPEND
     77  00cc		       76		      .byte.b	$76
     76  00cc					      REPEND
     77  00cd		       76		      .byte.b	$76
     76  00cd					      REPEND
     77  00ce		       76		      .byte.b	$76
     76  00ce					      REPEND
     77  00cf		       76		      .byte.b	$76
     76  00cf					      REPEND
     77  00d0		       76		      .byte.b	$76
     76  00d0					      REPEND
     77  00d1		       76		      .byte.b	$76
     76  00d1					      REPEND
     77  00d2		       76		      .byte.b	$76
     76  00d2					      REPEND
     77  00d3		       76		      .byte.b	$76
     76  00d3					      REPEND
     77  00d4		       76		      .byte.b	$76
     76  00d4					      REPEND
     77  00d5		       76		      .byte.b	$76
     76  00d5					      REPEND
     77  00d6		       76		      .byte.b	$76
     76  00d6					      REPEND
     77  00d7		       76		      .byte.b	$76
     76  00d7					      REPEND
     77  00d8		       76		      .byte.b	$76
     76  00d8					      REPEND
     77  00d9		       76		      .byte.b	$76
     76  00d9					      REPEND
     77  00da		       76		      .byte.b	$76
     76  00da					      REPEND
     77  00db		       76		      .byte.b	$76
     76  00db					      REPEND
     77  00dc		       76		      .byte.b	$76
     76  00dc					      REPEND
     77  00dd		       76		      .byte.b	$76
     76  00dd					      REPEND
     77  00de		       76		      .byte.b	$76
     78  00df					      REPEND
     79  00df
     80  00df
     81  00df							;  .byte #$1C;0
     82  00df							;  .byte #$78;3
     83  00df							;  .byte #$52;6
     84  00df							;  .byte #$52;9
     85  00df							;  .byte #$0C;12
     86  00df							;  .byte #$4A;15
     87  00df							;  .byte #$1A;18
     88  00df				   SpriteColourGREEN
     89  00df					      REPEAT	LINES_PER_CHAR
     90  00df		       a4		      .byte.b	$A4
     89  00df					      REPEND
     90  00e0		       a4		      .byte.b	$A4
     89  00e0					      REPEND
     90  00e1		       a4		      .byte.b	$A4
     89  00e1					      REPEND
     90  00e2		       a4		      .byte.b	$A4
     89  00e2					      REPEND
     90  00e3		       a4		      .byte.b	$A4
     89  00e3					      REPEND
     90  00e4		       a4		      .byte.b	$A4
     89  00e4					      REPEND
     90  00e5		       a4		      .byte.b	$A4
     89  00e5					      REPEND
     90  00e6		       a4		      .byte.b	$A4
     89  00e6					      REPEND
     90  00e7		       a4		      .byte.b	$A4
     89  00e7					      REPEND
     90  00e8		       a4		      .byte.b	$A4
     89  00e8					      REPEND
     90  00e9		       a4		      .byte.b	$A4
     89  00e9					      REPEND
     90  00ea		       a4		      .byte.b	$A4
     89  00ea					      REPEND
     90  00eb		       a4		      .byte.b	$A4
     89  00eb					      REPEND
     90  00ec		       a4		      .byte.b	$A4
     89  00ec					      REPEND
     90  00ed		       a4		      .byte.b	$A4
     89  00ed					      REPEND
     90  00ee		       a4		      .byte.b	$A4
     89  00ee					      REPEND
     90  00ef		       a4		      .byte.b	$A4
     89  00ef					      REPEND
     90  00f0		       a4		      .byte.b	$A4
     89  00f0					      REPEND
     90  00f1		       a4		      .byte.b	$A4
     89  00f1					      REPEND
     90  00f2		       a4		      .byte.b	$A4
     89  00f2					      REPEND
     90  00f3		       a4		      .byte.b	$A4
     89  00f3					      REPEND
     90  00f4		       a4		      .byte.b	$A4
     89  00f4					      REPEND
     90  00f5		       a4		      .byte.b	$A4
     89  00f5					      REPEND
     90  00f6		       a4		      .byte.b	$A4
     91  00f7					      REPEND
     92  00f7					      REPEAT	LINES_PER_CHAR
     93  00f7		       76		      .byte.b	$76
     92  00f7					      REPEND
     93  00f8		       76		      .byte.b	$76
     92  00f8					      REPEND
     93  00f9		       76		      .byte.b	$76
     92  00f9					      REPEND
     93  00fa		       76		      .byte.b	$76
     92  00fa					      REPEND
     93  00fb		       76		      .byte.b	$76
     92  00fb					      REPEND
     93  00fc		       76		      .byte.b	$76
     92  00fc					      REPEND
     93  00fd		       76		      .byte.b	$76
     92  00fd					      REPEND
     93  00fe		       76		      .byte.b	$76
     92  00fe					      REPEND
     93  00ff		       76		      .byte.b	$76
     92  00ff					      REPEND
     93  0100		       76		      .byte.b	$76
     92  0100					      REPEND
     93  0101		       76		      .byte.b	$76
     92  0101					      REPEND
     93  0102		       76		      .byte.b	$76
     92  0102					      REPEND
     93  0103		       76		      .byte.b	$76
     92  0103					      REPEND
     93  0104		       76		      .byte.b	$76
     92  0104					      REPEND
     93  0105		       76		      .byte.b	$76
     92  0105					      REPEND
     93  0106		       76		      .byte.b	$76
     92  0106					      REPEND
     93  0107		       76		      .byte.b	$76
     92  0107					      REPEND
     93  0108		       76		      .byte.b	$76
     92  0108					      REPEND
     93  0109		       76		      .byte.b	$76
     92  0109					      REPEND
     93  010a		       76		      .byte.b	$76
     92  010a					      REPEND
     93  010b		       76		      .byte.b	$76
     92  010b					      REPEND
     93  010c		       76		      .byte.b	$76
     92  010c					      REPEND
     93  010d		       76		      .byte.b	$76
     92  010d					      REPEND
     93  010e		       76		      .byte.b	$76
     94  010f					      REPEND
     95  010f				   SpriteColourBLUE
     96  010f					      REPEAT	LINES_PER_CHAR
     97  010f		       a4		      .byte.b	$A4
     96  010f					      REPEND
     97  0110		       a4		      .byte.b	$A4
     96  0110					      REPEND
     97  0111		       a4		      .byte.b	$A4
     96  0111					      REPEND
     97  0112		       a4		      .byte.b	$A4
     96  0112					      REPEND
     97  0113		       a4		      .byte.b	$A4
     96  0113					      REPEND
     97  0114		       a4		      .byte.b	$A4
     96  0114					      REPEND
     97  0115		       a4		      .byte.b	$A4
     96  0115					      REPEND
     97  0116		       a4		      .byte.b	$A4
     96  0116					      REPEND
     97  0117		       a4		      .byte.b	$A4
     96  0117					      REPEND
     97  0118		       a4		      .byte.b	$A4
     96  0118					      REPEND
     97  0119		       a4		      .byte.b	$A4
     96  0119					      REPEND
     97  011a		       a4		      .byte.b	$A4
     96  011a					      REPEND
     97  011b		       a4		      .byte.b	$A4
     96  011b					      REPEND
     97  011c		       a4		      .byte.b	$A4
     96  011c					      REPEND
     97  011d		       a4		      .byte.b	$A4
     96  011d					      REPEND
     97  011e		       a4		      .byte.b	$A4
     96  011e					      REPEND
     97  011f		       a4		      .byte.b	$A4
     96  011f					      REPEND
     97  0120		       a4		      .byte.b	$A4
     96  0120					      REPEND
     97  0121		       a4		      .byte.b	$A4
     96  0121					      REPEND
     97  0122		       a4		      .byte.b	$A4
     96  0122					      REPEND
     97  0123		       a4		      .byte.b	$A4
     96  0123					      REPEND
     97  0124		       a4		      .byte.b	$A4
     96  0124					      REPEND
     97  0125		       a4		      .byte.b	$A4
     96  0125					      REPEND
     97  0126		       a4		      .byte.b	$A4
     98  0127					      REPEND
     99  0127					      REPEAT	LINES_PER_CHAR
    100  0127		       76		      .byte.b	$76
     99  0127					      REPEND
    100  0128		       76		      .byte.b	$76
     99  0128					      REPEND
    100  0129		       76		      .byte.b	$76
     99  0129					      REPEND
    100  012a		       76		      .byte.b	$76
     99  012a					      REPEND
    100  012b		       76		      .byte.b	$76
     99  012b					      REPEND
    100  012c		       76		      .byte.b	$76
     99  012c					      REPEND
    100  012d		       76		      .byte.b	$76
     99  012d					      REPEND
    100  012e		       76		      .byte.b	$76
     99  012e					      REPEND
    100  012f		       76		      .byte.b	$76
     99  012f					      REPEND
    100  0130		       76		      .byte.b	$76
     99  0130					      REPEND
    100  0131		       76		      .byte.b	$76
     99  0131					      REPEND
    100  0132		       76		      .byte.b	$76
     99  0132					      REPEND
    100  0133		       76		      .byte.b	$76
     99  0133					      REPEND
    100  0134		       76		      .byte.b	$76
     99  0134					      REPEND
    100  0135		       76		      .byte.b	$76
     99  0135					      REPEND
    100  0136		       76		      .byte.b	$76
     99  0136					      REPEND
    100  0137		       76		      .byte.b	$76
     99  0137					      REPEND
    100  0138		       76		      .byte.b	$76
     99  0138					      REPEND
    100  0139		       76		      .byte.b	$76
     99  0139					      REPEND
    100  013a		       76		      .byte.b	$76
     99  013a					      REPEND
    100  013b		       76		      .byte.b	$76
     99  013b					      REPEND
    100  013c		       76		      .byte.b	$76
     99  013c					      REPEND
    100  013d		       76		      .byte.b	$76
     99  013d					      REPEND
    100  013e		       76		      .byte.b	$76
    101  013f					      REPEND
    102  013f
    103  013f							;  REPEAT LINES_PER_CHARACTER	      ;???
    104  013f							;  .byte $20|$6	     ; 2
    105  013f							;   REPEND
    106  013f
    107  013f							; PAL
    108  013f							;    .byte RED_PAL|$6	      ; 0 feet
    109  013f							;    .byte WHITE	      ; 3
    110  013f							;    .byte RED_PAL|$4	      ; 6
    111  013f							;    .byte RED_PAL|$4	      ; 9
    112  013f							;    .byte ORANGE_PAL|$4     ;12
    113  013f							;    .byte ORANGE_PAL|$6     ;15
    114  013f							;    .byte WHITE	      ;18
    115  013f							;
    116  013f							;    .byte RED_PAL|$4	      ; 1
    117  013f							;    .byte WHITE	      ; 4
    118  013f							;    .byte WHITE	      ; 7
    119  013f							;    .byte WHITE	      ;10
    120  013f							;    .byte ORANGE_PAL|$6     ;13
    121  013f							;    .byte ORANGE_PAL|$4     ;16
    122  013f							;    .byte WHITE	      ;19
    123  013f							;
    124  013f							;    .byte WHITE	      ; 2
    125  013f							;    .byte RED_PAL|$4	      ; 5
    126  013f							;    .byte RED_PAL|$4	      ; 8
    127  013f							;    .byte ORANGE_PAL|$2     ;11 neck
    128  013f							;    .byte ORANGE_PAL|$8     ;14
    129  013f							;    .byte YELLOW_PAL|$c     ;17 hair
    130  013f							;    .byte WHITE	      ;20
------- FILE BANK_ROM_SHADOW_RAMBANK.asm
    206  013f
    207  013f
    208  013f							;------------------------------------------------------------------------------
    209  013f
    210  013f							;*** Ideas: ***
    211  013f							; - separate data for left and right nibble (saves 88 cycles, 63 cycles or
    212  013f							;   13.5% on average), also unrolling would be more effective than now
    213  013f							; - use CharacterDataVecHI for mirrored/unmirrored (saves cycles and bytes,
    214  013f							;   see EXPERIMENTAL)
    215  013f							; - special QuickDraw routine for PF0 (~165 cycles, but only ~2% usage)
    216  013f							; - stack AI (reordering for less setup code and cycle usage, maybe better use
    217  013f							;   bidirectional linked list instead)
    218  013f							; - calculate mirrored gfx data into RAM (saves ROM)
    219  013f
    220  013f							;*** average cycle calculation (10% blanks, all columns equally frequent): ***
    221  013f							;currently:
    222  013f							; 72%*539 (!unrolled)
    223  013f							;+ 8%*304 (unrolled)
    224  013f							;+20%*269 (unrolled)
    225  013f							;--------
    226  013f							;=   ~466.2 cycles on average
    227  013f
    228  013f							;alternative #1:
    229  013f							; 72%*522 (unrolled)
    230  013f							;+ 8%*352 (!unrolled)
    231  013f							;+20%*307 (!unrolled)
    232  013f							;--------
    233  013f							;=   ~465.4 cycles on average
    234  013f
    235  013f
    236  013f		       00 01	   MIRROR     =	1
    237  013f		       00 80	   DIRECT     =	$80
    238  013f
    239  013f							;------------------------------------------------------------------------------
    240  013f							; Here we don't draw into a buffer, but directly patch the kernel
    241  013f							; VERY fast!
    242  013f							;
    243  013f							; TODO: check if DirectDraw for PF1/2 can be handle efficiently like this too
    244  013f							; Problem: SlowDraw cannot assume that the other nibble is set correctly anymore
    245  013f
    246  013f				   PF0Draw		; 25 cycles until here
    247  013f
    248  013f		       ae 84 02 	      ldx	INTIM	; 4
    249  0142		       e0 02		      cpx	#SEGTIME_SCD_PF0	; 2
    250  0144		       90 72		      bcc	ExitDraw	; 2(3)=8
      0  0146					      STRESS_TIME	SEGTIME_SCD_PF0	; ok!
      1  0146				  -	      IF	TEST_SEGTIME_SCD_PF0 = 1
      2  0146				  -
      3  0146				  -
      4  0146				  -
      5  0146				  -
      6  0146				  -
      7  0146				  -	      echo	"***** WARNING! STRESS_TIME enabled @", ., "! *****"
      8  0146				  -	      bne	. - 7
      9  0146					      ENDIF
    252  0146
    253  0146		       29 7f		      and	#<(~DIRECT)	; 2
    254  0148		       aa		      tax		; 2 =	4
    255  0149
    256  0149		       98		      tya		; 2
    257  014a		       0a		      asl		; 2	     no mirrored chars in PF0
    258  014b		       a8		      tay		; 2 =	6
    259  014c							;		  clc				  ; 2
    260  014c
    261  014c		       b9 ce f3 	      lda	CharacterDataVecHI,y	; 4
    262  014f		       9d 0c f4 	      sta	SM_PF0_REDl +RAM_WRITE+2,x	; 5
    263  0152		       9d 7b f4 	      sta	SM_PF0_GREENl+RAM_WRITE+2,x	; 5
    264  0155		       9d 48 f4 	      sta	SM_PF0_BLUEl +RAM_WRITE+2,x	; 5 = 19
    265  0158
    266  0158		       b9 ba f3 	      lda	CharacterDataVecLO,y	; 4
    267  015b		       9d 0b f4 	      sta	SM_PF0_REDl +RAM_WRITE+1,x	; 5
    268  015e		       69 07		      adc	#LINES_PER_CHAR/3-1	; 2	     CF is set!
    269  0160		       9d 7a f4 	      sta	SM_PF0_GREENl+RAM_WRITE+1,x	; 5
    270  0163		       69 08		      adc	#LINES_PER_CHAR/3	; 2
    271  0165		       9d 47 f4 	      sta	SM_PF0_BLUEl +RAM_WRITE+1,x	; 5 = 23
    272  0168
    273  0168		       4c d4 fa 	      jmp	DrawAnother	; 3 =	3
    274  016b
    275  016b							; Timing for PF0Draw
    276  016b							; 88
    277  016b							; total: 37+70+6 = 113 => 113/64 + 1.4 = 3.17 = 4 (or 3?)
    278  016b
    279  016b
    280  016b							;------------------------------------------------------------------------------
    281  016b							; Direct draw draws to PF0, which only has one active member of the character
    282  016b							; pair -- so it can be a direct copy.	Quicker still!
    283  016b
    284  016b				   DirectDraw		; 37 cycles until here
    285  016b
    286  016b							;ldy #16
    287  016b		       ad 84 02 	      lda	INTIM	; 4
    288  016e		       c9 07		      cmp	#SEGTIME_SCD_DIRECT	; 2
    289  0170		       90 46		      bcc	ExitDraw	; 2(3)=8
      0  0172					      STRESS_TIME	SEGTIME_SCD_DIRECT	; ok!
      1  0172				  -	      IF	TEST_SEGTIME_SCD_DIRECT = 1
      2  0172				  -
      3  0172				  -
      4  0172				  -
      5  0172				  -
      6  0172				  -
      7  0172				  -	      echo	"***** WARNING! STRESS_TIME enabled @", ., "! *****"
      8  0172				  -	      bne	. - 7
      9  0172					      ENDIF
    291  0172
    292  0172							; TIME REQUIRED FROM HERE (9/JAN)
    293  0172							; 16 + 20 + 20 + 2 + ( 8 * 32 ) - 1  + (42 SUFFIX)
    294  0172							; = 323 --> /64 = 5.04 USE 7
    295  0172
    296  0172		       b9 ce f3 	      lda	CharacterDataVecHI,y	; 4
    297  0175		       8d a2 f5 	      sta	SM3LOAD+RAM_WRITE+2	; 4
    298  0178		       8d a8 f5 	      sta	SM3LOADb+RAM_WRITE+2	; 4
    299  017b		       8d ae f5 	      sta	SM3LOADc+RAM_WRITE+2	; 4 = 16
    300  017e
    301  017e		       b9 ba f3 	      lda	CharacterDataVecLO,y	; 4
    302  0181		       8d a1 f5 	      sta	SM3LOAD+RAM_WRITE+1	; 4
    303  0184		       69 07		      adc	#LINES_PER_CHAR/3 - 1	; 2	     CF is set!
    304  0186		       8d a7 f5 	      sta	SM3LOADb+RAM_WRITE+1	; 4
    305  0189		       69 08		      adc	#LINES_PER_CHAR/3	; 2
    306  018b		       8d ad f5 	      sta	SM3LOADc+RAM_WRITE+1	; 4 = 20
    307  018e
    308  018e		       bd 42 f2 	      lda	CharAddressLO,x	; 4	     ScreenBitmap(COL) LO byte
    309  0191		       8d a4 f5 	      sta	SM3STORE+RAM_WRITE+1	; 4
    310  0194		       69 08		      adc	#LINES_PER_CHAR/3	; 2
    311  0196		       8d aa f5 	      sta	SM3STOREb+RAM_WRITE+1	; 4
    312  0199		       69 08		      adc	#LINES_PER_CHAR/3	; 2
    313  019b		       8d b0 f5 	      sta	SM3STOREc+RAM_WRITE+1	; 4 = 20
    314  019e
    315  019e		       a0 07		      ldy	#LINES_PER_CHAR/3 - 1	; 2 =	2
    316  01a0				   TSFill3
    317  01a0		       b9 00 f0    SM3LOAD    lda	$F000,y	; 4+
    318  01a3		       99 00 f7    SM3STORE   sta	ScreenBitmap+RAM_WRITE,y	; 5
    319  01a6		       b9 00 f0    SM3LOADb   lda	$F000,y	; 4+
    320  01a9		       99 00 f7    SM3STOREb  sta	ScreenBitmap+RAM_WRITE,y	; 5
    321  01ac		       b9 00 f0    SM3LOADc   lda	$F000,y	; 4+
    322  01af		       99 00 f7    SM3STOREc  sta	ScreenBitmap+RAM_WRITE,y	; 5 = 27
    323  01b2
    324  01b2		       88		      dey		; 2
      0  01b3					      CHECKPAGE_BPL	TSFill3	; 3(2)=5
      8  01b3					      LIST	ON
      9  01b3		       10 eb		      bpl	TSFill3
    326  01b5
    327  01b5		       4c d4 fa 	      jmp	DrawAnother	; 3
    328  01b8
    329  01b8							; Timing for DirectDraw
    330  01b8							; 17+8+16+20+20+2+(32*7)-1+3 = 309 (was: 302 + 3)
    331  01b8							; total: 37+309+6 = 352 => 352/64 + 1.4 = 6.90 = 7 (= SEGTIME_SLOWDRAW-5)
    332  01b8
    333  01b8				   ExitDraw
    334  01b8		       60		      rts
    335  01b9
    336  01b9							;------------------------------------------------------------------------------
      0  01b9					      DEFINE_SUBROUTINE	StealPart3	; 18 CYCLES HERE
      1  01b9		       00 00	   BANK_StealPart3 =	_CURRENT_BANK
      2  01b9					      SUBROUTINE
      3  01b9				   StealPart3
    338  01b9
    339  01b9		       bd 54 f2 	      lda	MOD10,x	; 4
    340  01bc		       30 81		      bmi	PF0Draw	; 2/3
    341  01be		       4a		      lsr		; 2
    342  01bf		       aa		      tax		; 2
    343  01c0		       98		      tya		; 2
    344  01c1		       2a		      rol		; 2	     allows for mirrored char = * | 1
    345  01c2		       a8		      tay		; 2
    346  01c3		       b0 a6		      bcs	DirectDraw	; 2(3)      when draw stack was built, bit 7 flags direct-drawn character
    347  01c5							;	     => +19 starting DirectDraw BUT WHO CARES AS IT'S ONLY AFTER THAT COUNTS
    348  01c5
    349  01c5		       b9 ce f3 	      lda	CharacterDataVecHI,y	; 4
    350  01c8		       10 38		      bpl	QuickDraw	; 2(3)=42   special-case blank characters for extra speed
    351  01ca							;	     => 42 starting QuickDraw
    352  01ca		       8d f3 f5 	      sta	SMEOR1+RAM_WRITE+2	; 4 =	4
    353  01cd
    354  01cd		       ad 84 02 	      lda	INTIM	; 4
    355  01d0		       c9 0b		      cmp	#SEGTIME_SCD_SLOW	; 2
    356  01d2		       90 e4		      bcc	ExitDraw	; 2(3)=8
      0  01d4					      STRESS_TIME	SEGTIME_SCD_SLOW	; ok!
      1  01d4				  -	      IF	TEST_SEGTIME_SCD_SLOW = 1
      2  01d4				  -
      3  01d4				  -
      4  01d4				  -
      5  01d4				  -
      6  01d4				  -
      7  01d4				  -	      echo	"***** WARNING! STRESS_TIME enabled @", ., "! *****"
      8  01d4				  -	      bne	. - 7
      9  01d4					      ENDIF
    358  01d4
    359  01d4							; TIME REQUIRED FROM HERE (9/JAN)
    360  01d4							; 8 + 16 + 8 + 2 + (24 * 24) -1 + (42 OVERHEAD WHEN RETURNING)
    361  01d4							; = 651
    362  01d4
    363  01d4		       b9 ba f3 	      lda	CharacterDataVecLO,y	; 4
    364  01d7		       8d f2 f5 	      sta	SMEOR1+RAM_WRITE+1	; 4 =	8
    365  01da
    366  01da		       bd 42 f2 	      lda	CharAddressLO,x	; 4	     ScreenBitmap(COL) LO byte
    367  01dd		       8d ef f5 	      sta	SMLOAD+RAM_WRITE+1	; 4
    368  01e0		       8d f7 f5 	      sta	SMEOR2+RAM_WRITE+1	; 4
    369  01e3		       8d fa f5 	      sta	SMSTORE+RAM_WRITE+1	; 4 = 16
    370  01e6
    371  01e6		       bd 4c f2 	      lda	CharMaskNeg,x	; 4	     masks out left or right
    372  01e9		       8d f5 f5 	      sta	SMMASK+RAM_WRITE+1	; 4 =	8
    373  01ec
    374  01ec		       a0 17	   SlowDraw   ldy	#LINES_PER_CHAR - 1	; 2 =	2
    375  01ee
    376  01ee							; A very nice bit of Thomas Jentzsch replacement magic giving 77 cycle savings.
    377  01ee							; Rewrite for self-modification by Andrew Davie giving another 90 cycles :)
    378  01ee
    379  01ee				   TSFill
    380  01ee
    381  01ee		       b9 00 f3    SMLOAD     lda	ScreenBitmap,y	; 4
    382  01f1		       59 00 f0    SMEOR1     eor	$F000,y	; 4
    383  01f4		       29 00	   SMMASK     and	#0	; 2
    384  01f6		       59 00 f3    SMEOR2     eor	ScreenBitmap,y	; 4	     using ScreenBitmap here avoids setting high-pointer
    385  01f9		       99 00 f7    SMSTORE    sta	ScreenBitmap+RAM_WRITE,y	; 5 = 19
    386  01fc
    387  01fc		       88		      dey		; 2
      0  01fd					      CHECKPAGE_BPL	TSFill	; 3(2)=5
      8  01fd					      LIST	ON
      9  01fd		       10 ef		      bpl	TSFill
    389  01ff
    390  01ff		       4c d4 fa 	      jmp	DrawAnother	; 3
    391  0202
    392  0202							; Timing for "SLOW" draw
    393  0202							; 22+4+8+8+16+8+2+(21*24)-1+3 = 574 (was: 566 + 3)
    394  0202							; total: 37+574+6 = 617 => 628/64 + 1.4 = 11.04 = 12 (= SEGTIME_SLOWDRAW)
    395  0202
    396  0202
    397  0202							;------------------------------------------------------------------------------
    398  0202							; QuickDraw is for drawing BLANK characters.  It just has to mask out the
    399  0202							; existing character data, so can be special-cased from the normal character
    400  0202							; draw, saving roughly 230 cycles.
    401  0202
    402  0202				   QuickDraw		; 42 cycles until here
    403  0202
    404  0202		       ad 84 02 	      lda	INTIM	; 4
    405  0205		       c9 07		      cmp	#SEGTIME_SCD_QUICK	; 2	     SEE TIMING CALCS BELOW
    406  0207		       90 af		      bcc	ExitDraw	; 2(3)=8
      0  0209					      STRESS_TIME	SEGTIME_SCD_QUICK	; ok!
      1  0209				  -	      IF	TEST_SEGTIME_SCD_QUICK = 1
      2  0209				  -
      3  0209				  -
      4  0209				  -
      5  0209				  -
      6  0209				  -
      7  0209				  -	      echo	"***** WARNING! STRESS_TIME enabled @", ., "! *****"
      8  0209				  -	      bne	. - 7
      9  0209					      ENDIF
    408  0209
    409  0209							; TIME REQUIRED FROM HERE (9/JAN)
    410  0209							;   = 32 + 4 + 2 + ( 8 * 38 ) - 1 + 3	+ (42 SUFFIX)
    411  0209							;   = 386 --> /64 = 5.43. USE 7
    412  0209
    413  0209		       bd 42 f2 	      lda	CharAddressLO,x	; 4	     ScreenBitmap(COL) LO byte
    414  020c		       8d 29 f6 	      sta	SM2LOAD+RAM_WRITE+1	; 4
    415  020f		       8d 2c f6 	      sta	SM2STORE+RAM_WRITE+1	; 4
    416  0212		       69 07		      adc	#LINES_PER_CHAR/3 - 1	; 2	     CF is set!
    417  0214		       8d 30 f6 	      sta	SM2LOADb+RAM_WRITE+1	; 4
    418  0217		       8d 33 f6 	      sta	SM2STOREb+RAM_WRITE+1	; 4
    419  021a		       69 08		      adc	#LINES_PER_CHAR/3	; 2
    420  021c		       8d 37 f6 	      sta	SM2LOADc+RAM_WRITE+1	; 4
    421  021f		       8d 3a f6 	      sta	SM2STOREc+RAM_WRITE+1	; 4 = 32
    422  0222
    423  0222		       bc 4a f2 	      ldy	CharMask,x	; 4 =	4    masks out left or right
    424  0225
    425  0225		       a2 07		      ldx	#LINES_PER_CHAR/3 - 1	; 2 =	2
    426  0227				   TSFill2
    427  0227		       98		      tya		; 2
    428  0228		       3d 00 f3    SM2LOAD    and	ScreenBitmap,x	; 4+
    429  022b		       9d 00 f7    SM2STORE   sta	ScreenBitmap+RAM_WRITE,x	; 5
    430  022e		       98		      tya		; 2
    431  022f		       3d 00 f3    SM2LOADb   and	ScreenBitmap,x	; 4+
    432  0232		       9d 00 f7    SM2STOREb  sta	ScreenBitmap+RAM_WRITE,x	; 5
    433  0235		       98		      tya		; 2
    434  0236		       3d 00 f3    SM2LOADc   and	ScreenBitmap,x	; 4+
    435  0239		       9d 00 f7    SM2STOREc  sta	ScreenBitmap+RAM_WRITE,x	; 5 = 33
    436  023c
    437  023c		       ca		      dex		; 2
      0  023d					      CHECKPAGE_BPL	TSFill2	; 3(2)=5
      8  023d					      LIST	ON
      9  023d		       10 e8		      bpl	TSFill2
    439  023f
    440  023f		       4c d4 fa 	      jmp	DrawAnother	; 3
    441  0242
    442  0242							; Timing for QuickDraw
    443  0242							; 23+8+32+4+2+(7*38)-1+3 = 337 (was: 330 + 3)
    444  0242							; total: 37+337+6 = 380 => 380/64 + 1.4 = 7.34 = 8 (= SEGTIME_SLOWDRAW-4)
    445  0242
    446  0242
    447  0242							;------------------------------------------------------------------------------
    448  0242
    449  0242
    450  0242				   CharAddressLO		;[abs char location % 10]
    451  0242
    452  0242							; Gives the absolute screen buffer address of the first line of the given character
    453  0242							; Where character number is 0-9
    454  0242
    455  0242		       00		      .byte.b	< ( ScreenBitmap + ( 0 * LINES_PER_CHAR ))	; 1
    456  0243		       00		      .byte.b	< ( ScreenBitmap + ( 0 * LINES_PER_CHAR ))	; 2
    457  0244		       18		      .byte.b	< ( ScreenBitmap + ( 1 * LINES_PER_CHAR ))	; 3
    458  0245		       18		      .byte.b	< ( ScreenBitmap + ( 1 * LINES_PER_CHAR ))	; 4
    459  0246		       30		      .byte.b	< ( ScreenBitmap + ( 2 * LINES_PER_CHAR ))	; 6
    460  0247		       30		      .byte.b	< ( ScreenBitmap + ( 2 * LINES_PER_CHAR ))	; 7
    461  0248		       48		      .byte.b	< ( ScreenBitmap + ( 3 * LINES_PER_CHAR ))	; 8
    462  0249		       48		      .byte.b	< ( ScreenBitmap + ( 3 * LINES_PER_CHAR ))	; 9
    463  024a							;	      .byte < ( ScreenBitmap + ( 0 * LINES_PER_CHAR ))	; 0 PF0
    464  024a							;	      .byte < ( ScreenBitmap + ( 3 * LINES_PER_CHAR ))	; 5 PF0
    465  024a
    466  024a				   CharMask		; [abs char location % 10]
    467  024a
    468  024a							; Gives the mask for any char of the screen (per row)
    469  024a							; Note, this is hardwired to the screen format of 6 bytes/line
    470  024a
    471  024a		       0f		      .byte.b	$0F	; 1
    472  024b		       f0		      .byte.b	$F0	; 2
    473  024c				   CharMaskNeg
    474  024c		       f0		      .byte.b	$F0	; 3/1
    475  024d		       0f		      .byte.b	$0F	; 4/2
    476  024e		       0f		      .byte.b	$0F	; 6/3
    477  024f		       f0		      .byte.b	$F0	; 7/4
    478  0250		       f0		      .byte.b	$F0	; 8/6
    479  0251		       0f		      .byte.b	$0F	; 9/7
    480  0252		       0f		      .byte.b	$0F	; -/8
    481  0253		       f0		      .byte.b	$F0	; -/9
    482  0254				   MOD10
    483  0254					      REPEAT	SCREEN_LINES
    484  0254							;	  .byte (8*2), MIRROR+0*2, MIRROR+1*2, 2*2, 3*2
    485  0254							;	  .byte (9*2), MIRROR+4*2, MIRROR+5*2, 6*2, 7*2
    486  0254		       80		      .byte.b	DIRECT
    487  0255		       01 03 04 06	      .byte.b	MIRROR+0*2, MIRROR+1*2, 2*2, 3*2
    488  0259		       9f		      .byte.b	DIRECT+SM_PF0_BLUEr-SM_PF0_BLUEl	; works only if distances between PF= writes are identical!
    489  025a		       09 0b 0c 0e	      .byte.b	MIRROR+4*2, MIRROR+5*2, 6*2, 7*2
    483  025a					      REPEND
    484  025e							;	  .byte (8*2), MIRROR+0*2, MIRROR+1*2, 2*2, 3*2
    485  025e							;	  .byte (9*2), MIRROR+4*2, MIRROR+5*2, 6*2, 7*2
    486  025e		       80		      .byte.b	DIRECT
    487  025f		       01 03 04 06	      .byte.b	MIRROR+0*2, MIRROR+1*2, 2*2, 3*2
    488  0263		       9f		      .byte.b	DIRECT+SM_PF0_BLUEr-SM_PF0_BLUEl	; works only if distances between PF= writes are identical!
    489  0264		       09 0b 0c 0e	      .byte.b	MIRROR+4*2, MIRROR+5*2, 6*2, 7*2
    483  0264					      REPEND
    484  0268							;	  .byte (8*2), MIRROR+0*2, MIRROR+1*2, 2*2, 3*2
    485  0268							;	  .byte (9*2), MIRROR+4*2, MIRROR+5*2, 6*2, 7*2
    486  0268		       80		      .byte.b	DIRECT
    487  0269		       01 03 04 06	      .byte.b	MIRROR+0*2, MIRROR+1*2, 2*2, 3*2
    488  026d		       9f		      .byte.b	DIRECT+SM_PF0_BLUEr-SM_PF0_BLUEl	; works only if distances between PF= writes are identical!
    489  026e		       09 0b 0c 0e	      .byte.b	MIRROR+4*2, MIRROR+5*2, 6*2, 7*2
    483  026e					      REPEND
    484  0272							;	  .byte (8*2), MIRROR+0*2, MIRROR+1*2, 2*2, 3*2
    485  0272							;	  .byte (9*2), MIRROR+4*2, MIRROR+5*2, 6*2, 7*2
    486  0272		       80		      .byte.b	DIRECT
    487  0273		       01 03 04 06	      .byte.b	MIRROR+0*2, MIRROR+1*2, 2*2, 3*2
    488  0277		       9f		      .byte.b	DIRECT+SM_PF0_BLUEr-SM_PF0_BLUEl	; works only if distances between PF= writes are identical!
    489  0278		       09 0b 0c 0e	      .byte.b	MIRROR+4*2, MIRROR+5*2, 6*2, 7*2
    483  0278					      REPEND
    484  027c							;	  .byte (8*2), MIRROR+0*2, MIRROR+1*2, 2*2, 3*2
    485  027c							;	  .byte (9*2), MIRROR+4*2, MIRROR+5*2, 6*2, 7*2
    486  027c		       80		      .byte.b	DIRECT
    487  027d		       01 03 04 06	      .byte.b	MIRROR+0*2, MIRROR+1*2, 2*2, 3*2
    488  0281		       9f		      .byte.b	DIRECT+SM_PF0_BLUEr-SM_PF0_BLUEl	; works only if distances between PF= writes are identical!
    489  0282		       09 0b 0c 0e	      .byte.b	MIRROR+4*2, MIRROR+5*2, 6*2, 7*2
    483  0282					      REPEND
    484  0286							;	  .byte (8*2), MIRROR+0*2, MIRROR+1*2, 2*2, 3*2
    485  0286							;	  .byte (9*2), MIRROR+4*2, MIRROR+5*2, 6*2, 7*2
    486  0286		       80		      .byte.b	DIRECT
    487  0287		       01 03 04 06	      .byte.b	MIRROR+0*2, MIRROR+1*2, 2*2, 3*2
    488  028b		       9f		      .byte.b	DIRECT+SM_PF0_BLUEr-SM_PF0_BLUEl	; works only if distances between PF= writes are identical!
    489  028c		       09 0b 0c 0e	      .byte.b	MIRROR+4*2, MIRROR+5*2, 6*2, 7*2
    483  028c					      REPEND
    484  0290							;	  .byte (8*2), MIRROR+0*2, MIRROR+1*2, 2*2, 3*2
    485  0290							;	  .byte (9*2), MIRROR+4*2, MIRROR+5*2, 6*2, 7*2
    486  0290		       80		      .byte.b	DIRECT
    487  0291		       01 03 04 06	      .byte.b	MIRROR+0*2, MIRROR+1*2, 2*2, 3*2
    488  0295		       9f		      .byte.b	DIRECT+SM_PF0_BLUEr-SM_PF0_BLUEl	; works only if distances between PF= writes are identical!
    489  0296		       09 0b 0c 0e	      .byte.b	MIRROR+4*2, MIRROR+5*2, 6*2, 7*2
    483  0296					      REPEND
    484  029a							;	  .byte (8*2), MIRROR+0*2, MIRROR+1*2, 2*2, 3*2
    485  029a							;	  .byte (9*2), MIRROR+4*2, MIRROR+5*2, 6*2, 7*2
    486  029a		       80		      .byte.b	DIRECT
    487  029b		       01 03 04 06	      .byte.b	MIRROR+0*2, MIRROR+1*2, 2*2, 3*2
    488  029f		       9f		      .byte.b	DIRECT+SM_PF0_BLUEr-SM_PF0_BLUEl	; works only if distances between PF= writes are identical!
    489  02a0		       09 0b 0c 0e	      .byte.b	MIRROR+4*2, MIRROR+5*2, 6*2, 7*2
    490  02a4					      REPEND
    491  02a4
    492  02a4							;------------------------------------------------------------------------------
    493  02a4
      0  02a4					      OPTIONAL_PAGEBREAK	"SCREEN_BITMAP", SCREEN_BITMAP_SIZE
 PAGE BREAK INSERTED FOR  SCREEN_BITMAP
 REQUESTED SIZE =  $60
 WASTED SPACE =  $5c
 PAGEBREAK LOCATION =  $f300
     10  0300					      LIST	ON
    495  0300
    496  0300		       00 00 00 00*ScreenBitmap ds	SCREEN_BITMAP_SIZE,0	; character bitmap row (10 chars wide)
    497  0300		       f3 00	   ScreenBitmapRED =	ScreenBitmap + LINES_PER_CHAR/3*0
    498  0300		       f3 08	   ScreenBitmapGREEN =	ScreenBitmap + LINES_PER_CHAR/3*1
    499  0300		       f3 10	   ScreenBitmapBLUE =	ScreenBitmap + LINES_PER_CHAR/3*2
    500  0360
      0  0360					      CHECKPAGEX	ScreenBitmap, "ScreenBitmap"
      9  0360					      LIST	ON
    502  0360
    503  0360
    504  0360							;--------------------------------------------------------------------------
    505  0360
      0  0360					      DEFINE_SUBROUTINE	SelfModDrawPlayers	; copied to ROW RAM BANKS
      1  0360		       00 00	   BANK_SelfModDrawPlayers =	_CURRENT_BANK
      2  0360					      SUBROUTINE
      3  0360				   SelfModDrawPlayers
    507  0360
    508  0360							; Now the player(s) have animated, update the appropriate shape pointers
    509  0360							; in the draw code.
    510  0360
    511  0360							; Sets the shapes to a blank player -- effectively erasing
    512  0360		       a5 b5		      lda	LastSpriteY
    513  0362		       a2 8a		      ldx	#<PLAYER_BLANK
    514  0364		       20 73 f3 	      jsr	SetSelfModPlayer
    515  0367
    516  0367							; Now we've erased, we write the new shape
    517  0367
    518  0367							;		  sec
    519  0367							;		  lda ManDrawX
    520  0367							;		  sbc BoardScrollX
    521  0367							;		  cmp #SCREEN_WIDTH			  ; disabled because we assume always onscreen
    522  0367							;		  bcs NoMod				  ; skip if off visible screen
    523  0367
    524  0367		       a5 a2		      lda	ManDrawX
    525  0369		       c9 0a		      cmp	#SCREEN_WIDTH	; disabled because we assume always onscreen
    526  036b		       b0 1c		      bcs	NoMod	; skip if off visible screen
    527  036d
    528  036d							;lda LookingAround
    529  036d							;bne NoMod
    530  036d
    531  036d		       a5 a3		      lda	ManDrawY
    532  036f		       85 b5		      sta	LastSpriteY
    533  0371
    534  0371		       a6 a8		      ldx	ManAnimationFrameLO
    535  0373
    536  0373				   SetSelfModPlayer
    537  0373		       c9 08		      cmp	#SCREEN_LINES	; only erase/draw if was/is onscreen
    538  0375		       b0 12		      bcs	NoMod
    539  0377		       69 00		      adc	#BANK_SCREENMARKII1
    540  0379		       85 3e		      sta	SET_BANK_RAM	; switch old/new bank in
    541  037b
    542  037b		       8a		      txa
    543  037c		       8d 20 f4 	      sta	SELFMOD_PLAYER0_RED+RAM_WRITE+1	; lo of frame
    544  037f		       69 08		      adc	#LINES_PER_CHAR/3
    545  0381		       8d 8a f4 	      sta	SELFMOD_PLAYER0_GREEN+RAM_WRITE+1
    546  0384		       69 08		      adc	#LINES_PER_CHAR/3
    547  0386		       8d 57 f4 	      sta	SELFMOD_PLAYER0_BLUE+RAM_WRITE+1
    548  0389
    549  0389		       60	   NoMod      rts
    550  038a
      0  038a					      CHECK_HALF_BANK_SIZE	"ROM_SHADOW_OF_RAMBANK_CODE (1K)"
      1  038a
      2  038a
      3  038a		       03 8a	   .TEMP      =	* - BANK_START
 ROM_SHADOW_OF_RAMBANK_CODE (1K) (1K) SIZE =  $38a , FREE= $76
      4  038a					      ECHO	"ROM_SHADOW_OF_RAMBANK_CODE (1K)", "(1K) SIZE = ", .TEMP, ", FREE=", ROM_BANK_SIZE/2 - .TEMP
      5  038a				  -	      if	( .TEMP ) > ROM_BANK_SIZE/2
      6  038a				  -	      ECHO	"HALF-BANK OVERFLOW @ ", * - ORIGIN
      7  038a				  -	      ERR
      8  038a					      endif
    552  038a
------- FILE player.asm LEVEL 3 PASS 4
      0  038a					      include	"player.asm"	; 6 * LINES_PER_CHAR	       MUST FOLLOW DIRT.ASM as data is shared
      1  038a							;    Sokoboo - a Sokoban implementation
      2  038a							;    using a generic tile-based display engine for the Atari 2600
      3  038a							;    Sokoban (倉庫番)™ is © Falcon Co., Ltd.
      4  038a							;
      5  038a							;    Code related to this Sokoban™ implementation was developed by Andrew Davie.
      6  038a							;
      7  038a							;    Code related to the generic tile-based display engine was developed by
      8  038a							;    Andrew Davie and Thomas Jentzsch during 2003-2011 and is
      9  038a							;    Copyright(C)2003-2019 Thomas Jentzsch and Andrew Davie - contacts details:
     10  038a							;    Andrew Davie (andrew@taswegian.com), Thomas Jentzsch (tjentzsch@yahoo.de).
     11  038a							;
     12  038a							;    Code related to music and sound effects uses the TIATracker music player
     13  038a							;    Copyright 2016 Andre "Kylearan" Wichmann - see source code in the "sound"
     14  038a							;    directory for Apache licensing details.
     15  038a							;
     16  038a							;    Some level data incorporated in this program were created by Lee J Haywood.
     17  038a							;    See the copyright notices in the License directory for a list of level
     18  038a							;    contributors.
     19  038a							;
     20  038a							;    Except where otherwise indicated, this software is released under the
     21  038a							;    following licensing arrangement...
     22  038a							;
     23  038a							;    This program is free software: you can redistribute it and/or modify
     24  038a							;    it under the terms of the GNU General Public License as published by
     25  038a							;    the Free Software Foundation, either version 3 of the License, or
     26  038a							;    (at your option) any later version.
     27  038a							;    see https://www.gnu.org/licenses/gpl-3.0.en.html
     28  038a
     29  038a							;    This program is distributed in the hope that it will be useful,
     30  038a							;    but WITHOUT ANY WARRANTY; without even the implied warranty of
     31  038a							;    MERCHANTABILITY or FITNESS FOR A PARTICULAR PURPOSE.  See the
     32  038a							;    GNU General Public License for more details.
     33  038a
     34  038a							;    OPTIONAL_PAGEBREAK "PLAYER", LINES_PER_CHAR * 6 - 1
     35  038a
     36  038a
     37  038a		       f3 8a	   PLAYER_BLANK =	.
     38  038a					      REPEAT	LINES_PER_CHAR	;-1  ; as we have a "0" in the line below
     39  038a		       00		      .byte.b	0
     38  038a					      REPEND
     39  038b		       00		      .byte.b	0
     38  038b					      REPEND
     39  038c		       00		      .byte.b	0
     38  038c					      REPEND
     39  038d		       00		      .byte.b	0
     38  038d					      REPEND
     39  038e		       00		      .byte.b	0
     38  038e					      REPEND
     39  038f		       00		      .byte.b	0
     38  038f					      REPEND
     39  0390		       00		      .byte.b	0
     38  0390					      REPEND
     39  0391		       00		      .byte.b	0
     38  0391					      REPEND
     39  0392		       00		      .byte.b	0
     38  0392					      REPEND
     39  0393		       00		      .byte.b	0
     38  0393					      REPEND
     39  0394		       00		      .byte.b	0
     38  0394					      REPEND
     39  0395		       00		      .byte.b	0
     38  0395					      REPEND
     39  0396		       00		      .byte.b	0
     38  0396					      REPEND
     39  0397		       00		      .byte.b	0
     38  0397					      REPEND
     39  0398		       00		      .byte.b	0
     38  0398					      REPEND
     39  0399		       00		      .byte.b	0
     38  0399					      REPEND
     39  039a		       00		      .byte.b	0
     38  039a					      REPEND
     39  039b		       00		      .byte.b	0
     38  039b					      REPEND
     39  039c		       00		      .byte.b	0
     38  039c					      REPEND
     39  039d		       00		      .byte.b	0
     38  039d					      REPEND
     39  039e		       00		      .byte.b	0
     38  039e					      REPEND
     39  039f		       00		      .byte.b	0
     38  039f					      REPEND
     39  03a0		       00		      .byte.b	0
     38  03a0					      REPEND
     39  03a1		       00		      .byte.b	0
     40  03a2					      REPEND
     41  03a2
     42  03a2				   PLAYER_RIGHT0
     43  03a2
     44  03a2					      if	1
     45  03a2		       18		      .byte.b	%00011000	;20
     46  03a3		       18		      .byte.b	%00011000	;20
     47  03a4		       7e		      .byte.b	%01111110	;20
     48  03a5		       7e		      .byte.b	%01111110	;20
     49  03a6		       7e		      .byte.b	%01111110	;20
     50  03a7		       18		      .byte.b	%00011000	;20
     51  03a8		       18		      .byte.b	%00011000	;20
     52  03a9		       00		      .byte.b	%00000000	;20
     53  03aa
     54  03aa		       18		      .byte.b	%00011000	;20
     55  03ab		       18		      .byte.b	%00011000	;20
     56  03ac		       7e		      .byte.b	%01111110	;20
     57  03ad		       7e		      .byte.b	%01111110	;20
     58  03ae		       7e		      .byte.b	%01111110	;20
     59  03af		       18		      .byte.b	%00011000	;20
     60  03b0		       18		      .byte.b	%00011000	;20
     61  03b1		       00		      .byte.b	%00000000	;20
     62  03b2
     63  03b2		       18		      .byte.b	%00011000	;20
     64  03b3		       18		      .byte.b	%00011000	;20
     65  03b4		       7e		      .byte.b	%01111110	;20
     66  03b5		       7e		      .byte.b	%01111110	;20
     67  03b6		       7e		      .byte.b	%01111110	;20
     68  03b7		       18		      .byte.b	%00011000	;20
     69  03b8		       18		      .byte.b	%00011000	;20
     70  03b9		       00		      .byte.b	%00000000	;20
     71  03ba
     72  03ba				  -	      else
     73  03ba				  -			;push
     74  03ba				  -	      .byte	#%01110000	;$1C 0
     75  03ba				  -	      .byte	#%01110000	;$78 3
     76  03ba				  -	      .byte	#%00010000	;$52 6
     77  03ba				  -	      .byte	#%00111100	;$52 9
     78  03ba				  -	      .byte	#%00011001	;$0C 12
     79  03ba				  -	      .byte	#%00001100	;$4A 15
     80  03ba				  -	      .byte	#%00001111	;$1A18
     81  03ba				  -
     82  03ba				  -	      .byte	#%10100000	;$1C 1
     83  03ba				  -	      .byte	#%00111000	;$78 4
     84  03ba				  -	      .byte	#%00111000	;$52 7
     85  03ba				  -	      .byte	#%00111100	;$56 10
     86  03ba				  -	      .byte	#%00001000	;$4A 13
     87  03ba				  -	      .byte	#%00001100	;$4A 16
     88  03ba				  -	      .byte	#%00001100	;$1C 19
     89  03ba				  -
     90  03ba				  -	      .byte	#%11010000	;$78 2
     91  03ba				  -	      .byte	#%00101000	;$78 5
     92  03ba				  -	      .byte	#%00111000	;$52 8
     93  03ba				  -	      .byte	#%00011111	;$56 11
     94  03ba				  -	      .byte	#%00001000	;$4A 14
     95  03ba				  -	      .byte	#%00011010	;$4A 17
     96  03ba				  -	      .byte	#%00001100	;$1C 20
     97  03ba				  -
     98  03ba					      endif
     99  03ba
    100  03ba				  -	      IF	0
    101  03ba				  -			;---Graphics Data from PlayerPal 2600---
    102  03ba				  -
    103  03ba				  -Frame0
    104  03ba				  -	      .byte	#%01110011	;$1C
    105  03ba				  -	      .byte	#%00100110	;$1C
    106  03ba				  -	      .byte	#%00110100	;$78
    107  03ba				  -	      .byte	#%00010100	;$78
    108  03ba				  -	      .byte	#%00011100	;$78
    109  03ba				  -	      .byte	#%00001000	;$78
    110  03ba				  -	      .byte	#%00010000	;$52
    111  03ba				  -	      .byte	#%00111000	;$52
    112  03ba				  -	      .byte	#%00111000	;$52
    113  03ba				  -	      .byte	#%10111000	;$52
    114  03ba				  -	      .byte	#%01111000	;$56
    115  03ba				  -	      .byte	#%00110000	;$56
    116  03ba				  -	      .byte	#%00111100	;$0C
    117  03ba				  -	      .byte	#%00110010	;$4A
    118  03ba				  -	      .byte	#%00010000	;$4A
    119  03ba				  -	      .byte	#%00011000	;$4A
    120  03ba				  -	      .byte	#%00011000	;$4A
    121  03ba				  -	      .byte	#%00110100	;$4A
    122  03ba				  -	      .byte	#%00011110	;$1A
    123  03ba				  -	      .byte	#%00011000	;$1C
    124  03ba				  -	      .byte	#%00011000	;$1C
    125  03ba				  -Frame1
    126  03ba				  -	      .byte	#%00110110	;$1C
    127  03ba				  -	      .byte	#%00100100	;$1C
    128  03ba				  -	      .byte	#%00010100	;$78
    129  03ba				  -	      .byte	#%00010100	;$78
    130  03ba				  -	      .byte	#%00011100	;$78
    131  03ba				  -	      .byte	#%00001000	;$78
    132  03ba				  -	      .byte	#%00010000	;$52
    133  03ba				  -	      .byte	#%00111000	;$52
    134  03ba				  -	      .byte	#%00011000	;$52
    135  03ba				  -	      .byte	#%01111000	;$52
    136  03ba				  -	      .byte	#%00111000	;$56
    137  03ba				  -	      .byte	#%00110110	;$56
    138  03ba				  -	      .byte	#%00111100	;$0C
    139  03ba				  -	      .byte	#%00010000	;$4A
    140  03ba				  -	      .byte	#%00010000	;$4A
    141  03ba				  -	      .byte	#%00011000	;$4A
    142  03ba				  -	      .byte	#%00011000	;$4A
    143  03ba				  -	      .byte	#%00110100	;$4A
    144  03ba				  -	      .byte	#%00011110	;$1A
    145  03ba				  -	      .byte	#%00011000	;$1C
    146  03ba				  -	      .byte	#%00011000	;$1C
    147  03ba				  -Frame2
    148  03ba				  -	      .byte	#%00011000	;$1C
    149  03ba				  -	      .byte	#%00110000	;$1C
    150  03ba				  -	      .byte	#%01010000	;$78
    151  03ba				  -	      .byte	#%00111000	;$78
    152  03ba				  -	      .byte	#%00011000	;$78
    153  03ba				  -	      .byte	#%00001000	;$78
    154  03ba				  -	      .byte	#%00010000	;$52
    155  03ba				  -	      .byte	#%00111000	;$52
    156  03ba				  -	      .byte	#%00111000	;$52
    157  03ba				  -	      .byte	#%00111100	;$52
    158  03ba				  -	      .byte	#%00110100	;$56
    159  03ba				  -	      .byte	#%00111100	;$56
    160  03ba				  -	      .byte	#%00111000	;$0C
    161  03ba				  -	      .byte	#%00010000	;$4A
    162  03ba				  -	      .byte	#%00010000	;$4A
    163  03ba				  -	      .byte	#%00011000	;$4A
    164  03ba				  -	      .byte	#%00011000	;$4A
    165  03ba				  -	      .byte	#%00110100	;$4A
    166  03ba				  -	      .byte	#%00011110	;$1A
    167  03ba				  -	      .byte	#%00011000	;$1C
    168  03ba				  -	      .byte	#%00011000	;$1C
    169  03ba				  -Frame3
    170  03ba				  -	      .byte	#%01110000	;$1C
    171  03ba				  -	      .byte	#%10100000	;$1C
    172  03ba				  -	      .byte	#%11010000	;$78
    173  03ba				  -	      .byte	#%01110000	;$78
    174  03ba				  -	      .byte	#%00111000	;$78
    175  03ba				  -	      .byte	#%00101000	;$78
    176  03ba				  -	      .byte	#%00010000	;$52
    177  03ba				  -	      .byte	#%00111000	;$52
    178  03ba				  -	      .byte	#%00111000	;$52
    179  03ba				  -	      .byte	#%00111100	;$52
    180  03ba				  -	      .byte	#%00111100	;$56
    181  03ba				  -	      .byte	#%00011111	;$56
    182  03ba				  -	      .byte	#%00011001	;$0C
    183  03ba				  -	      .byte	#%00001000	;$4A
    184  03ba				  -	      .byte	#%00001000	;$4A
    185  03ba				  -	      .byte	#%00001100	;$4A
    186  03ba				  -	      .byte	#%00001100	;$4A
    187  03ba				  -	      .byte	#%00011010	;$4A
    188  03ba				  -	      .byte	#%00001111	;$1A
    189  03ba				  -	      .byte	#%00001100	;$1C
    190  03ba				  -	      .byte	#%00001100	;$1C
    191  03ba				  -Frame4
    192  03ba				  -	      .byte	#%00110110	;$1C
    193  03ba				  -	      .byte	#%00010100	;$1C
    194  03ba				  -	      .byte	#%00010100	;$78
    195  03ba				  -	      .byte	#%00010100	;$78
    196  03ba				  -	      .byte	#%00011100	;$78
    197  03ba				  -	      .byte	#%00001100	;$78
    198  03ba				  -	      .byte	#%00010000	;$52
    199  03ba				  -	      .byte	#%00011000	;$52
    200  03ba				  -	      .byte	#%00011100	;$52
    201  03ba				  -	      .byte	#%00111100	;$52
    202  03ba				  -	      .byte	#%00111100	;$56
    203  03ba				  -	      .byte	#%00111100	;$56
    204  03ba				  -	      .byte	#%00111110	;$0C
    205  03ba				  -	      .byte	#%01011010	;$4A
    206  03ba				  -	      .byte	#%10010001	;$4A
    207  03ba				  -	      .byte	#%10011001	;$4A
    208  03ba				  -	      .byte	#%00011000	;$4A
    209  03ba				  -	      .byte	#%00011000	;$4A
    210  03ba				  -	      .byte	#%00011100	;$1A
    211  03ba				  -	      .byte	#%00011000	;$1C
    212  03ba				  -	      .byte	#%00010000	;$1C
    213  03ba				  -Frame5
    214  03ba				  -	      .byte	#%00110110	;$1C
    215  03ba				  -	      .byte	#%00010100	;$1C
    216  03ba				  -	      .byte	#%00010100	;$78
    217  03ba				  -	      .byte	#%00010100	;$78
    218  03ba				  -	      .byte	#%00011100	;$78
    219  03ba				  -	      .byte	#%01001101	;$78
    220  03ba				  -	      .byte	#%01010001	;$52
    221  03ba				  -	      .byte	#%01011011	;$52
    222  03ba				  -	      .byte	#%01011110	;$52
    223  03ba				  -	      .byte	#%00111100	;$52
    224  03ba				  -	      .byte	#%00111100	;$56
    225  03ba				  -	      .byte	#%00011100	;$56
    226  03ba				  -	      .byte	#%00011000	;$0C
    227  03ba				  -	      .byte	#%00011000	;$4A
    228  03ba				  -	      .byte	#%00011000	;$4A
    229  03ba				  -	      .byte	#%00111000	;$4A
    230  03ba				  -	      .byte	#%00001000	;$4A
    231  03ba				  -	      .byte	#%00000000	;$4A
    232  03ba				  -	      .byte	#%00000000	;$1A
    233  03ba				  -	      .byte	#%00000000	;$1C
    234  03ba				  -	      .byte	#%00000000	;$1C
    235  03ba				  -			;---End Graphics Data---
    236  03ba				  -
    237  03ba				  -
    238  03ba				  -			;---Color Data from PlayerPal 2600---
    239  03ba				  -
    240  03ba				  -ColorFrame0
    241  03ba				  -	      .byte	#$1C	;
    242  03ba				  -	      .byte	#$1C	;
    243  03ba				  -	      .byte	#$78	;
    244  03ba				  -	      .byte	#$78	;
    245  03ba				  -	      .byte	#$78	;
    246  03ba				  -	      .byte	#$78	;
    247  03ba				  -	      .byte	#$52	;
    248  03ba				  -	      .byte	#$52	;
    249  03ba				  -	      .byte	#$52	;
    250  03ba				  -	      .byte	#$52	;
    251  03ba				  -	      .byte	#$56	;
    252  03ba				  -	      .byte	#$56	;
    253  03ba				  -	      .byte	#$0C	;
    254  03ba				  -	      .byte	#$4A	;
    255  03ba				  -	      .byte	#$4A	;
    256  03ba				  -	      .byte	#$4A	;
    257  03ba				  -	      .byte	#$4A	;
    258  03ba				  -	      .byte	#$4A	;
    259  03ba				  -	      .byte	#$1A	;
    260  03ba				  -	      .byte	#$1C	;
    261  03ba				  -	      .byte	#$1C	;
    262  03ba				  -ColorFrame1
    263  03ba				  -	      .byte	#$1C	;
    264  03ba				  -	      .byte	#$1C	;
    265  03ba				  -	      .byte	#$78	;
    266  03ba				  -	      .byte	#$78	;
    267  03ba				  -	      .byte	#$78	;
    268  03ba				  -	      .byte	#$78	;
    269  03ba				  -	      .byte	#$52	;
    270  03ba				  -	      .byte	#$52	;
    271  03ba				  -	      .byte	#$52	;
    272  03ba				  -	      .byte	#$52	;
    273  03ba				  -	      .byte	#$56	;
    274  03ba				  -	      .byte	#$56	;
    275  03ba				  -	      .byte	#$0C	;
    276  03ba				  -	      .byte	#$4A	;
    277  03ba				  -	      .byte	#$4A	;
    278  03ba				  -	      .byte	#$4A	;
    279  03ba				  -	      .byte	#$4A	;
    280  03ba				  -	      .byte	#$4A	;
    281  03ba				  -	      .byte	#$1A	;
    282  03ba				  -	      .byte	#$1C	;
    283  03ba				  -	      .byte	#$1C	;
    284  03ba				  -ColorFrame2
    285  03ba				  -	      .byte	#$1C	;
    286  03ba				  -	      .byte	#$1C	;
    287  03ba				  -	      .byte	#$78	;
    288  03ba				  -	      .byte	#$78	;
    289  03ba				  -	      .byte	#$78	;
    290  03ba				  -	      .byte	#$78	;
    291  03ba				  -	      .byte	#$52	;
    292  03ba				  -	      .byte	#$52	;
    293  03ba				  -	      .byte	#$52	;
    294  03ba				  -	      .byte	#$52	;
    295  03ba				  -	      .byte	#$56	;
    296  03ba				  -	      .byte	#$56	;
    297  03ba				  -	      .byte	#$0C	;
    298  03ba				  -	      .byte	#$4A	;
    299  03ba				  -	      .byte	#$4A	;
    300  03ba				  -	      .byte	#$4A	;
    301  03ba				  -	      .byte	#$4A	;
    302  03ba				  -	      .byte	#$4A	;
    303  03ba				  -	      .byte	#$1A	;
    304  03ba				  -	      .byte	#$1C	;
    305  03ba				  -	      .byte	#$1C	;
    306  03ba				  -ColorFrame3
    307  03ba				  -	      .byte	#$1C	;
    308  03ba				  -	      .byte	#$1C	;
    309  03ba				  -	      .byte	#$78	;
    310  03ba				  -	      .byte	#$78	;
    311  03ba				  -	      .byte	#$78	;
    312  03ba				  -	      .byte	#$78	;
    313  03ba				  -	      .byte	#$52	;
    314  03ba				  -	      .byte	#$52	;
    315  03ba				  -	      .byte	#$52	;
    316  03ba				  -	      .byte	#$52	;
    317  03ba				  -	      .byte	#$56	;
    318  03ba				  -	      .byte	#$56	;
    319  03ba				  -	      .byte	#$0C	;
    320  03ba				  -	      .byte	#$4A	;
    321  03ba				  -	      .byte	#$4A	;
    322  03ba				  -	      .byte	#$4A	;
    323  03ba				  -	      .byte	#$4A	;
    324  03ba				  -	      .byte	#$4A	;
    325  03ba				  -	      .byte	#$1A	;
    326  03ba				  -	      .byte	#$1C	;
    327  03ba				  -	      .byte	#$1C	;
    328  03ba				  -ColorFrame4
    329  03ba				  -	      .byte	#$1C	;
    330  03ba				  -	      .byte	#$1C	;
    331  03ba				  -	      .byte	#$78	;
    332  03ba				  -	      .byte	#$78	;
    333  03ba				  -	      .byte	#$78	;
    334  03ba				  -	      .byte	#$78	;
    335  03ba				  -	      .byte	#$52	;
    336  03ba				  -	      .byte	#$52	;
    337  03ba				  -	      .byte	#$52	;
    338  03ba				  -	      .byte	#$52	;
    339  03ba				  -	      .byte	#$56	;
    340  03ba				  -	      .byte	#$56	;
    341  03ba				  -	      .byte	#$0C	;
    342  03ba				  -	      .byte	#$4A	;
    343  03ba				  -	      .byte	#$4A	;
    344  03ba				  -	      .byte	#$4A	;
    345  03ba				  -	      .byte	#$4A	;
    346  03ba				  -	      .byte	#$4A	;
    347  03ba				  -	      .byte	#$1A	;
    348  03ba				  -	      .byte	#$1C	;
    349  03ba				  -	      .byte	#$1C	;
    350  03ba				  -ColorFrame5
    351  03ba				  -	      .byte	#$1C	;
    352  03ba				  -	      .byte	#$1C	;
    353  03ba				  -	      .byte	#$78	;
    354  03ba				  -	      .byte	#$78	;
    355  03ba				  -	      .byte	#$78	;
    356  03ba				  -	      .byte	#$78	;
    357  03ba				  -	      .byte	#$52	;
    358  03ba				  -	      .byte	#$52	;
    359  03ba				  -	      .byte	#$52	;
    360  03ba				  -	      .byte	#$52	;
    361  03ba				  -	      .byte	#$56	;
    362  03ba				  -	      .byte	#$56	;
    363  03ba				  -	      .byte	#$0C	;
    364  03ba				  -	      .byte	#$4A	;
    365  03ba				  -	      .byte	#$4A	;
    366  03ba				  -	      .byte	#$4A	;
    367  03ba				  -	      .byte	#$4A	;
    368  03ba				  -	      .byte	#$4A	;
    369  03ba				  -	      .byte	#$1A	;
    370  03ba				  -	      .byte	#$1C	;
    371  03ba				  -	      .byte	#$1C	;
    372  03ba				  -			;---End Color Data---
    373  03ba					      ENDIF
    374  03ba
    375  03ba
    376  03ba							;.byte %00011000  ;  XXX   ; 0
    377  03ba							;.byte %00111100  ;XXXXXX  ; 1
    378  03ba							;.byte %01110100  ;XXXX X  ; 2 etc.
    379  03ba							;.byte %01111100  ;XXXXXX  ; 3
    380  03ba							;.byte %00111000  ;XXXXX   ;4
    381  03ba							;.byte %01111100  ; XXXXX  ;5
    382  03ba							;.byte %00111000  ;  XXX   ;6
    383  03ba							;.byte %11111000  ;XXXXX   ;7
    384  03ba							;.byte %11111100  ;XXXXXX  ;8
    385  03ba							;.byte %11111100  ;XXXXXX  ;9 etc.
    386  03ba							;.byte %10000100  ;X	 X  ;10
    387  03ba							;.byte %11111100  ;XXXXXX  ;11
    388  03ba							;.byte %00001100  ;	XX  ;12
    389  03ba							;.byte %01111100  ; XXXXX  ;13
    390  03ba							;.byte %01111100  ; XXXXX  ;14
    391  03ba							;.byte %01111000  ; XXXX   ;15
    392  03ba							;.byte %01111000  ; XXXX   ;16 etc.
    393  03ba							;.byte %11111000  ;XXXXX   ;17
    394  03ba							;.byte %11101100  ;XXX XX  ;18
    395  03ba							;.byte %10111100  ;X XXXX  ;19
    396  03ba							;.byte %11001100  ;XX	XX   20
    397  03ba
    398  03ba							;---Graphics Data from PlayerPal 2600---
    399  03ba
    400  03ba				   PLAYER_RIGHT1
    401  03ba				   PLAYER_STAND
    402  03ba				   PLAYER_BLINK
    403  03ba				   PLAYER_TAP0
    404  03ba				   PLAYER_TAP1
------- FILE BANK_ROM_SHADOW_RAMBANK.asm
    554  03ba
    555  03ba							;------------------------------------------------------------------------------
    556  03ba
    557  03ba							;ECHO "TOTAL ROW-BANK CODE REQUIREMENT = ", * - BANK_START
    558  03ba
    559  03ba							;------------------------------------------------------------------------------
    560  03ba
    561  03ba
    562  03ba
    563  03ba
    564  03ba				   OBJTYPE    SET	0
    565  03ba					      MAC	define_character
    566  03ba				   CHARACTER_{1} =	OBJTYPE
    567  03ba				   OBJTYPE    .SET	OBJTYPE + 1
    568  03ba					      ENDM
    569  03ba
    570  03ba							; Modifications to character #/order must also ensure the following are correct...
    571  03ba							;   CharacterDataVecLO/HI	   in this file
    572  03ba							;   MoveVecLO/HI		   in BANK_INITBANK
    573  03ba							;   CharReplacement		   in BANK_ROM_SHADOW_DRAWBUFFERS
    574  03ba
      0  03ba					      DEFINE_CHARACTER	BLANK
      1  03ba		       00 00	   CHARACTER_BLANK =	OBJTYPE
      2  03ba				   OBJTYPE    .SET	OBJTYPE + 1
      0  03ba					      DEFINE_CHARACTER	SOIL
      1  03ba		       00 01	   CHARACTER_SOIL =	OBJTYPE
      2  03ba				   OBJTYPE    .SET	OBJTYPE + 1
      0  03ba					      DEFINE_CHARACTER	BOX
      1  03ba		       00 02	   CHARACTER_BOX =	OBJTYPE
      2  03ba				   OBJTYPE    .SET	OBJTYPE + 1
      0  03ba					      DEFINE_CHARACTER	TARGET
      1  03ba		       00 03	   CHARACTER_TARGET =	OBJTYPE
      2  03ba				   OBJTYPE    .SET	OBJTYPE + 1
      0  03ba					      DEFINE_CHARACTER	TARGET2
      1  03ba		       00 04	   CHARACTER_TARGET2 =	OBJTYPE
      2  03ba				   OBJTYPE    .SET	OBJTYPE + 1
      0  03ba					      DEFINE_CHARACTER	MANOCCUPIED
      1  03ba		       00 05	   CHARACTER_MANOCCUPIED =	OBJTYPE
      2  03ba				   OBJTYPE    .SET	OBJTYPE + 1
      0  03ba					      DEFINE_CHARACTER	STEEL
      1  03ba		       00 06	   CHARACTER_STEEL =	OBJTYPE
      2  03ba				   OBJTYPE    .SET	OBJTYPE + 1
      0  03ba					      DEFINE_CHARACTER	WALL
      1  03ba		       00 07	   CHARACTER_WALL =	OBJTYPE
      2  03ba				   OBJTYPE    .SET	OBJTYPE + 1
      0  03ba					      DEFINE_CHARACTER	BOX_ON_TARGET
      1  03ba		       00 08	   CHARACTER_BOX_ON_TARGET =	OBJTYPE
      2  03ba				   OBJTYPE    .SET	OBJTYPE + 1
      0  03ba					      DEFINE_CHARACTER	NOGO
      1  03ba		       00 09	   CHARACTER_NOGO =	OBJTYPE
      2  03ba				   OBJTYPE    .SET	OBJTYPE + 1
    585  03ba
    586  03ba				  -	      if	DIGITS
    587  03ba				  -	      DEFINE_CHARACTER	0
    588  03ba				  -	      DEFINE_CHARACTER	1
    589  03ba				  -	      DEFINE_CHARACTER	2
    590  03ba				  -	      DEFINE_CHARACTER	3
    591  03ba				  -	      DEFINE_CHARACTER	4
    592  03ba				  -	      DEFINE_CHARACTER	5
    593  03ba				  -	      DEFINE_CHARACTER	6
    594  03ba				  -	      DEFINE_CHARACTER	7
    595  03ba				  -	      DEFINE_CHARACTER	8
    596  03ba				  -	      DEFINE_CHARACTER	9
    597  03ba					      endif
    598  03ba
    599  03ba				  -	      if	TROPHY
    600  03ba				  -
    601  03ba				  -	      DEFINE_CHARACTER	TROPHY_0_0
    602  03ba				  -	      DEFINE_CHARACTER	TROPHY_1_0
    603  03ba				  -	      DEFINE_CHARACTER	TROPHY_2_0
    604  03ba				  -	      DEFINE_CHARACTER	TROPHY_3_0
    605  03ba				  -
    606  03ba				  -	      DEFINE_CHARACTER	TROPHY_0_1
    607  03ba				  -	      DEFINE_CHARACTER	TROPHY_1_1
    608  03ba				  -	      DEFINE_CHARACTER	TROPHY_2_1
    609  03ba				  -	      DEFINE_CHARACTER	TROPHY_3_1
    610  03ba				  -
    611  03ba				  -	      DEFINE_CHARACTER	TROPHY_0_2
    612  03ba				  -	      DEFINE_CHARACTER	TROPHY_1_2
    613  03ba				  -	      DEFINE_CHARACTER	TROPHY_2_2
    614  03ba				  -	      DEFINE_CHARACTER	TROPHY_3_2
    615  03ba				  -
    616  03ba				  -	      DEFINE_CHARACTER	TROPHY_0_3
    617  03ba				  -	      DEFINE_CHARACTER	TROPHY_1_3
    618  03ba				  -	      DEFINE_CHARACTER	TROPHY_2_3
    619  03ba				  -	      DEFINE_CHARACTER	TROPHY_3_3
    620  03ba				  -
    621  03ba				  -	      DEFINE_CHARACTER	TROPHY_0_4
    622  03ba				  -	      DEFINE_CHARACTER	TROPHY_1_4
    623  03ba				  -	      DEFINE_CHARACTER	TROPHY_2_4
    624  03ba				  -	      DEFINE_CHARACTER	TROPHY_3_4
    625  03ba					      endif
    626  03ba
      0  03ba					      DEFINE_CHARACTER	MAXIMUM
      1  03ba		       00 0a	   CHARACTER_MAXIMUM =	OBJTYPE
      2  03ba				   OBJTYPE    .SET	OBJTYPE + 1
    628  03ba
    629  03ba
    630  03ba				   CharacterDataVecLO
    631  03ba
    632  03ba							; Two entries per character.  2nd is ptr to mirrored character
    633  03ba							; Characters don't have to be mirrored, obviously -- use the same pointer for both!
    634  03ba
    635  03ba		       8a		      .byte.b	<CHARACTERSHAPE_BLANK
    636  03bb		       8a		      .byte.b	<CHARACTERSHAPE_BLANK
    637  03bc		       e5		      .byte.b	<CHARACTERSHAPE_SOIL
    638  03bd		       e5		      .byte.b	<CHARACTERSHAPE_SOIL_MIRRORED
    639  03be		       00		      .byte.b	<CHARACTERSHAPE_BOX
    640  03bf		       18		      .byte.b	<CHARACTERSHAPE_BOX_MIRRORED
    641  03c0		       9d		      .byte.b	<CHARACTERSHAPE_TARGET
    642  03c1		       9d		      .byte.b	<CHARACTERSHAPE_TARGET_MIRRORED
    643  03c2		       8a		      .byte.b	<CHARACTERSHAPE_BLANK
    644  03c3		       8a		      .byte.b	<CHARACTERSHAPE_BLANK
    645  03c4		       8a		      .byte.b	<CHARACTERSHAPE_BLANK	; man occupied
    646  03c5		       8a		      .byte.b	<CHARACTERSHAPE_BLANK
    647  03c6		       b5		      .byte.b	<CHARACTERSHAPE_STEEL
    648  03c7		       cd		      .byte.b	<CHARACTERSHAPE_STEEL_MIRRORED
    649  03c8		       60		      .byte.b	<CHARACTERSHAPE_WALL
    650  03c9		       78		      .byte.b	<CHARACTERSHAPE_WALL_MIRRORED
    651  03ca		       30		      .byte.b	<CHARACTERSHAPE_BOX_ON_TARGET
    652  03cb		       48		      .byte.b	<CHARACTERSHAPE_BOX_ON_TARGET_MIRRORED
    653  03cc		       8a		      .byte.b	<CHARACTERSHAPE_BLANK	; unkillable man
    654  03cd		       8a		      .byte.b	<CHARACTERSHAPE_BLANK	; unkillable man
    655  03ce
    656  03ce				  -	      if	DIGITS
    657  03ce				  -	      .byte	<CHARACTERSHAPE_0, <CHARACTERSHAPE_0_MIRRORED
    658  03ce				  -	      .byte	<CHARACTERSHAPE_1, <CHARACTERSHAPE_1_MIRRORED
    659  03ce				  -	      .byte	<CHARACTERSHAPE_2, <CHARACTERSHAPE_2_MIRRORED
    660  03ce				  -	      .byte	<CHARACTERSHAPE_3, <CHARACTERSHAPE_3_MIRRORED
    661  03ce				  -	      .byte	<CHARACTERSHAPE_4, <CHARACTERSHAPE_4_MIRRORED
    662  03ce				  -	      .byte	<CHARACTERSHAPE_5, <CHARACTERSHAPE_5_MIRRORED
    663  03ce				  -	      .byte	<CHARACTERSHAPE_6, <CHARACTERSHAPE_6_MIRRORED
    664  03ce				  -	      .byte	<CHARACTERSHAPE_7, <CHARACTERSHAPE_7_MIRRORED
    665  03ce				  -	      .byte	<CHARACTERSHAPE_8, <CHARACTERSHAPE_8_MIRRORED
    666  03ce				  -	      .byte	<CHARACTERSHAPE_9, <CHARACTERSHAPE_9_MIRRORED
    667  03ce					      endif
    668  03ce
    669  03ce				  -	      if	TROPHY
    670  03ce				  -	      .byte	<CHARACTERSHAPE_TROPHY_0_0, <CHARACTERSHAPE_TROPHY_0_0
    671  03ce				  -	      .byte	<CHARACTERSHAPE_TROPHY_1_0, <CHARACTERSHAPE_TROPHY_1_0
    672  03ce				  -	      .byte	<CHARACTERSHAPE_TROPHY_2_0, <CHARACTERSHAPE_TROPHY_2_0
    673  03ce				  -	      .byte	<CHARACTERSHAPE_TROPHY_3_0, <CHARACTERSHAPE_TROPHY_3_0
    674  03ce				  -
    675  03ce				  -	      .byte	<CHARACTERSHAPE_TROPHY_0_1, <CHARACTERSHAPE_TROPHY_0_1
    676  03ce				  -	      .byte	<CHARACTERSHAPE_TROPHY_1_1, <CHARACTERSHAPE_TROPHY_1_1
    677  03ce				  -	      .byte	<CHARACTERSHAPE_TROPHY_2_1, <CHARACTERSHAPE_TROPHY_2_1
    678  03ce				  -	      .byte	<CHARACTERSHAPE_TROPHY_3_1, <CHARACTERSHAPE_TROPHY_3_1
    679  03ce				  -
    680  03ce				  -	      .byte	<CHARACTERSHAPE_TROPHY_0_2, <CHARACTERSHAPE_TROPHY_0_2
    681  03ce				  -	      .byte	<CHARACTERSHAPE_TROPHY_1_2, <CHARACTERSHAPE_TROPHY_1_2
    682  03ce				  -	      .byte	<CHARACTERSHAPE_TROPHY_2_2, <CHARACTERSHAPE_TROPHY_2_2
    683  03ce				  -	      .byte	<CHARACTERSHAPE_TROPHY_3_2, <CHARACTERSHAPE_TROPHY_3_2
    684  03ce				  -
    685  03ce				  -	      .byte	<CHARACTERSHAPE_TROPHY_0_3, <CHARACTERSHAPE_TROPHY_0_3
    686  03ce				  -	      .byte	<CHARACTERSHAPE_TROPHY_1_3, <CHARACTERSHAPE_TROPHY_1_3
    687  03ce				  -	      .byte	<CHARACTERSHAPE_TROPHY_2_3, <CHARACTERSHAPE_TROPHY_2_3
    688  03ce				  -	      .byte	<CHARACTERSHAPE_TROPHY_3_3, <CHARACTERSHAPE_TROPHY_3_3
    689  03ce				  -
    690  03ce				  -	      .byte	<CHARACTERSHAPE_TROPHY_0_4, <CHARACTERSHAPE_TROPHY_0_4
    691  03ce				  -	      .byte	<CHARACTERSHAPE_TROPHY_1_4, <CHARACTERSHAPE_TROPHY_1_4
    692  03ce				  -	      .byte	<CHARACTERSHAPE_TROPHY_2_4, <CHARACTERSHAPE_TROPHY_2_4
    693  03ce				  -	      .byte	<CHARACTERSHAPE_TROPHY_3_4, <CHARACTERSHAPE_TROPHY_3_4
    694  03ce					      endif
    695  03ce
    696  03ce				  -	      IF	* - CharacterDataVecLO != CHARACTER_MAXIMUM*2
    697  03ce				  -	      ECHO	"ERROR: Incorrect CharacterDataVecLO table!"
    698  03ce				  -	      ERR
    699  03ce					      ENDIF
    700  03ce
    701  03ce
    702  03ce							;ds 20,0
    703  03ce
    704  03ce							;---------------------------------------------------------------------------
    705  03ce
    706  03ce				   CharacterDataVecHI
    707  03ce
    708  03ce		       f3		      .byte.b	>CHARACTERSHAPE_BLANK
    709  03cf		       f3		      .byte.b	>CHARACTERSHAPE_BLANK
    710  03d0		       fe		      .byte.b	>CHARACTERSHAPE_SOIL
    711  03d1		       fe		      .byte.b	>CHARACTERSHAPE_SOIL_MIRRORED
    712  03d2		       ff		      .byte.b	>CHARACTERSHAPE_BOX
    713  03d3		       ff		      .byte.b	>CHARACTERSHAPE_BOX_MIRRORED
    714  03d4		       fe		      .byte.b	>CHARACTERSHAPE_TARGET
    715  03d5		       fe		      .byte.b	>CHARACTERSHAPE_TARGET_MIRRORED
    716  03d6		       f3		      .byte.b	>CHARACTERSHAPE_BLANK
    717  03d7		       f3		      .byte.b	>CHARACTERSHAPE_BLANK
    718  03d8		       f3		      .byte.b	>CHARACTERSHAPE_BLANK	; man occupied
    719  03d9		       f3		      .byte.b	>CHARACTERSHAPE_BLANK
    720  03da		       fe		      .byte.b	>CHARACTERSHAPE_STEEL
    721  03db		       fe		      .byte.b	>CHARACTERSHAPE_STEEL_MIRRORED
    722  03dc		       ff		      .byte.b	>CHARACTERSHAPE_WALL
    723  03dd		       ff		      .byte.b	>CHARACTERSHAPE_WALL_MIRRORED
    724  03de		       ff		      .byte.b	>CHARACTERSHAPE_BOX_ON_TARGET
    725  03df		       ff		      .byte.b	>CHARACTERSHAPE_BOX_ON_TARGET_MIRRORED
    726  03e0		       f3		      .byte.b	>CHARACTERSHAPE_BLANK	; unkillable man
    727  03e1		       f3		      .byte.b	>CHARACTERSHAPE_BLANK	; unkillable man
    728  03e2
    729  03e2				  -	      if	DIGITS
    730  03e2				  -	      .byte	>CHARACTERSHAPE_0, >CHARACTERSHAPE_0_MIRRORED
    731  03e2				  -	      .byte	>CHARACTERSHAPE_1, >CHARACTERSHAPE_1_MIRRORED
    732  03e2				  -	      .byte	>CHARACTERSHAPE_2, >CHARACTERSHAPE_2_MIRRORED
    733  03e2				  -	      .byte	>CHARACTERSHAPE_3, >CHARACTERSHAPE_3_MIRRORED
    734  03e2				  -	      .byte	>CHARACTERSHAPE_4, >CHARACTERSHAPE_4_MIRRORED
    735  03e2				  -	      .byte	>CHARACTERSHAPE_5, >CHARACTERSHAPE_5_MIRRORED
    736  03e2				  -	      .byte	>CHARACTERSHAPE_6, >CHARACTERSHAPE_6_MIRRORED
    737  03e2				  -	      .byte	>CHARACTERSHAPE_7, >CHARACTERSHAPE_7_MIRRORED
    738  03e2				  -	      .byte	>CHARACTERSHAPE_8, >CHARACTERSHAPE_8_MIRRORED
    739  03e2				  -	      .byte	>CHARACTERSHAPE_9, >CHARACTERSHAPE_9_MIRRORED
    740  03e2					      endif
    741  03e2
    742  03e2				  -	      if	TROPHY
    743  03e2				  -	      .byte	>CHARACTERSHAPE_TROPHY_0_0, >CHARACTERSHAPE_TROPHY_0_0
    744  03e2				  -	      .byte	>CHARACTERSHAPE_TROPHY_1_0, >CHARACTERSHAPE_TROPHY_1_0
    745  03e2				  -	      .byte	>CHARACTERSHAPE_TROPHY_2_0, >CHARACTERSHAPE_TROPHY_2_0
    746  03e2				  -	      .byte	>CHARACTERSHAPE_TROPHY_3_0, >CHARACTERSHAPE_TROPHY_3_0
    747  03e2				  -
    748  03e2				  -	      .byte	>CHARACTERSHAPE_TROPHY_0_1, >CHARACTERSHAPE_TROPHY_0_1
    749  03e2				  -	      .byte	>CHARACTERSHAPE_TROPHY_1_1, >CHARACTERSHAPE_TROPHY_1_1
    750  03e2				  -	      .byte	>CHARACTERSHAPE_TROPHY_2_1, >CHARACTERSHAPE_TROPHY_2_1
    751  03e2				  -	      .byte	>CHARACTERSHAPE_TROPHY_3_1, >CHARACTERSHAPE_TROPHY_3_1
    752  03e2				  -
    753  03e2				  -	      .byte	>CHARACTERSHAPE_TROPHY_0_2, >CHARACTERSHAPE_TROPHY_0_2
    754  03e2				  -	      .byte	>CHARACTERSHAPE_TROPHY_1_2, >CHARACTERSHAPE_TROPHY_1_2
    755  03e2				  -	      .byte	>CHARACTERSHAPE_TROPHY_2_2, >CHARACTERSHAPE_TROPHY_2_2
    756  03e2				  -	      .byte	>CHARACTERSHAPE_TROPHY_3_2, >CHARACTERSHAPE_TROPHY_3_2
    757  03e2				  -
    758  03e2				  -	      .byte	>CHARACTERSHAPE_TROPHY_0_3, >CHARACTERSHAPE_TROPHY_0_3
    759  03e2				  -	      .byte	>CHARACTERSHAPE_TROPHY_1_3, >CHARACTERSHAPE_TROPHY_1_3
    760  03e2				  -	      .byte	>CHARACTERSHAPE_TROPHY_2_3, >CHARACTERSHAPE_TROPHY_2_3
    761  03e2				  -	      .byte	>CHARACTERSHAPE_TROPHY_3_3, >CHARACTERSHAPE_TROPHY_3_3
    762  03e2				  -
    763  03e2				  -	      .byte	>CHARACTERSHAPE_TROPHY_0_4, >CHARACTERSHAPE_TROPHY_0_4
    764  03e2				  -	      .byte	>CHARACTERSHAPE_TROPHY_1_4, >CHARACTERSHAPE_TROPHY_1_4
    765  03e2				  -	      .byte	>CHARACTERSHAPE_TROPHY_2_4, >CHARACTERSHAPE_TROPHY_2_4
    766  03e2				  -	      .byte	>CHARACTERSHAPE_TROPHY_3_4, >CHARACTERSHAPE_TROPHY_3_4
    767  03e2					      endif
    768  03e2
    769  03e2
    770  03e2				  -	      IF	* - CharacterDataVecHI != CHARACTER_MAXIMUM*2
    771  03e2				  -	      ECHO	"ERROR: Incorrect CharacterDataVecHI table!"
    772  03e2				  -	      ERR
    773  03e2					      ENDIF
    774  03e2
    775  03e2
    776  03e2
    777  03e2							; Here there's another 1K of usable ROM....
    778  03e2							; BUT!!! WE CAN'T HAVE ANYTHING REQUIRED IN THE ROM_SHADOW (IN RAM) IN THIS HALF
    779  03e2
    780  03e2							;--------------------------------------------------------------------------
    781  03e2							;    CHARACTER_SET
    782  03e2
      0  03e2					      CHECK_HALF_BANK_SIZE	"ROM_SHADOW_OF_RAMBANK_CODE -- 1K"
      1  03e2
      2  03e2
      3  03e2		       03 e2	   .TEMP      =	* - BANK_START
 ROM_SHADOW_OF_RAMBANK_CODE -- 1K (1K) SIZE =  $3e2 , FREE= $1e
      4  03e2					      ECHO	"ROM_SHADOW_OF_RAMBANK_CODE -- 1K", "(1K) SIZE = ", .TEMP, ", FREE=", ROM_BANK_SIZE/2 - .TEMP
      5  03e2				  -	      if	( .TEMP ) > ROM_BANK_SIZE/2
      6  03e2				  -	      ECHO	"HALF-BANK OVERFLOW @ ", * - ORIGIN
      7  03e2				  -	      ERR
      8  03e2					      endif
    784  03e2
    785  03e2
    786  03e2
    787  03e2							; Anything here is ONLY accessible if the bank is switched in as a ROM bank
    788  03e2
    789  03e2
      0  03e2					      CHECK_BANK_SIZE	"ROM_SHADOW_OF_RAMBANK_CODE -- full 2K"
      1  03e2		       03 e2	   .TEMP      =	* - BANK_START
 ROM_SHADOW_OF_RAMBANK_CODE -- full 2K (2K) SIZE =  $3e2 , FREE= $41e
      2  03e2					      ECHO	"ROM_SHADOW_OF_RAMBANK_CODE -- full 2K", "(2K) SIZE = ", .TEMP, ", FREE=", ROM_BANK_SIZE - .TEMP
      3  03e2				  -	      if	( .TEMP ) > ROM_BANK_SIZE
      4  03e2				  -	      ECHO	"BANK OVERFLOW @ ", * - ORIGIN
      5  03e2				  -	      ERR
      6  03e2					      endif
------- FILE ./sokoboo.asm
------- FILE BANK_ROM_SHADOW_DRAWBUFFERS.asm LEVEL 2 PASS 4
      0  03e2					      include	"BANK_ROM_SHADOW_DRAWBUFFERS.asm"
      1  03e2							;    Sokoboo - a Sokoban implementation
      2  03e2							;    using a generic tile-based display engine for the Atari 2600
      3  03e2							;    Sokoban (倉庫番)™ is © Falcon Co., Ltd.
      4  03e2							;
      5  03e2							;    Code related to this Sokoban™ implementation was developed by Andrew Davie.
      6  03e2							;
      7  03e2							;    Code related to the generic tile-based display engine was developed by
      8  03e2							;    Andrew Davie and Thomas Jentzsch during 2003-2011 and is
      9  03e2							;    Copyright(C)2003-2019 Thomas Jentzsch and Andrew Davie - contacts details:
     10  03e2							;    Andrew Davie (andrew@taswegian.com), Thomas Jentzsch (tjentzsch@yahoo.de).
     11  03e2							;
     12  03e2							;    Code related to music and sound effects uses the TIATracker music player
     13  03e2							;    Copyright 2016 Andre "Kylearan" Wichmann - see source code in the "sound"
     14  03e2							;    directory for Apache licensing details.
     15  03e2							;
     16  03e2							;    Some level data incorporated in this program were created by Lee J Haywood.
     17  03e2							;    See the copyright notices in the License directory for a list of level
     18  03e2							;    contributors.
     19  03e2							;
     20  03e2							;    Except where otherwise indicated, this software is released under the
     21  03e2							;    following licensing arrangement...
     22  03e2							;
     23  03e2							;    This program is free software: you can redistribute it and/or modify
     24  03e2							;    it under the terms of the GNU General Public License as published by
     25  03e2							;    the Free Software Foundation, either version 3 of the License, or
     26  03e2							;    (at your option) any later version.
     27  03e2							;    see https://www.gnu.org/licenses/gpl-3.0.en.html
     28  03e2
     29  03e2							;    This program is distributed in the hope that it will be useful,
     30  03e2							;    but WITHOUT ANY WARRANTY; without even the implied warranty of
     31  03e2							;    MERCHANTABILITY or FITNESS FOR A PARTICULAR PURPOSE.  See the
     32  03e2							;    GNU General Public License for more details.
     33  03e2
     34  03e2							;------------------------------------------------------------------------------
     35  03e2							;##############################################################################
     36  03e2							;------------------------------------------------------------------------------
     37  03e2
      0  03e2					      NEWBANK	ROM_SHADOW_OF_BANK_DRAW_BUFFERS
      1  0a50 ????				      SEG	ROM_SHADOW_OF_BANK_DRAW_BUFFERS
      2  0800					      ORG	ORIGIN
      3  0800					      RORG	$F000
      4  0800				   BANK_START SET	*
      5  0800				   ROM_SHADOW_OF_BANK_DRAW_BUFFERS SET	ORIGIN / 2048
      6  0800				   ORIGIN     SET	ORIGIN + 2048
      7  0800				   _CURRENT_BANK SET	ROM_SHADOW_OF_BANK_DRAW_BUFFERS
     39  0800
     40  0800							; NOTE: Access to these buffers must NOT overlap pages...
     41  0800							; NOTE: We get auto-initialisation of these variables from the ROM values by
     42  0800							; copying the whole bank into the RAM bank.  Neato.
     43  0800
     44  0800		       00 50	   DRAW_STACK_SIZE =	SCREEN_ARRAY_SIZE	; <-- TJ TRY CHANGING THIS TO (SAY) 15  (!!)
     45  0800
     46  0800
     47  0800
     48  0800		       00 00 00 00*DrawStack  ds	DRAW_STACK_SIZE,0	; a stack of character #'s to draw
     49  0850		       00 00 00 00*DrawFlag   ds	SCREEN_ARRAY_SIZE,0	; holds new character to draw at position
     50  08a0
      0  08a0					      OPTIONAL_PAGEBREAK	"ScreenBuffer", SCREEN_ARRAY_SIZE
     10  08a0					      LIST	ON
     52  08a0
     53  08a0							; D7 of ScreenBuffer indicates if a DirectDraw is to be used to draw this character
     54  08a0							; Note: this may actually cause two characters to be drawn -- for the price of one.  This is *exactly*
     55  08a0							; what we want to happen!
     56  08a0
     57  08a0		       00 00 00 00*ScreenBuffer ds	SCREEN_ARRAY_SIZE,0	; the char buffer for delta-drawing
     58  08f0
     59  08f0
     60  08f0							;------------------------------------------------------------------------------
     61  08f0							; RAM-BASED SUBROUTINES...
     62  08f0							; NOTE: When calling these routines, remember you are actually calling the ROM routine
     63  08f0							; as it is the ROM bank that is switched in.  The first thing to do to access the RAM
     64  08f0							; is to switch the appropriate RAM bank in.  It would be nicer to be able to direct-call
     65  08f0							; the RAM-based routine.
     66  08f0
     67  08f0
     68  08f0
     69  08f0							;------------------------------------------------------------------------------
     70  08f0
     71  08f0
     72  08f0		       60	   waitForDraw rts		; 6
     73  08f1
     74  08f1							;------------------------------------------------------------------------------
     75  08f1
      0  08f1					      DEFINE_SUBROUTINE	DrawStackUpdate	;=196 (+13 for fall-through bit)
      1  08f1		       00 01	   BANK_DrawStackUpdate =	_CURRENT_BANK
      2  08f1					      SUBROUTINE
      3  08f1				   DrawStackUpdate
     77  08f1
     78  08f1							; Parse the DrawFlags buffer and create a draw stack
     79  08f1							; so that the actual draw doesn't need to scan for characters to draw.
     80  08f1
     81  08f1
     82  08f1							;@TJ -- let's see if we see any bad lag/shear in screen drawing without this wait in.
     83  08f1							; symptoms would be missing parts of screen when scrolling.
     84  08f1							; Gameplay (not visual) lag noticed - re-enabled 11/8/11
     85  08f1							; disabled for sokoban 27/7/2019
     86  08f1
     87  08f1							;lda DrawStackPointer
     88  08f1							;bpl waitForDraw		  ; Wait for previously not-drawn characters to be drawn
     89  08f1
     90  08f1		       ad 84 02 	      lda	INTIM	;4
     91  08f4		       c9 02		      cmp	#SEGTIME_BDS	;2
     92  08f6		       90 f8		      bcc	waitForDraw	;2/3
      0  08f8					      STRESS_TIME	SEGTIME_BDS
      1  08f8				  -	      IF	TEST_SEGTIME_BDS = 1
      2  08f8				  -
      3  08f8				  -
      4  08f8				  -
      5  08f8				  -
      6  08f8				  -
      7  08f8				  -	      echo	"***** WARNING! STRESS_TIME enabled @", ., "! *****"
      8  08f8				  -	      bne	. - 7
      9  08f8					      ENDIF
     94  08f8
     95  08f8
     96  08f8							; Now that all characters are drawn, recalculate/move sprite. Doing this here prevents the player
     97  08f8							; moving into the middle of dirt, or BOXs when pushing, or TARGETs when grabbing.
     98  08f8
     99  08f8							;		  sec		 already set
    100  08f8		       a5 a1		      lda	ManY	;3
    101  08fa		       e5 9b		      sbc	BoardScrollY	;3
    102  08fc		       85 a3		      sta	ManDrawY	;3
    103  08fe
    104  08fe		       38		      sec		;2
    105  08ff		       a5 a0		      lda	ManX	;3
    106  0901		       e5 9c		      sbc	BoardScrollX	;3
    107  0903		       c9 0a		      cmp	#SCREEN_WIDTH	;2
    108  0905		       90 06		      bcc	onsc	;2/3
    109  0907
    110  0907							; if the man is offscreen, we have a timing issue between the horizontal positioning code and the player
    111  0907							; draw code.  The following gets around this by setting the Y offscreen (causing the player draw code to
    112  0907							; blank the graphic) and leaving the X alone (so we don't see a brief flash in left of screen).
    113  0907
    114  0907		       a9 08		      lda	#SCREEN_LINES	;2
    115  0909		       85 a3		      sta	ManDrawY	;3
    116  090b		       d0 02		      bne	skipsc	;3		  unconditional
    117  090d
    118  090d		       85 a2	   onsc       sta	ManDrawX	;3
    119  090f				   skipsc
    120  090f
    121  090f		       e6 b6		      inc	timer	;5
    122  0911		       20 d7 f1 	      jsr	AnimateCharReplacements2	;3+28
    123  0914
    124  0914		       e6 89		      inc	ScreenDrawPhase	;5
    125  0916
    126  0916		       a9 4f		      lda	#SCREEN_ARRAY_SIZE-1	;2
    127  0918		       85 d4		      sta	DSL	;3
    128  091a
    129  091a							; fall through...
    130  091a							;---------------------------------------------------------------------------
    131  091a
      0  091a					      DEFINE_SUBROUTINE	DrawIntoStack
      1  091a		       00 01	   BANK_DrawIntoStack =	_CURRENT_BANK
      2  091a					      SUBROUTINE
      3  091a				   DrawIntoStack
    133  091a
    134  091a		       ba		      tsx		;2
    135  091b		       86 e1		      stx	save_SP	;3
    136  091d		       a6 84		      ldx	DrawStackPointer	;3
    137  091f		       9a		      txs		;2 = 10
    138  0920
    139  0920		       a4 d4		      ldy	DSL	;3
    140  0922
    141  0922							; worst-case DrawStackOne loop = 61 cycles per character (+11 for first one)
    142  0922							; + exit cost which is +10 cycles
    143  0922							; TJ: I count 63
    144  0922							;   + 14 for the wtf2 exit
    145  0922							;   + 22 for the end of loop exit
    146  0922
    147  0922							; This loops 80 times/frame and is called 1-2 times/frame, so any saving inside the loop will make up for a lot of overhead outside
    148  0922							; For 80 iterations that is 640 cycles, just for checking INTIM
    149  0922							; Worst case we would have ~5000. Though that will most likely never happen, we have to optimize for it, since
    150  0922							; it also will require a lot of CPU time for updating the screen data.
    151  0922
    152  0922							; TODO: optimize!
    153  0922							;
    154  0922							; idea #4: the mixed draw idea (two different characters have to be redrawn),
    155  0922							; first do a QuickDraw and then a SlowDraw, faster than two SlowDraws
    156  0922							; costs some detection time here, but saves ~240 cylces for drawing the two
    157  0922
    158  0922		       ad 84 02    .loopDrawStack lda	INTIM	;4
    159  0925		       c9 03		      cmp	#SEGTIME_DSL	;2
    160  0927		       90 4b		      bcc	.exitDrawStack	;2/3= 8/9
      0  0929					      STRESS_TIME	SEGTIME_DSL
      1  0929				  -	      IF	TEST_SEGTIME_DSL = 1
      2  0929				  -
      3  0929				  -
      4  0929				  -
      5  0929				  -
      6  0929				  -
      7  0929				  -	      echo	"***** WARNING! STRESS_TIME enabled @", ., "! *****"
      8  0929				  -	      bne	. - 7
      9  0929					      ENDIF
    162  0929
    163  0929		       b9 50 f0 	      lda	DrawFlag,y	;4
    164  092c		       d9 a0 f0 	      cmp	ScreenBuffer,y	;4		 Is the character already there the same as the new one?
    165  092f		       f0 16		      beq	.next0	;2/3=10/11	 yes, so we don't draw anything
    166  0931
    167  0931							; Character is NOT the same. Figure out how it should be drawn.
    168  0931							; If it is in column 0 or 5 then it can be DirectDrawn (indirectly found by a A:A compare)
    169  0931							; If it is the same as its paired character (sharing same PF byte) then it can be DirectDrawn
    170  0931							; The top bit of the ScreenBuffer character indicates the DirectDrawn hint
    171  0931
    172  0931		       be 7d f1 	      ldx	PairedCharacter,y	;4		 the "paired" character for this one
    173  0934		       dd 50 f0 	      cmp	DrawFlag,x	;4		 same as partner character in new drawn screen?
    174  0937		       d0 05		      bne	.notPaired0	;2/3=10/11
    175  0939
    176  0939							; Consider two 'paired' characters. Either A:A or A:B
    177  0939							; When we're scanning, and we check the first, if they are NOT paired, then the second character
    178  0939							; can be considered in isolation -- its check comes later, will determine itself if the pair can be written
    179  0939							; If, however, the first character IS paired, then the write below will cause the second check to FAIL
    180  0939							; on the comparison, so the character will not be added to the draw stack. So our first character will
    181  0939							; do the job of drawing BOTH characters to the screen.
    182  0939
    183  0939		       9d a0 f4 	      sta	ScreenBuffer+RAM_WRITE,x	;5		 mark paired character as drawn already (!!)
    184  093c		       09 80		      ora	#$80	;2 =  7	 DirectDraw this character 'pair'
    185  093e
    186  093e							; In the case of columns 0 and 5, the X and Y registers will be the same -- no problemo, because
    187  093e							; the last write(below) marks the character as to be direct-drawn.
    188  093e
    189  093e		       99 a0 f4    .notPaired0 sta	ScreenBuffer+RAM_WRITE,y	;5		 NEW character to draw + DirectDraw flag (128)
    190  0941
    191  0941							; The following 'pla' really just increments the draw-stack pointer.  Value is unimportant. Unusual!
    192  0941
    193  0941		       68		      pla		;4		 ASSUMPTION IS WE DON'T OvERFLOW DRAW STACK
    194  0942		       98		      tya		;2
    195  0943		       ba		      tsx		;2		 << now X holds drawstackpointer
    196  0944		       9d 00 f4 	      sta	DrawStack+RAM_WRITE,x	;5 = 18	 index of character to draw
    197  0947
    198  0947		       88	   .next0     dey		;2
    199  0948		       30 21		      bmi	.finishedDrawStack	;2/3= 4/5
    200  094a
    201  094a							; unrolled 2nd loop:
    202  094a		       b9 50 f0 	      lda	DrawFlag,y	;4
    203  094d		       d9 a0 f0 	      cmp	ScreenBuffer,y	;4		 Is the character already there the same as the new one?
    204  0950		       f0 16		      beq	.next1	;2/3=10/11	 yes, so we don't draw anything
    205  0952
    206  0952		       be 7d f1 	      ldx	PairedCharacter,y	;4		 the "paired" character for this one
    207  0955		       dd 50 f0 	      cmp	DrawFlag,x	;4		 same as partner character in new drawn screen?
    208  0958		       d0 05		      bne	.notPaired1	;2/3=10/11
    209  095a
    210  095a		       9d a0 f4 	      sta	ScreenBuffer+RAM_WRITE,x	;5		 mark paired character as drawn already (!!)
    211  095d		       09 80		      ora	#$80	;2 =  7	 DirectDraw this character 'pair'
    212  095f
    213  095f		       99 a0 f4    .notPaired1 sta	ScreenBuffer+RAM_WRITE,y	;5		 NEW character to draw + DirectDraw flag (128)
    214  0962
    215  0962		       68		      pla		;4		 ASSUMPTION IS WE DON'T OvERFLOW DRAW STACK
    216  0963		       98		      tya		;2
    217  0964		       ba		      tsx		;2
    218  0965		       9d 00 f4 	      sta	DrawStack+RAM_WRITE,x	;5 = 18	 index of character to draw
    219  0968
    220  0968		       88	   .next1     dey		;2
    221  0969		       10 b7		      bpl	.loopDrawStack	;2/3= 4/5
    222  096b							;worst case: 111-4
    223  096b							;40 loops(-4), max. 2 calls(+20) -> -160+40=-120, +8 bytes
    224  096b
    225  096b							; THE FOLLOWING OPTIMISATION IS STUFFED IF PROCESSOBJSTACK is not first in the vector processor!
    226  096b
    227  096b				   .finishedDrawStack
    228  096b		       e6 89		      inc	ScreenDrawPhase	;5 =  5
    229  096d		       ba		      tsx		;2
    230  096e		       86 84		      stx	DrawStackPointer	;3
    231  0970
    232  0970		       a6 e1		      ldx	save_SP	;3
    233  0972		       9a		      txs		;2 = 10
    234  0973
    235  0973							;jmp SwitchObjects
    236  0973
    237  0973		       60		      rts		;6 =  6
    238  0974
    239  0974				   .exitDrawStack
    240  0974		       84 d4		      sty	DSL	;3 =  3
    241  0976		       ba		      tsx		;2
    242  0977		       86 84		      stx	DrawStackPointer	;3
    243  0979		       a6 e1		      ldx	save_SP	;3
    244  097b		       9a		      txs		;2 = 10
    245  097c		       60		      rts		;6 =  6
    246  097d
    247  097d				   PairedCharacter
    248  097d
    249  097d				   SOFF       SET	0
    250  097d					      REPEAT	SCREEN_LINES
    251  097d		       00 02 01 04*	      .byte.b	SOFF,SOFF+2,SOFF+1,SOFF+4,SOFF+3,SOFF+5,SOFF+7,SOFF+6,SOFF+9,SOFF+8
    252  097d				   SOFF       SET	SOFF + SCREEN_WIDTH
    250  097d					      REPEND
    251  0987		       0a 0c 0b 0e*	      .byte.b	SOFF,SOFF+2,SOFF+1,SOFF+4,SOFF+3,SOFF+5,SOFF+7,SOFF+6,SOFF+9,SOFF+8
    252  0987				   SOFF       SET	SOFF + SCREEN_WIDTH
    250  0987					      REPEND
    251  0991		       14 16 15 18*	      .byte.b	SOFF,SOFF+2,SOFF+1,SOFF+4,SOFF+3,SOFF+5,SOFF+7,SOFF+6,SOFF+9,SOFF+8
    252  0991				   SOFF       SET	SOFF + SCREEN_WIDTH
    250  0991					      REPEND
    251  099b		       1e 20 1f 22*	      .byte.b	SOFF,SOFF+2,SOFF+1,SOFF+4,SOFF+3,SOFF+5,SOFF+7,SOFF+6,SOFF+9,SOFF+8
    252  099b				   SOFF       SET	SOFF + SCREEN_WIDTH
    250  099b					      REPEND
    251  09a5		       28 2a 29 2c*	      .byte.b	SOFF,SOFF+2,SOFF+1,SOFF+4,SOFF+3,SOFF+5,SOFF+7,SOFF+6,SOFF+9,SOFF+8
    252  09a5				   SOFF       SET	SOFF + SCREEN_WIDTH
    250  09a5					      REPEND
    251  09af		       32 34 33 36*	      .byte.b	SOFF,SOFF+2,SOFF+1,SOFF+4,SOFF+3,SOFF+5,SOFF+7,SOFF+6,SOFF+9,SOFF+8
    252  09af				   SOFF       SET	SOFF + SCREEN_WIDTH
    250  09af					      REPEND
    251  09b9		       3c 3e 3d 40*	      .byte.b	SOFF,SOFF+2,SOFF+1,SOFF+4,SOFF+3,SOFF+5,SOFF+7,SOFF+6,SOFF+9,SOFF+8
    252  09b9				   SOFF       SET	SOFF + SCREEN_WIDTH
    250  09b9					      REPEND
    251  09c3		       46 48 47 4a*	      .byte.b	SOFF,SOFF+2,SOFF+1,SOFF+4,SOFF+3,SOFF+5,SOFF+7,SOFF+6,SOFF+9,SOFF+8
    252  09c3				   SOFF       SET	SOFF + SCREEN_WIDTH
    253  09cd					      REPEND
    254  09cd
    255  09cd							;------------------------------------------------------------------------------
    256  09cd							; Gives character replacements used during screen drawing.
    257  09cd							; The character from the board is morphed via this array into an actual character
    258  09cd							; to draw.  This allows global animation and replacment of characters without
    259  09cd							; individual objects needing to do this.  Note, the draw-time replacement happens,
    260  09cd							; not board-time.
    261  09cd
    262  09cd				   CharReplacement		; in RAM -- BANK_DRAW_BUFFERS
    263  09cd
    264  09cd							; Converts a character # to an animated creature type
    265  09cd							; The array is indexed by CHARACTER_...
    266  09cd
    267  09cd		       00		      .byte.b	CHARACTER_BLANK	;  0
    268  09ce		       01		      .byte.b	CHARACTER_SOIL	;  1
    269  09cf		       02		      .byte.b	CHARACTER_BOX	;  2
    270  09d0		       03	   ANIM_TARGET .byte.b	CHARACTER_TARGET	;  3  XOR'd to give flashing target squares
    271  09d1		       04		      .byte.b	CHARACTER_TARGET2	;  4
    272  09d2		       05		      .byte.b	CHARACTER_MANOCCUPIED	;  5
    273  09d3		       06		      .byte.b	CHARACTER_STEEL	;  6
    274  09d4		       07		      .byte.b	CHARACTER_WALL	;  7
    275  09d5		       08		      .byte.b	CHARACTER_BOX_ON_TARGET	;  8	 box on target
    276  09d6		       00		      .byte.b	CHARACTER_BLANK	;  9
    277  09d7
    278  09d7				  -	      if	DIGITS
    279  09d7				  -	      .byte	CHARACTER_0
    280  09d7				  -	      .byte	CHARACTER_1
    281  09d7				  -	      .byte	CHARACTER_2
    282  09d7				  -	      .byte	CHARACTER_3
    283  09d7				  -	      .byte	CHARACTER_4
    284  09d7				  -	      .byte	CHARACTER_5
    285  09d7				  -	      .byte	CHARACTER_6
    286  09d7				  -	      .byte	CHARACTER_7
    287  09d7				  -	      .byte	CHARACTER_8
    288  09d7				  -	      .byte	CHARACTER_9
    289  09d7					      endif
    290  09d7
    291  09d7				  -	      if	TROPHY
    292  09d7				  -	      .byte	CHARACTER_TROPHY_0_0, CHARACTER_TROPHY_1_0, CHARACTER_TROPHY_2_0, CHARACTER_TROPHY_3_0
    293  09d7				  -	      .byte	CHARACTER_TROPHY_0_1, CHARACTER_TROPHY_1_1, CHARACTER_TROPHY_2_1, CHARACTER_TROPHY_3_1
    294  09d7				  -	      .byte	CHARACTER_TROPHY_0_2, CHARACTER_TROPHY_1_2, CHARACTER_TROPHY_2_2, CHARACTER_TROPHY_3_2
    295  09d7				  -	      .byte	CHARACTER_TROPHY_0_3, CHARACTER_TROPHY_1_3, CHARACTER_TROPHY_2_3, CHARACTER_TROPHY_3_3
    296  09d7				  -	      .byte	CHARACTER_TROPHY_0_4, CHARACTER_TROPHY_1_4, CHARACTER_TROPHY_2_4, CHARACTER_TROPHY_3_4
    297  09d7					      endif
    298  09d7
    299  09d7				  -	      IF	(* - CharReplacement != CHARACTER_MAXIMUM)
    300  09d7				  -	      ECHO	"ERROR: Incorrect CharReplacement table!"
    301  09d7				  -	      ERR
    302  09d7					      ENDIF
      0  09d7					      CHECKPAGEX	CharReplacement, "CharReplacement in BANK_ROM_SHADOW_DRAWBUFFERS"
      9  09d7					      LIST	ON
    304  09d7
    305  09d7
      0  09d7					      DEFINE_SUBROUTINE	AnimateCharReplacements2	;139
      1  09d7		       00 01	   BANK_AnimateCharReplacements2 =	_CURRENT_BANK
      2  09d7					      SUBROUTINE
      3  09d7				   AnimateCharReplacements2
    307  09d7
    308  09d7							; This manages character animation on a per-object basis.  Morph/animate these
    309  09d7							; characters individually or as required.  Change will affect all characters
    310  09d7							; of the same type in the visible display.
    311  09d7
    312  09d7							; -------------------------------------------
    313  09d7
    314  09d7							; handle the non-mandatory animating things
    315  09d7
    316  09d7		       a5 b6		      lda	timer	;3
    317  09d9		       29 01		      and	#1	;2
    318  09db		       d0 0c		      bne	nothingAnimates	;2/3
    319  09dd
    320  09dd		       a5 9d		      lda	scrollBits	;3
    321  09df		       d0 08		      bne	nothingAnimates	;2/3		 DON'T animate if we scrolled
    322  09e1
    323  09e1		       ad d0 f1 	      lda	ANIM_TARGET	;4
    324  09e4		       49 07		      eor	#CHARACTER_TARGET^CHARACTER_TARGET2	;2
    325  09e6		       8d d0 f5 	      sta	ANIM_TARGET + RAM_WRITE	;4 = 22	 TARGET
    326  09e9
    327  09e9		       60	   nothingAnimates rts		;6 = 28 if animating, less if not
    328  09ea
    329  09ea							;------------------------------------------------------------------------------
    330  09ea
    331  09ea
      0  09ea					      OPTIONAL_PAGEBREAK	"ROW_BankChar", SCREEN_LINES * SCREEN_WIDTH
 PAGE BREAK INSERTED FOR  ROW_BankChar
 REQUESTED SIZE =  $50
 WASTED SPACE =  $16
 PAGEBREAK LOCATION =  $f200
     10  0a00					      LIST	ON
      0  0a00					      DEFINE_SUBROUTINE	ROW_BankChar
      1  0a00		       00 01	   BANK_ROW_BankChar =	_CURRENT_BANK
      2  0a00					      SUBROUTINE
      3  0a00				   ROW_BankChar
    334  0a00
    335  0a00				   .BANK      SET	BANK_SCREENMARKII1
    336  0a00					      REPEAT	SCREEN_LINES
    337  0a00					      REPEAT	SCREEN_WIDTH
    338  0a00		       00		      .byte.b	.BANK
    337  0a00					      REPEND
    338  0a01		       00		      .byte.b	.BANK
    337  0a01					      REPEND
    338  0a02		       00		      .byte.b	.BANK
    337  0a02					      REPEND
    338  0a03		       00		      .byte.b	.BANK
    337  0a03					      REPEND
    338  0a04		       00		      .byte.b	.BANK
    337  0a04					      REPEND
    338  0a05		       00		      .byte.b	.BANK
    337  0a05					      REPEND
    338  0a06		       00		      .byte.b	.BANK
    337  0a06					      REPEND
    338  0a07		       00		      .byte.b	.BANK
    337  0a07					      REPEND
    338  0a08		       00		      .byte.b	.BANK
    337  0a08					      REPEND
    338  0a09		       00		      .byte.b	.BANK
    339  0a0a					      REPEND
    340  0a0a				   .BANK      SET	.BANK + 1
    336  0a0a					      REPEND
    337  0a0a					      REPEAT	SCREEN_WIDTH
    338  0a0a		       01		      .byte.b	.BANK
    337  0a0a					      REPEND
    338  0a0b		       01		      .byte.b	.BANK
    337  0a0b					      REPEND
    338  0a0c		       01		      .byte.b	.BANK
    337  0a0c					      REPEND
    338  0a0d		       01		      .byte.b	.BANK
    337  0a0d					      REPEND
    338  0a0e		       01		      .byte.b	.BANK
    337  0a0e					      REPEND
    338  0a0f		       01		      .byte.b	.BANK
    337  0a0f					      REPEND
    338  0a10		       01		      .byte.b	.BANK
    337  0a10					      REPEND
    338  0a11		       01		      .byte.b	.BANK
    337  0a11					      REPEND
    338  0a12		       01		      .byte.b	.BANK
    337  0a12					      REPEND
    338  0a13		       01		      .byte.b	.BANK
    339  0a14					      REPEND
    340  0a14				   .BANK      SET	.BANK + 1
    336  0a14					      REPEND
    337  0a14					      REPEAT	SCREEN_WIDTH
    338  0a14		       02		      .byte.b	.BANK
    337  0a14					      REPEND
    338  0a15		       02		      .byte.b	.BANK
    337  0a15					      REPEND
    338  0a16		       02		      .byte.b	.BANK
    337  0a16					      REPEND
    338  0a17		       02		      .byte.b	.BANK
    337  0a17					      REPEND
    338  0a18		       02		      .byte.b	.BANK
    337  0a18					      REPEND
    338  0a19		       02		      .byte.b	.BANK
    337  0a19					      REPEND
    338  0a1a		       02		      .byte.b	.BANK
    337  0a1a					      REPEND
    338  0a1b		       02		      .byte.b	.BANK
    337  0a1b					      REPEND
    338  0a1c		       02		      .byte.b	.BANK
    337  0a1c					      REPEND
    338  0a1d		       02		      .byte.b	.BANK
    339  0a1e					      REPEND
    340  0a1e				   .BANK      SET	.BANK + 1
    336  0a1e					      REPEND
    337  0a1e					      REPEAT	SCREEN_WIDTH
    338  0a1e		       03		      .byte.b	.BANK
    337  0a1e					      REPEND
    338  0a1f		       03		      .byte.b	.BANK
    337  0a1f					      REPEND
    338  0a20		       03		      .byte.b	.BANK
    337  0a20					      REPEND
    338  0a21		       03		      .byte.b	.BANK
    337  0a21					      REPEND
    338  0a22		       03		      .byte.b	.BANK
    337  0a22					      REPEND
    338  0a23		       03		      .byte.b	.BANK
    337  0a23					      REPEND
    338  0a24		       03		      .byte.b	.BANK
    337  0a24					      REPEND
    338  0a25		       03		      .byte.b	.BANK
    337  0a25					      REPEND
    338  0a26		       03		      .byte.b	.BANK
    337  0a26					      REPEND
    338  0a27		       03		      .byte.b	.BANK
    339  0a28					      REPEND
    340  0a28				   .BANK      SET	.BANK + 1
    336  0a28					      REPEND
    337  0a28					      REPEAT	SCREEN_WIDTH
    338  0a28		       04		      .byte.b	.BANK
    337  0a28					      REPEND
    338  0a29		       04		      .byte.b	.BANK
    337  0a29					      REPEND
    338  0a2a		       04		      .byte.b	.BANK
    337  0a2a					      REPEND
    338  0a2b		       04		      .byte.b	.BANK
    337  0a2b					      REPEND
    338  0a2c		       04		      .byte.b	.BANK
    337  0a2c					      REPEND
    338  0a2d		       04		      .byte.b	.BANK
    337  0a2d					      REPEND
    338  0a2e		       04		      .byte.b	.BANK
    337  0a2e					      REPEND
    338  0a2f		       04		      .byte.b	.BANK
    337  0a2f					      REPEND
    338  0a30		       04		      .byte.b	.BANK
    337  0a30					      REPEND
    338  0a31		       04		      .byte.b	.BANK
    339  0a32					      REPEND
    340  0a32				   .BANK      SET	.BANK + 1
    336  0a32					      REPEND
    337  0a32					      REPEAT	SCREEN_WIDTH
    338  0a32		       05		      .byte.b	.BANK
    337  0a32					      REPEND
    338  0a33		       05		      .byte.b	.BANK
    337  0a33					      REPEND
    338  0a34		       05		      .byte.b	.BANK
    337  0a34					      REPEND
    338  0a35		       05		      .byte.b	.BANK
    337  0a35					      REPEND
    338  0a36		       05		      .byte.b	.BANK
    337  0a36					      REPEND
    338  0a37		       05		      .byte.b	.BANK
    337  0a37					      REPEND
    338  0a38		       05		      .byte.b	.BANK
    337  0a38					      REPEND
    338  0a39		       05		      .byte.b	.BANK
    337  0a39					      REPEND
    338  0a3a		       05		      .byte.b	.BANK
    337  0a3a					      REPEND
    338  0a3b		       05		      .byte.b	.BANK
    339  0a3c					      REPEND
    340  0a3c				   .BANK      SET	.BANK + 1
    336  0a3c					      REPEND
    337  0a3c					      REPEAT	SCREEN_WIDTH
    338  0a3c		       06		      .byte.b	.BANK
    337  0a3c					      REPEND
    338  0a3d		       06		      .byte.b	.BANK
    337  0a3d					      REPEND
    338  0a3e		       06		      .byte.b	.BANK
    337  0a3e					      REPEND
    338  0a3f		       06		      .byte.b	.BANK
    337  0a3f					      REPEND
    338  0a40		       06		      .byte.b	.BANK
    337  0a40					      REPEND
    338  0a41		       06		      .byte.b	.BANK
    337  0a41					      REPEND
    338  0a42		       06		      .byte.b	.BANK
    337  0a42					      REPEND
    338  0a43		       06		      .byte.b	.BANK
    337  0a43					      REPEND
    338  0a44		       06		      .byte.b	.BANK
    337  0a44					      REPEND
    338  0a45		       06		      .byte.b	.BANK
    339  0a46					      REPEND
    340  0a46				   .BANK      SET	.BANK + 1
    336  0a46					      REPEND
    337  0a46					      REPEAT	SCREEN_WIDTH
    338  0a46		       07		      .byte.b	.BANK
    337  0a46					      REPEND
    338  0a47		       07		      .byte.b	.BANK
    337  0a47					      REPEND
    338  0a48		       07		      .byte.b	.BANK
    337  0a48					      REPEND
    338  0a49		       07		      .byte.b	.BANK
    337  0a49					      REPEND
    338  0a4a		       07		      .byte.b	.BANK
    337  0a4a					      REPEND
    338  0a4b		       07		      .byte.b	.BANK
    337  0a4b					      REPEND
    338  0a4c		       07		      .byte.b	.BANK
    337  0a4c					      REPEND
    338  0a4d		       07		      .byte.b	.BANK
    337  0a4d					      REPEND
    338  0a4e		       07		      .byte.b	.BANK
    337  0a4e					      REPEND
    338  0a4f		       07		      .byte.b	.BANK
    339  0a50					      REPEND
    340  0a50				   .BANK      SET	.BANK + 1
    341  0a50					      REPEND
    342  0a50
      0  0a50					      CHECK_HALF_BANK_SIZE	"ROM_SHADOW_OF_BANK_DRAW_BUFFERS"
      1  0a50
      2  0a50
      3  0a50		       02 50	   .TEMP      =	* - BANK_START
 ROM_SHADOW_OF_BANK_DRAW_BUFFERS (1K) SIZE =  $250 , FREE= $1b0
      4  0a50					      ECHO	"ROM_SHADOW_OF_BANK_DRAW_BUFFERS", "(1K) SIZE = ", .TEMP, ", FREE=", ROM_BANK_SIZE/2 - .TEMP
      5  0a50				  -	      if	( .TEMP ) > ROM_BANK_SIZE/2
      6  0a50				  -	      ECHO	"HALF-BANK OVERFLOW @ ", * - ORIGIN
      7  0a50				  -	      ERR
      8  0a50					      endif
    344  0a50
    345  0a50
      0  0a50					      CHECK_BANK_SIZE	"ROM_SHADOW_OF_BANK_DRAW_BUFFERS -- full 2K"
      1  0a50		       02 50	   .TEMP      =	* - BANK_START
 ROM_SHADOW_OF_BANK_DRAW_BUFFERS -- full 2K (2K) SIZE =  $250 , FREE= $5b0
      2  0a50					      ECHO	"ROM_SHADOW_OF_BANK_DRAW_BUFFERS -- full 2K", "(2K) SIZE = ", .TEMP, ", FREE=", ROM_BANK_SIZE - .TEMP
      3  0a50				  -	      if	( .TEMP ) > ROM_BANK_SIZE
      4  0a50				  -	      ECHO	"BANK OVERFLOW @ ", * - ORIGIN
      5  0a50				  -	      ERR
      6  0a50					      endif
------- FILE ./sokoboo.asm
------- FILE BANK_ROM_SHADOW_SCORING.asm LEVEL 2 PASS 4
      0  0a50					      include	"BANK_ROM_SHADOW_SCORING.asm"
      1  0a50							;    Sokoboo - a Sokoban implementation
      2  0a50							;    using a generic tile-based display engine for the Atari 2600
      3  0a50							;    Sokoban (倉庫番)™ is © Falcon Co., Ltd.
      4  0a50							;
      5  0a50							;    Code related to this Sokoban™ implementation was developed by Andrew Davie.
      6  0a50							;
      7  0a50							;    Code related to the generic tile-based display engine was developed by
      8  0a50							;    Andrew Davie and Thomas Jentzsch during 2003-2011 and is
      9  0a50							;    Copyright(C)2003-2019 Thomas Jentzsch and Andrew Davie - contacts details:
     10  0a50							;    Andrew Davie (andrew@taswegian.com), Thomas Jentzsch (tjentzsch@yahoo.de).
     11  0a50							;
     12  0a50							;    Code related to music and sound effects uses the TIATracker music player
     13  0a50							;    Copyright 2016 Andre "Kylearan" Wichmann - see source code in the "sound"
     14  0a50							;    directory for Apache licensing details.
     15  0a50							;
     16  0a50							;    Some level data incorporated in this program were created by Lee J Haywood.
     17  0a50							;    See the copyright notices in the License directory for a list of level
     18  0a50							;    contributors.
     19  0a50							;
     20  0a50							;    Except where otherwise indicated, this software is released under the
     21  0a50							;    following licensing arrangement...
     22  0a50							;
     23  0a50							;    This program is free software: you can redistribute it and/or modify
     24  0a50							;    it under the terms of the GNU General Public License as published by
     25  0a50							;    the Free Software Foundation, either version 3 of the License, or
     26  0a50							;    (at your option) any later version.
     27  0a50							;    see https://www.gnu.org/licenses/gpl-3.0.en.html
     28  0a50
     29  0a50							;    This program is distributed in the hope that it will be useful,
     30  0a50							;    but WITHOUT ANY WARRANTY; without even the implied warranty of
     31  0a50							;    MERCHANTABILITY or FITNESS FOR A PARTICULAR PURPOSE.  See the
     32  0a50							;    GNU General Public License for more details.
     33  0a50
     34  0a50							;------------------------------------------------------------------------------
     35  0a50							;##############################################################################
     36  0a50							;------------------------------------------------------------------------------
      0  0a50					      NEWBANK	ROM_SHADOW_OF_BANK_SCORING
      1  139d ????				      SEG	ROM_SHADOW_OF_BANK_SCORING
      2  1000					      ORG	ORIGIN
      3  1000					      RORG	$F000
      4  1000				   BANK_START SET	*
      5  1000				   ROM_SHADOW_OF_BANK_SCORING SET	ORIGIN / 2048
      6  1000				   ORIGIN     SET	ORIGIN + 2048
      7  1000				   _CURRENT_BANK SET	ROM_SHADOW_OF_BANK_SCORING
     38  1000
     39  1000
     40  1000		       00 9a	   SCORE_COL  =	$9a	;WHITE ;-2
     41  1000		       00 44	   SCORE_COL_HIGH_NTSC =	$44	; works for SECAM and NTSC
     42  1000		       00 66	   SCORE_COL_HIGH_PAL =	$66
     43  1000
     44  1000
     45  1000				   DigitVectorLOr
     46  1000		       31 3f 4d 38*	      .byte.b	<ZeroR-1, <OneR-1, <TwoR-1, <ThreeR-1, <FourR-1, <FiveR-1, <SixR-1, <SevenR-1, <EightR-1, <NineR-1
     47  100a		       00 07 0e 15	      .byte.b	<BLANKR-1, <DequalsR-1, <DplusR-1, <ClockR-1
     48  100e				   DigitVectorLO
     49  100e		       53 61 6e 5a*	      .byte.b	<ZeroL-1, <OneL-1, <TwoL-1, <ThreeL-1, <FourL-1, <FiveL-1, <SixL-1, <SevenL-1, <EightL-1, <NineL-1
     50  1018		       37		      .byte.b	<BLANKL-1
     51  1019
     52  1019
     53  1019		       00 0a	   ID_BLANK   =	10	; DO NOT MAKE 0
     54  1019		       00 0b	   ID_TARGET  =	11
     55  1019		       00 0c	   ID_EXTRA   =	12
     56  1019		       00 0d	   ID_CLOCK   =	13
     57  1019		       00 1b	   ID_HEAD    =	ID_BLANK+16+1
     58  1019
     59  1019							; score patch adresses:
     60  1019				   SMTblLSB
     61  1019				   SMTblTargets
     62  1019		       52 48		      .byte.b	SM_TARGET0+1-SM_BASE, SM_TARGET2+1-SM_BASE
     63  101b				   SMTblTime
     64  101b		       6e 60		      .byte.b	SM_Time0+1-SM_BASE, SM_Time2+1-SM_BASE
     65  101d				   SMTblScore
     66  101d		       1c 20 12 	      .byte.b	SMDIGIT5+1-SM_BASE, SMDIGIT3+1-SM_BASE, SMDIGIT1+1-SM_BASE
     67  1020				   SMTblMSB
     68  1020		       4d 43		      .byte.b	SM_TARGET1+1-SM_BASE, SM_TARGET3+1-SM_BASE
     69  1022		       65 59		      .byte.b	SM_Time1+1-SM_BASE, SM_Time3+1-SM_BASE
     70  1024		       23 17 07 	      .byte.b	SMDIGIT4+1-SM_BASE, SMDIGIT2+1-SM_BASE, SMDIGIT0+1-SM_BASE
     71  1027
     72  1027		       00 00	   SM_OFS_TARGETS =	SMTblTargets - SMTblLSB
     73  1027		       00 02	   SM_OFS_TIME =	SMTblTime - SMTblLSB
     74  1027		       00 04	   SM_OFS_SCORE =	SMTblScore - SMTblLSB
     75  1027
     76  1027				   CharVectorLO
     77  1027		       37		      .byte.b	<BLANKL-1
     78  1028		       ad ad ad ad	      .byte.b	<CharA-1, <CharB-1, <CharC-1, <CharD-1
     79  102c		       ad ad ad ad	      .byte.b	<CharE-1, <CharF-1, <CharG-1, <CharH-1
     80  1030		       ad ad ad ad	      .byte.b	<CharI-1, <CharJ-1, <CharK-1, <CharL-1
     81  1034		       ad ad ad ad	      .byte.b	<CharM-1, <CharN-1, <CharO-1, <CharP-1
     82  1038							;    .byte   <OneL-1,	<TwoL-1,  <ThreeL-1,<FourL-1
     83  1038
     84  1038							; Digit shape definitions are at start of bank so that we don't have page boundary
     85  1038							; crossing issues.
     86  1038
     87  1038							;	  .byte 0	      ; required!
     88  1038
     89  1038		       00 07	   DIGIT_H    =	7	; height of a score digit
     90  1038
     91  1038		       00 00 00 00*BLANKL     ds	7,0
     92  103f
     93  103f
     94  103f
     95  103f				   NineL
     96  103f		       1e		      .byte.b	%00011110
     97  1040		       02		      .byte.b	%00000010
     98  1041		       02		      .byte.b	%00000010
     99  1042		       fe		      .byte.b	%11111110
    100  1043		       82		      .byte.b	%10000010
    101  1044		       82		      .byte.b	%10000010
    102  1045		       fe		      .byte.b	%11111110
    103  1046
    104  1046				   SixL
    105  1046		       fe		      .byte.b	%11111110
    106  1047		       82		      .byte.b	%10000010
    107  1048		       82		      .byte.b	%10000010
    108  1049		       fe		      .byte.b	%11111110
    109  104a		       80		      .byte.b	%10000000
    110  104b		       80		      .byte.b	%10000000
    111  104c		       f0		      .byte.b	%11110000
    112  104d
    113  104d							;    .byte %01111100
    114  104d							;    .byte %11000010
    115  104d							;    .byte %11000010
    116  104d							;    .byte %11111100
    117  104d							;    .byte %11000000
    118  104d							;    .byte %01100000
    119  104d							;    .byte %00111000
    120  104d				   EightL
    121  104d
    122  104d
    123  104d		       fe		      .byte.b	%11111110
    124  104e		       82		      .byte.b	%10000010
    125  104f		       82		      .byte.b	%10000010
    126  1050		       fe		      .byte.b	%11111110
    127  1051		       82		      .byte.b	%10000010
    128  1052		       82		      .byte.b	%10000010
    129  1053		       fe		      .byte.b	%11111110
    130  1054
    131  1054							;  .byte %01111100
    132  1054							;  .byte %10000110
    133  1054							;  .byte %10000110
    134  1054							;  .byte %01111100
    135  1054							;  .byte %01000110
    136  1054							;  .byte %01000110
    137  1054							;  .byte %00111100
    138  1054				   ZeroL
    139  1054							;  .byte %01111100
    140  1054							;  .byte %10000110
    141  1054							;  .byte %10000110
    142  1054							;  .byte %10000110
    143  1054							;  .byte %10000110
    144  1054							;  .byte %01000110
    145  1054							;  .byte %00111100
    146  1054
    147  1054		       fe		      .byte.b	%11111110
    148  1055		       82		      .byte.b	%10000010
    149  1056		       82		      .byte.b	%10000010
    150  1057		       82		      .byte.b	%10000010
    151  1058		       82		      .byte.b	%10000010
    152  1059		       82		      .byte.b	%10000010
    153  105a		       fe		      .byte.b	%11111110
    154  105b
    155  105b				   ThreeL
    156  105b		       fe		      .byte.b	%11111110
    157  105c		       02		      .byte.b	%00000010
    158  105d		       02		      .byte.b	%00000010
    159  105e		       1e		      .byte.b	%00011110
    160  105f		       02		      .byte.b	%00000010
    161  1060		       02		      .byte.b	%00000010
    162  1061		       fe		      .byte.b	%11111110
    163  1062				   OneL
    164  1062		       10		      .byte.b	%00010000
    165  1063		       10		      .byte.b	%00010000
    166  1064		       10		      .byte.b	%00010000
    167  1065		       10		      .byte.b	%00010000
    168  1066		       10		      .byte.b	%00010000
    169  1067		       10		      .byte.b	%00010000
    170  1068		       10		      .byte.b	%00010000
    171  1069
    172  1069				   SevenL
    173  1069
    174  1069		       10		      .byte.b	%00010000
    175  106a		       10		      .byte.b	%00010000
    176  106b		       10		      .byte.b	%00010000
    177  106c		       1e		      .byte.b	%00011110
    178  106d		       02		      .byte.b	%00000010
    179  106e		       02		      .byte.b	%00000010
    180  106f							;  .byte %11111110
    181  106f
    182  106f							;    .byte %00010000
    183  106f							;    .byte %00010000
    184  106f							;    .byte %00010000
    185  106f							;    .byte %00011000
    186  106f							;    .byte %00001100
    187  106f							;    .byte %10000110
    188  106f							;    ;.byte %11111110
    189  106f				   TwoL
    190  106f		       fe		      .byte.b	%11111110
    191  1070		       80		      .byte.b	%10000000
    192  1071		       80		      .byte.b	%10000000
    193  1072		       fe		      .byte.b	%11111110
    194  1073		       02		      .byte.b	%00000010
    195  1074		       02		      .byte.b	%00000010
    196  1075		       fe		      .byte.b	%11111110
    197  1076
    198  1076				   FiveL
    199  1076		       fe		      .byte.b	%11111110
    200  1077		       02		      .byte.b	%00000010
    201  1078		       02		      .byte.b	%00000010
    202  1079		       fe		      .byte.b	%11111110
    203  107a		       80		      .byte.b	%10000000
    204  107b		       80		      .byte.b	%10000000
    205  107c		       f0		      .byte.b	%11110000
    206  107d
    207  107d				   FourL
    208  107d		       10		      .byte.b	%00010000
    209  107e		       10		      .byte.b	%00010000
    210  107f		       10		      .byte.b	%00010000
    211  1080		       fe		      .byte.b	%11111110
    212  1081		       90		      .byte.b	%10010000
    213  1082		       90		      .byte.b	%10010000
    214  1083		       90		      .byte.b	%10010000
    215  1084
    216  1084
    217  1084				   ZL
    218  1084		       7f		      .byte.b	%01111111
    219  1085		       40		      .byte.b	%01000000
    220  1086		       40		      .byte.b	%01000000
    221  1087		       7f		      .byte.b	%01111111
    222  1088		       01		      .byte.b	%00000001
    223  1089		       01		      .byte.b	%00000001
    224  108a		       0f		      .byte.b	%00001111
    225  108b
    226  108b				   EL
    227  108b		       7f		      .byte.b	%01111111
    228  108c		       40		      .byte.b	%01000000
    229  108d		       40		      .byte.b	%01000000
    230  108e		       78		      .byte.b	%01111000
    231  108f		       40		      .byte.b	%01000000
    232  1090		       40		      .byte.b	%01000000
    233  1091		       7f		      .byte.b	%01111111
    234  1092
    235  1092				   RL
    236  1092		       48		      .byte.b	%01001000
    237  1093		       48		      .byte.b	%01001000
    238  1094		       48		      .byte.b	%01001000
    239  1095		       7f		      .byte.b	%01111111
    240  1096		       41		      .byte.b	%01000001
    241  1097		       41		      .byte.b	%01000001
    242  1098		       7f		      .byte.b	%01111111
    243  1099
    244  1099				   PL
    245  1099		       40		      .byte.b	%01000000
    246  109a		       40		      .byte.b	%01000000
    247  109b		       40		      .byte.b	%01000000
    248  109c		       7f		      .byte.b	%01111111
    249  109d		       41		      .byte.b	%01000001
    250  109e		       41		      .byte.b	%01000001
    251  109f		       7f		      .byte.b	%01111111
    252  10a0
    253  10a0				   AL
    254  10a0		       41		      .byte.b	%01000001
    255  10a1		       41		      .byte.b	%01000001
    256  10a2		       41		      .byte.b	%01000001
    257  10a3		       7f		      .byte.b	%01111111
    258  10a4		       41		      .byte.b	%01000001
    259  10a5		       41		      .byte.b	%01000001
    260  10a6		       7f		      .byte.b	%01111111
    261  10a7
    262  10a7				   GL
    263  10a7		       7f		      .byte.b	%01111111
    264  10a8		       41		      .byte.b	%01000001
    265  10a9		       41		      .byte.b	%01000001
    266  10aa		       4f		      .byte.b	%01001111
    267  10ab		       40		      .byte.b	%01000000
    268  10ac		       40		      .byte.b	%01000000
    269  10ad		       7f		      .byte.b	%01111111
    270  10ae
    271  10ae
    272  10ae							; level "name" characters (left only!):
    273  10ae
    274  10ae				   CharN
    275  10ae				   CharK
    276  10ae				   CharH
    277  10ae				   CharA
    278  10ae				   CharJ
    279  10ae				   CharP
    280  10ae				   CharB
    281  10ae				   CharO
    282  10ae				   CharC
    283  10ae				   CharI
    284  10ae				   CharD
    285  10ae				   CharG
    286  10ae				   CharE
    287  10ae				   CharL
    288  10ae				   CharF
    289  10ae				   CharM
    290  10ae		       00 00 00 00*	      ds	7,0
    291  10b5
    292  10b5				   charPlace
    293  10b5		       0c		      .byte.b	%00001100
    294  10b6		       0c		      .byte.b	%00001100
    295  10b7		       0c		      .byte.b	%00001100
    296  10b8		       0c		      .byte.b	%00001100
    297  10b9		       0c		      .byte.b	%00001100
    298  10ba		       00		      .byte.b	%00000000
    299  10bb		       0c		      .byte.b	%00001100
    300  10bc
    301  10bc							;-------------------------------------------------------------------------------------
    302  10bc				   PosTbl
    303  10bc		       40		      .byte.b	$40
    304  10bd		       31 22 13 04*	      .byte.b	$31, $22, $13, $04, $f5, $e6, $d7, $c8
    305  10c5		       b9		      .byte.b	$b9
    306  10c6
    307  10c6
    308  10c6							;------------------------------------------------------------------------------
    309  10c6							; RAM-BASED SUBROUTINES...
    310  10c6							; NOTE: When calling these routines, remember you are actually calling the ROM routine
    311  10c6							; as it is the ROM bank that is switched in.  The first thing to do to access the RAM
    312  10c6							; is to switch the appropriate RAM bank in.  It would be nicer to be able to direct-call
    313  10c6							; the RAM-based routine.
    314  10c6
    315  1100		       00 00 00 00*	      ALIGN	256	; so SM code needs no HI table
    316  1100
    317  1100		       f1 00	   SM_BASE    =	.
    318  1100
    319  1100							;#IF 0 ;{
    320  1100							;    DEFINE_SUBROUTINE Score3x3
    321  1100							;
    322  1100							;	  sta	  RESP0
    323  1100							;	   sta	   RESP1
    324  1100							;	   lda	   #$$000
    325  1100							;	    sta     GRP0
    326  1100							;	    lda     #$$009
    327  1100							;	    sta     GRP1
    328  1100							;	    lda     #$$202
    329  1100							;	    sta     ENABL
    330  1100							;	    nop
    331  1100							;	    nop
    332  1100							;	    nop
    333  1100							;	    lda     #$$016
    334  1100							;	    ldy     #$$100
    335  1100							;	    ldx     #$$109
    336  1100							;	    sta     GRP0    ; Critical time is right here
    337  1100							;	    stx     GRP1
    338  1100							;	    sty     GRP0
    339  1100							;	    sta     RESP0
    340  1100							;	    sta     RESP1
    341  1100							;	    ldx     #$$116
    342  1100							;	    lda     #$$209
    343  1100							;	    stx     GRP0
    344  1100							;	    sta     GRP1
    345  1100							;	    lda     #$$200
    346  1100							;	    sta     GRP0
    347  1100							;	    sta     RESP0
    348  1100							;	    sta     RESP1
    349  1100							;	    lda     #$$216
    350  1100							;	    nop
    351  1100							;	    sta     GRP0
    352  1100							;
    353  1100							;	      rts
    354  1100							;#ENDIF ;}
    355  1100
    356  1100
    357  1100							;------------------------------------------------------------------------------
    358  1100				   Score1x6Fix SUBROUTINE
      0  1100					      DEFINE_SUBROUTINE	DrawDigits1x6
      1  1100		       00 02	   BANK_DrawDigits1x6 =	_CURRENT_BANK
      2  1100					      SUBROUTINE
      3  1100				   DrawDigits1x6
    360  1100							;					     @07
    361  1100		       ba		      tsx		; 2
    362  1101
    363  1101		       20 f2 f1 	      jsr	PrepareDrawDigits	;56 = 58    @65
    364  1104
    365  1104		       86 e1		      stx	tmpStack	; 3 =	3
    366  1106
    367  1106				   LoopDraw1x6		;
    368  1106				   SMDIGIT0
    369  1106		       b9 31 f3 	      lda	ZeroR-1,y	; 4
    370  1109		       85 42		      sta	WSYNC	; 3
    371  110b							;---------------------------------------------------------------
    372  110b		       85 6a		      sta	HMOVE	; 3
      0  110d					      SLEEP	3	; 3 =	6
      1  110d				   .CYCLES    SET	3
      2  110d
      3  110d				  -	      IF	.CYCLES < 2
      4  110d				  -	      ECHO	"MACRO ERROR: 'SLEEP': Duration must be > 1"
      5  110d				  -	      ERR
      6  110d					      ENDIF
      7  110d
      8  110d					      IF	.CYCLES & 1
      9  110d					      IFNCONST	NO_ILLEGAL_OPCODES
     10  110d		       04 00		      nop	0
     11  110f				  -	      ELSE
     12  110f				  -	      bit	VSYNC
     13  110f					      ENDIF
     14  110f				   .CYCLES    SET	.CYCLES - 3
     15  110f					      ENDIF
     16  110f
     17  110f				  -	      REPEAT	.CYCLES / 2
     18  110f				  -	      nop
     19  110f					      REPEND
    374  110f		       85 5b		      sta	GRP0	; 3
    375  1111				   SMDIGIT1
    376  1111		       b9 53 f0 	      lda	ZeroL-1,y	; 4
    377  1114		       85 5c		      sta	GRP1	; 3
    378  1116				   SMDIGIT2
    379  1116		       b9 31 f3 	      lda	ZeroR-1,y	; 4
    380  1119		       85 5b		      sta	GRP0	; 3 = 17
    381  111b				   SMDIGIT5
    382  111b		       be 53 f0 	      ldx	ZeroL-1,y	; 4
    383  111e		       9a		      txs		; 2
    384  111f				   SMDIGIT3
    385  111f		       be 53 f0 	      ldx	ZeroL-1,y	; 4
    386  1122				   SMDIGIT4
    387  1122		       b9 31 f3 	      lda	ZeroR-1,y	; 4
    388  1125		       85 6b		      sta	HMCLR	; 3
    389  1127		       86 5c		      stx	GRP1	; 3
    390  1129		       85 5b		      sta	GRP0	; 3 = 23
    391  112b
    392  112b		       ba		      tsx		; 2
    393  112c		       86 5c		      stx	GRP1	; 3
    394  112e		       85 5b		      sta	GRP0	; 3 =	8
    395  1130
    396  1130		       88		      dey		; 2
      0  1131					      CHECKPAGE_BNE	LoopDraw1x6	;2/3= 5    @58/59
      8  1131					      LIST	ON
      9  1131		       d0 d3		      bne	LoopDraw1x6
    398  1133
    399  1133		       a6 e1		      ldx	tmpStack	; 3
    400  1135		       9a		      txs		; 2
    401  1136				   ExitDigitKernel6
      0  1136					      SLEEP	3	; 3
      1  1136				   .CYCLES    SET	3
      2  1136
      3  1136				  -	      IF	.CYCLES < 2
      4  1136				  -	      ECHO	"MACRO ERROR: 'SLEEP': Duration must be > 1"
      5  1136				  -	      ERR
      6  1136					      ENDIF
      7  1136
      8  1136					      IF	.CYCLES & 1
      9  1136					      IFNCONST	NO_ILLEGAL_OPCODES
     10  1136		       04 00		      nop	0
     11  1138				  -	      ELSE
     12  1138				  -	      bit	VSYNC
     13  1138					      ENDIF
     14  1138				   .CYCLES    SET	.CYCLES - 3
     15  1138					      ENDIF
     16  1138
     17  1138				  -	      REPEAT	.CYCLES / 2
     18  1138				  -	      nop
     19  1138					      REPEND
    403  1138		       4c 77 f1 	      jmp	ExitDigitKernel	; 3 = 11    @69
    404  113b
    405  113b
    406  113b							;------------------------------------------------------------------------------
    407  113b				   Score2x4Fix SUBROUTINE
      0  113b					      DEFINE_SUBROUTINE	DrawDigits2x4
      1  113b		       00 02	   BANK_DrawDigits2x4 =	_CURRENT_BANK
      2  113b					      SUBROUTINE
      3  113b				   DrawDigits2x4
    409  113b
    410  113b
    411  113b							; Subroutine by Thomas Jentzsch.  Magic!
    412  113b							; This subroutine draws two 4-digit scores on the screen, side-by-side. Amazing!
    413  113b
    414  113b							;sta COLUBK
    415  113b
    416  113b		       20 f2 f1 	      jsr	PrepareDrawDigits	;56 = 56    @63
    417  113e
    418  113e		       85 6a		      sta	HMOVE	; 3
      0  1140					      SLEEP	4	; 4  =  7
      1  1140				   .CYCLES    SET	4
      2  1140
      3  1140				  -	      IF	.CYCLES < 2
      4  1140				  -	      ECHO	"MACRO ERROR: 'SLEEP': Duration must be > 1"
      5  1140				  -	      ERR
      6  1140					      ENDIF
      7  1140
      8  1140				  -	      IF	.CYCLES & 1
      9  1140				  -	      IFNCONST	NO_ILLEGAL_OPCODES
     10  1140				  -	      nop	0
     11  1140				  -	      ELSE
     12  1140				  -	      bit	VSYNC
     13  1140				  -	      ENDIF
     14  1140				  -.CYCLES    SET	.CYCLES - 3
     15  1140					      ENDIF
     16  1140
     17  1140					      REPEAT	.CYCLES / 2
     18  1140		       ea		      nop
     17  1140					      REPEND
     18  1141		       ea		      nop
     19  1142					      REPEND
    420  1142
    421  1142				   LoopDraw2x4		;	     @70
    422  1142				   SM_TARGET3
    423  1142		       b9 07 f3 	      lda	DequalsR-1,y	; 4		     G
    424  1145							;---------------------------------------------------------------
    425  1145		       85 5b		      sta	GRP0	; 3
    426  1147				   SM_TARGET2
    427  1147		       b9 53 f0 	      lda	ZeroL-1,y	; 4		     A
    428  114a		       85 5c		      sta	GRP1	; 3
    429  114c				   SM_TARGET1
    430  114c		       b9 31 f3 	      lda	ZeroR-1,y	; 4		     M
    431  114f		       85 5b		      sta	GRP0	; 3
    432  1151				   SM_TARGET0
    433  1151		       be 53 f0 	      ldx	ZeroL-1,y	; 4		     E
    434  1154		       85 50		      sta	RESP0	; 3 = 28    @22
    435  1156		       85 51		      sta	RESP1	; 3 =	3    @25
    436  1158				   SM_Time3
    437  1158		       b9 15 f3 	      lda	ClockR-1,y	; 4		     O
    438  115b		       86 5c		      stx	GRP1	; 3
    439  115d		       85 5b		      sta	GRP0	; 3
    440  115f				   SM_Time2
    441  115f		       b9 53 f0 	      lda	ZeroL-1,y	; 4		     V
    442  1162		       85 5c		      sta	GRP1	; 3
    443  1164				   SM_Time1
    444  1164		       b9 31 f3 	      lda	ZeroR-1,y	; 4		     E
    445  1167		       85 5b		      sta	GRP0	; 3
    446  1169		       85 50		      sta	RESP0	; 3 = 27    @52 (was 54)
    447  116b		       85 51		      sta	RESP1	; 3 =	3    @55
    448  116d				   SM_Time0
    449  116d		       b9 53 f0 	      lda	ZeroL-1,y	; 4		     R
    450  1170		       85 5c		      sta	GRP1	; 3
    451  1172		       85 5b		      sta	GRP0	; 3
    452  1174		       88		      dey		; 2
      0  1175					      CHECKPAGE_BNE	LoopDraw2x4	;2/3=15    @70
      8  1175					      LIST	ON
      9  1175		       d0 cb		      bne	LoopDraw2x4
    454  1177
    455  1177				   ExitDigitKernel		;	     @69
    456  1177		       84 5b		      sty	GRP0	; 3
    457  1179		       84 5c		      sty	GRP1	; 3
    458  117b							;---------------------------------------------------------------
    459  117b		       84 5b		      sty	GRP0	; 3	     @02
    460  117d
    461  117d							; Contribution by Thomas Jentzsch
    462  117d							; Rewrite/Optimised for single sprite AD
    463  117d
    464  117d		       a6 a2		      ldx	ManDrawX	; 3
    465  117f		       bd bc f0 	      lda	PosTbl,x	; 4
    466  1182		       85 60		      sta	HMP0	; 3
    467  1184		       29 0f		      and	#$0f	; 2
    468  1186		       f0 04		      beq	.zeroPos	; 2/3=15
    469  1188		       aa		      tax		; 2
    470  1189				   .loopWait
    471  1189		       ca		      dex		; 2
    472  118a		       d0 fd		      bne	.loopWait	; 2/3= 6
    473  118c				   .zeroPos
    474  118c		       a2 70		      ldx	#$70	; 2	     magic value #1 for Cosmic Ark stars
    475  118e		       85 50		      sta	RESP0	; 3 =	5    @22..67 (@look around!)
    476  1190		       a5 b7		      lda	BGColour	; 3
    477  1192		       86 62		      stx	HMM0	; 3	     for extra life stars!
    478  1194		       85 42		      sta	WSYNC	; 3
    479  1196							;    sta WSYNC
    480  1196							;    sta WSYNC
    481  1196							;---------------------------------------------------------------
    482  1196		       85 6a		      sta	HMOVE	; 3
    483  1198		       85 49		      sta	COLUBK
    484  119a		       60		      rts		; 6	     @09
    485  119b
    486  119b							;------------------------------------------------------------------------------
    487  119b				   Score3x2Fix SUBROUTINE
      0  119b					      DEFINE_SUBROUTINE	DrawDigits3x2
      1  119b		       00 02	   BANK_DrawDigits3x2 =	_CURRENT_BANK
      2  119b					      SUBROUTINE
      3  119b				   DrawDigits3x2
    489  119b							;					     @07
    490  119b		       a9 16		      lda	#%010110	; 2
    491  119d		       a0 ef		      ldy	#$f0-1	; 2		     moved slightly out of center to match 1x6 display position
    492  119f		       20 f8 f1 	      jsr	PrepareDrawDigits2	;49 = 53    @60
    493  11a2
    494  11a2		       a9 00		      lda	#0
    495  11a4		       85 66		      sta	VDELP1
    496  11a6				   LoopDraw3x2		;
    497  11a6		       85 42		      sta	WSYNC	; 3
    498  11a8							;---------------------------------------------------------------
    499  11a8		       85 6a		      sta	HMOVE	; 3 =	3
    500  11aa		       b9 ad f0 	      lda	CharP-1,y	; 4
    501  11ad		       85 5b		      sta	GRP0	; 3
    502  11af				   SMPLAYER
    503  11af		       b9 3f f3 	      lda	OneR-1,y	; 4
    504  11b2		       85 5c		      sta	GRP1	; 3 = 14    @17
    505  11b4		       b9 b4 f0 	      lda	charPlace-1,y	; 4
    506  11b7				   SMMEN
    507  11b7		       be 38 f3 	      ldx	ThreeR-1,y	; 4 =	8
      0  11ba					      SLEEP	5	;   =	5
      1  11ba				   .CYCLES    SET	5
      2  11ba
      3  11ba				  -	      IF	.CYCLES < 2
      4  11ba				  -	      ECHO	"MACRO ERROR: 'SLEEP': Duration must be > 1"
      5  11ba				  -	      ERR
      6  11ba					      ENDIF
      7  11ba
      8  11ba					      IF	.CYCLES & 1
      9  11ba					      IFNCONST	NO_ILLEGAL_OPCODES
     10  11ba		       04 00		      nop	0
     11  11bc				  -	      ELSE
     12  11bc				  -	      bit	VSYNC
     13  11bc					      ENDIF
     14  11bc				   .CYCLES    SET	.CYCLES - 3
     15  11bc					      ENDIF
     16  11bc
     17  11bc					      REPEAT	.CYCLES / 2
     18  11bc		       ea		      nop
     19  11bd					      REPEND
    509  11bd		       85 5b		      sta	GRP0	; 3
    510  11bf				   SMLEVELX
    511  11bf		       b9 ad f0 	      lda	CharA-1,y	; 4
    512  11c2		       85 6b		      sta	HMCLR	; 3 = 10    @40
    513  11c4		       86 5c		      stx	GRP1	; 3 =	3    @43
    514  11c6		       85 5b		      sta	GRP0	; 3
    515  11c8				   SMLEVEL
    516  11c8		       b9 3f f3 	      lda	OneR-1,y	; 4
    517  11cb		       85 5c		      sta	GRP1	; 3 = 10    @53
    518  11cd
    519  11cd		       88		      dey		; 2
      0  11ce					      CHECKPAGE_BNE	LoopDraw3x2	;2/3= 5    @58
      8  11ce					      LIST	ON
      9  11ce		       d0 d6		      bne	LoopDraw3x2
    521  11d0							;					     @57
      0  11d0					      SLEEP	3	; 3
      1  11d0				   .CYCLES    SET	3
      2  11d0
      3  11d0				  -	      IF	.CYCLES < 2
      4  11d0				  -	      ECHO	"MACRO ERROR: 'SLEEP': Duration must be > 1"
      5  11d0				  -	      ERR
      6  11d0					      ENDIF
      7  11d0
      8  11d0					      IF	.CYCLES & 1
      9  11d0					      IFNCONST	NO_ILLEGAL_OPCODES
     10  11d0		       04 00		      nop	0
     11  11d2				  -	      ELSE
     12  11d2				  -	      bit	VSYNC
     13  11d2					      ENDIF
     14  11d2				   .CYCLES    SET	.CYCLES - 3
     15  11d2					      ENDIF
     16  11d2
     17  11d2				  -	      REPEAT	.CYCLES / 2
     18  11d2				  -	      nop
     19  11d2					      REPEND
    523  11d2		       4c 36 f1 	      jmp	ExitDigitKernel6	; 9 = 12    @69  'BEQ' WAS A DANGEROUS ASSUMPTION OF STATUS FLAG!!
    524  11d5
    525  11d5
    526  11d5							;------------------------------------------------------------------------------
      0  11d5					      DEFINE_SUBROUTINE	DrawDigits
      1  11d5		       00 02	   BANK_DrawDigits =	_CURRENT_BANK
      2  11d5					      SUBROUTINE
      3  11d5				   DrawDigits
    528  11d5
    529  11d5				   VblankLoopGame
    530  11d5		       ac 84 02 	      ldy	INTIM
    531  11d8		       d0 fb		      bne	VblankLoopGame
    532  11da
    533  11da					      IF	WAIT_FOR_INITIAL_DRAW
    534  11da		       a4 b4		      ldy	blankState
    535  11dc					      ENDIF
    536  11dc		       84 41		      sty	VBLANK	; 3	     <-- 0
    537  11de		       a5 cf		      lda	scoringFlags	; 3
    538  11e0		       29 03		      and	#DISPLAY_FLAGS	; 2
    539  11e2		       aa		      tax		; 2
    540  11e3
    541  11e3							;    DEFINE_SUBROUTINE DrawDigit2
    542  11e3							;
    543  11e3							;    ; Generic interface to scoring routine
    544  11e3
    545  11e3		       bd ee f1 	      lda	ScoreKernelLo,x	; 4
    546  11e6
    547  11e6		       85 42		      sta	WSYNC	; 3
    548  11e8							;---------------------------------------------------------------
    549  11e8		       8d ec f5 	      sta	SMJUMP+1+RAM_WRITE	; 4
    550  11eb				   SMJUMP
    551  11eb		       4c 00 f1 	      jmp	DrawDigits1x6	; 3 =	7    @07
    552  11ee
    553  11ee				   ScoreKernelLo
    554  11ee		       3b		      .byte.b	<Score2x4Fix	; TARGETs, time
    555  11ef		       00		      .byte.b	<Score1x6Fix	; score
    556  11f0		       9b		      .byte.b	<Score3x2Fix	; player, lives, level
    557  11f1		       00		      .byte.b	<Score1x6Fix	; high score
    558  11f2
      0  11f2					      CHECKPAGE	DrawDigits1x6	; AD: the jump requires all in the same page, so let's enforce that
      8  11f2					      LIST	ON
    560  11f2
    561  11f2							;------------------------------------------------------------------------------
      0  11f2					      DEFINE_SUBROUTINE	PrepareDrawDigits
      1  11f2		       00 02	   BANK_PrepareDrawDigits =	_CURRENT_BANK
      2  11f2					      SUBROUTINE
      3  11f2				   PrepareDrawDigits
    563  11f2							;					     @13
    564  11f2		       a0 d1		      ldy	#$d1	; 2
    565  11f4		       a9 13		      lda	#%010011	; 2
    566  11f6		       85 66		      sta	VDELP1	; 3 =	7
    567  11f8				   PrepareDrawDigits2		;	    @17/20
    568  11f8		       84 65		      sty	VDELP0	; 3 =	3
    569  11fa
    570  11fa		       85 45		      sta	NUSIZ1	; 3
    571  11fc		       85 44		      sta	NUSIZ0	; 3 =	6
    572  11fe
    573  11fe		       8d 4b 00 	      sta.w	REFP0	; 4		     bit 3 is always clear
    574  1201		       85 50		      sta	RESP0	; 3	     @33/36
    575  1203		       85 51		      sta	RESP1	; 3 = 10    @36/39
    576  1205
    577  1205		       84 60		      sty	HMP0	; 3
    578  1207		       c8		      iny		; 2
    579  1208		       84 61		      sty	HMP1	; 3 =	8
    580  120a				   SMCOLOR
    581  120a		       a0 9a		      ldy	#SCORE_COL	; 2
    582  120c		       84 46		      sty	COLUP0	; 3
    583  120e		       84 47		      sty	COLUP1	; 3 =	8
    584  1210
    585  1210		       a0 07		      ldy	#DIGIT_H	; 2
    586  1212		       60		      rts		; 6 =	8
    587  1213							; total: 27
    588  1213
    589  1213
    590  1213							;------------------------------------------------------------------------------
      0  1213					      DEFINE_SUBROUTINE	UpdateScore
      1  1213		       00 02	   BANK_UpdateScore =	_CURRENT_BANK
      2  1213					      SUBROUTINE
      3  1213				   UpdateScore
    592  1213							; a = added score value
    593  1213
    594  1213							; initially switch to score:
    595  1213		       a0 01		      ldy	#DISPLAY_SCORE
    596  1215		       84 e1		      sty	newDisplay
    597  1217
    598  1217		       18		      clc
    599  1218		       f8		      sed
    600  1219		       a0 04		      ldy	#SM_OFS_SCORE
    601  121b				   .loopScore
    602  121b		       79 8a f3 	      adc	ScoreCurrent-SM_OFS_SCORE,y
    603  121e		       99 8a f7 	      sta	ScoreCurrent-SM_OFS_SCORE+RAM_WRITE,y
    604  1221		       08		      php
    605  1222							; *** bonus life every 500 points: ***
    606  1222							;	  cpy #SM_OFS_SCORE+1
    607  1222							;	  bne .skipBonusLife
    608  1222							;	  tax
    609  1222
    610  1222							;	  and #$0f
    611  1222							;	  beq .bonusLife		      ; 000?
    612  1222							;	  cmp #$05
    613  1222							;	  bne .noBonusLife		      ; 500?
    614  1222							;.bonusLife:
    615  1222							; add extra life, limited to 9
    616  1222
    617  1222							;	  lda ManCount
    618  1222							;	  and #$0f
    619  1222							;	  cmp #9
    620  1222							;	  bcs .noBonusLife
    621  1222							;	  inc ManCount
    622  1222
    623  1222							; bonus life has priority over score:
    624  1222							;	  lda #DISPLAY_LIVES
    625  1222							;	  sta newDisplay
    626  1222							;lda #EXTRA_LIFE_TIMER
    627  1222							;sta extraLifeTimer
    628  1222
    629  1222				   .noBonusLife
    630  1222		       8a		      txa
    631  1223				   .skipBonusLife
    632  1223		       20 d8 f2 	      jsr	SetupBCDPtr
    633  1226		       28		      plp
    634  1227		       a9 00		      lda	#0
    635  1229		       b0 f0		      bcs	.loopScore
    636  122b		       d8		      cld
    637  122c
    638  122c							; switch display
    639  122c		       a5 cf		      lda	scoringFlags
    640  122e		       29 03		      and	#DISPLAY_FLAGS
    641  1230		       c5 e1		      cmp	newDisplay	; lower priority than current?
    642  1232		       f0 08		      beq	.restartTime
    643  1234		       b0 0a		      bcs	.skipNew
    644  1236		       45 cf		      eor	scoringFlags	; remove existing score mode
    645  1238		       05 e1		      ora	newDisplay	; switch to new score mode
    646  123a		       85 cf		      sta	scoringFlags
    647  123c				   .restartTime
    648  123c		       a9 3c		      lda	#SCORING_TIMER	; maybe always restart timer?
    649  123e		       85 ce		      sta	scoringTimer
    650  1240				   .skipNew
    651  1240
    652  1240		       60		      rts
    653  1241
    654  1241							;---------------------------------------------------------------------------
    655  1241
      0  1241					      DEFINE_SUBROUTINE	SwapPlayers
      1  1241		       00 02	   BANK_SwapPlayers =	_CURRENT_BANK
      2  1241					      SUBROUTINE
      3  1241				   SwapPlayers
    657  1241
    658  1241							; assume no new high score:
    659  1241		       a0 ff		      ldy	#-1
    660  1243		       84 e4		      sty	highScoreSK
    661  1245
    662  1245							; update highscore after last live:
    663  1245		       a5 ac		      lda	ManCount
    664  1247		       29 0f		      and	#$0f	; player has lives left?
    665  1249		       d0 1c		      bne	.playerAlive	; YES, so we don't check high score
    666  124b
    667  124b							; check for a new high score:
    668  124b							;	  ldy #-1
    669  124b		       18		      clc		; score has to be at least 1 bigger!
    670  124c				   .loopCheckHighScore
    671  124c		       c8		      iny
    672  124d		       b9 8e f3 	      lda	ScoreCurrent,y
    673  1250		       f9 98 f3 	      sbc	HighScore,y
    674  1253		       98		      tya
    675  1254		       49 02		      eor	#2
    676  1256		       d0 f4		      bne	.loopCheckHighScore
    677  1258		       90 0d		      bcc	.noHighScore
    678  125a
    679  125a							; new high score, update:
    680  125a		       a2 04		      ldx	#5-1
    681  125c				   .loopSetHighScore
    682  125c		       bd 8e f3 	      lda	ScoreCurrent,x
    683  125f		       9d 98 f7 	      sta	HighScore+RAM_WRITE,x
    684  1262		       95 e4		      sta	highScoreSK,x
    685  1264		       ca		      dex
    686  1265		       10 f5		      bpl	.loopSetHighScore
    687  1267				   .noHighScore
    688  1267
    689  1267				   .playerAlive
    690  1267		       a5 ac		      lda	ManCount
    691  1269		       29 f0		      and	#$f0	; other player has lives left?
    692  126b		       f0 21		      beq	.otherPlayerDead	; NO, so we don't swap scores
    693  126d
    694  126d							; save the current player variables to the player's backup:
    695  126d		       a0 02		      ldy	#3-1
    696  126f				   .swapScore
    697  126f		       be 93 f3 	      ldx	PlayerScores,y
    698  1272		       b9 8e f3 	      lda	ScoreCurrent,y
    699  1275		       99 93 f7 	      sta	PlayerScores+RAM_WRITE,y
    700  1278		       8a		      txa
    701  1279		       99 8e f7 	      sta	ScoreCurrent+RAM_WRITE,y
    702  127c		       88		      dey
    703  127d		       10 f0		      bpl	.swapScore
    704  127f
    705  127f							; swap levelx and level:
    706  127f		       a2 01		      ldx	#1
    707  1281				   .loopLevelXLevel
    708  1281		       bc 96 f3 	      ldy	PlayerLevelX,x
    709  1284		       b5 b8		      lda	levelX,x
    710  1286		       9d 96 f7 	      sta	PlayerLevelX+RAM_WRITE,x
    711  1289		       94 b8		      sty	levelX,x
    712  128b		       ca		      dex
    713  128c		       10 f3		      bpl	.loopLevelXLevel
    714  128e
    715  128e				   .otherPlayerDead
    716  128e		       60		      rts
    717  128f
    718  128f							;---------------------------------------------------------------------------
    719  128f
    720  128f				   HighScoreColTbl
    721  128f		       44 44		      .byte.b	SCORE_COL_HIGH_NTSC, SCORE_COL_HIGH_NTSC
    722  1291		       66 66		      .byte.b	SCORE_COL_HIGH_PAL, SCORE_COL_HIGH_PAL
    723  1293
      0  1293					      DEFINE_SUBROUTINE	GeneralScoringSetups
      1  1293		       00 02	   BANK_GeneralScoringSetups =	_CURRENT_BANK
      2  1293					      SUBROUTINE
      3  1293				   GeneralScoringSetups
    725  1293
    726  1293		       a0 04		      ldy	#SM_OFS_SCORE
    727  1295				   .loopScore2
    728  1295		       a5 cf		      lda	scoringFlags
    729  1297		       29 03		      and	#DISPLAY_FLAGS
    730  1299		       c9 03		      cmp	#DISPLAY_HIGH
    731  129b		       a6 81		      ldx	Platform
    732  129d		       bd 8f f2 	      lda	HighScoreColTbl,x
    733  12a0		       aa		      tax
    734  12a1		       b9 94 f3 	      lda	HighScore-SM_OFS_SCORE,y
    735  12a4		       b0 05		      bcs	.showHighScore
    736  12a6		       a2 9a		      ldx	#SCORE_COL
    737  12a8		       b9 8a f3 	      lda	ScoreCurrent-SM_OFS_SCORE,y
    738  12ab				   .showHighScore
    739  12ab		       8e 0b f6 	      stx	SMCOLOR+1+RAM_WRITE
    740  12ae		       20 d8 f2 	      jsr	SetupBCDPtr
    741  12b1		       c0 07		      cpy	#SM_OFS_SCORE+3
    742  12b3		       90 e0		      bcc	.loopScore2
    743  12b5
    744  12b5							; display number of lives in leftmost digit of middle score XX nX XX
    745  12b5
    746  12b5							;lda ManCount
    747  12b5							;and #$0f
    748  12b5							;tay
    749  12b5							;lda DigitVectorLOr,y
    750  12b5							;sta SMMEN+1+RAM_WRITE
    751  12b5
    752  12b5							; modify player number pointer (Xp XX XX)
    753  12b5
    754  12b5							;ldy whichPlayer
    755  12b5							;lda DigitVectorLOr+1,y
    756  12b5							;sta SMPLAYER+1+RAM_WRITE
    757  12b5
    758  12b5							; fall through
    759  12b5
    760  12b5							;    ;---------------------------------------------------------------------------
    761  12b5
    762  12b5							; modify levelx character pointer (XX XX cX)
    763  12b5
    764  12b5							;ldx #<charPlace-1
    765  12b5							;lda levelDisplay
    766  12b5							;cmp #$80
    767  12b5							;and #$1f
    768  12b5							;tay
    769  12b5							;bcs .intermission
    770  12b5							;ldx CharVectorLO,y
    771  12b5							;ldy level
    772  12b5							;.intermission
    773  12b5							;stx SMLEVELX+1+RAM_WRITE
    774  12b5
    775  12b5							; modify level number pointer (XX XX Xl)
    776  12b5
    777  12b5							;lda DigitVectorLOr+1,y
    778  12b5							;sta SMLEVEL+1+RAM_WRITE
    779  12b5
    780  12b5							;---------------------------------------------------------------------------
    781  12b5
    782  12b5		       4c cf f2 	      jmp	SetupTimePtr	; modify time pointers
    783  12b8
    784  12b8							;------------------------------------------------------------------------------
    785  12b8							;    DEFINE_SUBROUTINE SetupGameOverPtr
    786  12b8
    787  12b8							;		  ldy #8-1
    788  12b8							;.loopGameOver:
    789  12b8							;		  ldx SMGameOverOfs,y
    790  12b8							;		  lda SMGameOverPtr,y
    791  12b8							;		  sta SM_BASE+1+RAM_WRITE,x
    792  12b8							;		  dey
    793  12b8							;		  bpl .loopGameOver
    794  12b8
    795  12b8							;		  rts
    796  12b8
    797  12b8							;SMGameOverOfs:
    798  12b8							;		  .byte <SM_TARGET3-SM_BASE, <SM_TARGET2-SM_BASE
    799  12b8							;		  .byte <SM_TARGET1-SM_BASE, <SM_TARGET0-SM_BASE
    800  12b8							;		  .byte <SM_Time3-SM_BASE, <SM_Time2-SM_BASE
    801  12b8							;		  .byte <SM_Time1-SM_BASE, <SM_Time0-SM_BASE
    802  12b8							;SMGameOverPtr:
    803  12b8							;		  .byte <CharG-1, <CharAL-1, <CharM-1, <CharEL-1
    804  12b8							;		  .byte <CharO-1, <CharVL-1, <CharE-1, <CharRL-1
    805  12b8
    806  12b8							;------------------------------------------------------------------------------
    807  12b8
      0  12b8					      DEFINE_SUBROUTINE	DrawTargetsRequired
      1  12b8		       00 02	   BANK_DrawTargetsRequired =	_CURRENT_BANK
      2  12b8					      SUBROUTINE
      3  12b8				   DrawTargetsRequired
    809  12b8							; Show current TARGET counter in the top left
    810  12b8
    811  12b8		       a0 00		      ldy	#SM_OFS_TARGETS
    812  12ba		       a5 bd		      lda	targetsRequired
    813  12bc		       20 d8 f2 	      jsr	SetupBCDPtr
    814  12bf
    815  12bf		       a9 b0		      lda	#ID_TARGET<<4	; if no extra targets, display the normal icon
    816  12c1		       24 cf		      bit	scoringFlags	;
    817  12c3		       10 13		      bpl	SetupBCDPtr
    818  12c5		       a9 c0		      lda	#ID_EXTRA<<4	; otherwise, display the extra icon
    819  12c7		       50 0f		      bvc	SetupBCDPtr
    820  12c9		       09 01		      ora	#1	; display 1xx targets
    821  12cb		       d0 0b		      bne	SetupBCDPtr	; unconditional
    822  12cd
    823  12cd							;------------------------------------------------------------------------------
      0  12cd					      DEFINE_SUBROUTINE	DrawTime
      1  12cd		       00 02	   BANK_DrawTime =	_CURRENT_BANK
      2  12cd					      SUBROUTINE
      3  12cd				   DrawTime
    825  12cd
    826  12cd							; mid-digit-change, but we may be required to flash/display
    827  12cd		       a0 02		      ldy	#SM_OFS_TIME
    828  12cf							;------------------------------------------------------------------------------
      0  12cf					      DEFINE_SUBROUTINE	SetupTimePtr
      1  12cf		       00 02	   BANK_SetupTimePtr =	_CURRENT_BANK
      2  12cf					      SUBROUTINE
      3  12cf				   SetupTimePtr
    830  12cf
    831  12cf		       a5 be		      lda	moveCounter
    832  12d1		       20 d8 f2 	      jsr	SetupBCDPtr
    833  12d4		       a5 bf		      lda	moveCounter+1
    834  12d6		       09 d0		      ora	#ID_CLOCK<<4
    835  12d8
    836  12d8							; fall through
    837  12d8
    838  12d8							;------------------------------------------------------------------------------
      0  12d8					      DEFINE_SUBROUTINE	SetupBCDPtr
      1  12d8		       00 02	   BANK_SetupBCDPtr =	_CURRENT_BANK
      2  12d8					      SUBROUTINE
      3  12d8				   SetupBCDPtr
    840  12d8
    841  12d8							; a = BCD value
    842  12d8							; y = SM table offset
    843  12d8
    844  12d8		       48		      pha
    845  12d9		       29 0f		      and	#$0f
    846  12db		       aa		      tax
    847  12dc		       bd 0e f0 	      lda	DigitVectorLO,x	; low nibble: left aligned chars
    848  12df		       be 19 f0 	      ldx	SMTblLSB,y
    849  12e2		       9d 00 f5 	      sta	SM_BASE+RAM_WRITE,x
    850  12e5		       68		      pla
    851  12e6		       4a		      lsr
    852  12e7		       4a		      lsr
    853  12e8		       4a		      lsr
    854  12e9		       4a		      lsr
    855  12ea		       aa		      tax
    856  12eb		       bd 00 f0 	      lda	DigitVectorLOr,x	; high nibble: right aligned chars
    857  12ee		       be 20 f0 	      ldx	SMTblMSB,y
    858  12f1		       9d 00 f5 	      sta	SM_BASE+RAM_WRITE,x
    859  12f4
    860  12f4		       c8		      iny
    861  12f5
    862  12f5		       a5 c9		      lda	ROM_Bank
    863  12f7				   RTS
    864  12f7		       60		      rts
    865  12f8
      0  12f8					      OPTIONAL_PAGEBREAK	"LeftDigits", (DIGIT_H*13)	; cannot index across page!
 PAGE BREAK INSERTED FOR  LeftDigits
 REQUESTED SIZE =  $5b
 WASTED SPACE =  $8
 PAGEBREAK LOCATION =  $f300
     10  1300					      LIST	ON
    867  1300
    868  1300					      IF	<. = 0
    869  1300		       00		      .byte.b	0	; required!
    870  1301					      ENDIF
    871  1301
    872  1301				   BLANKR
    873  1301		       00 00 00 00*	      .ds	DIGIT_H, 0
    874  1308
    875  1308				   DequalsR
    876  1308		       00		      .byte.b	%00000000
    877  1309		       00		      .byte.b	%00000000
    878  130a		       f0		      .byte.b	%11110000
    879  130b		       00		      .byte.b	%00000000
    880  130c		       f0		      .byte.b	%11110000
    881  130d		       00		      .byte.b	%00000000
    882  130e		       f0		      .byte.b	%11110000
    883  130f				   DplusR
    884  130f		       10		      .byte.b	%00010000
    885  1310		       28		      .byte.b	%00101000
    886  1311		       6c		      .byte.b	%01101100
    887  1312		       c6		      .byte.b	%11000110
    888  1313		       6c		      .byte.b	%01101100
    889  1314		       28		      .byte.b	%00101000
    890  1315		       10		      .byte.b	%00010000
    891  1316
    892  1316				   ClockR
    893  1316		       00		      .byte.b	%00000000
    894  1317		       48		      .byte.b	%01001000
    895  1318		       fc		      .byte.b	%11111100
    896  1319		       48		      .byte.b	%01001000
    897  131a		       48		      .byte.b	%01001000
    898  131b		       fc		      .byte.b	%11111100
    899  131c		       48		      .byte.b	%01001000
    900  131d				   NineR
    901  131d		       0f		      .byte.b	%00001111
    902  131e		       01		      .byte.b	%00000001
    903  131f		       01		      .byte.b	%00000001
    904  1320		       7f		      .byte.b	%01111111
    905  1321		       41		      .byte.b	%01000001
    906  1322		       41		      .byte.b	%01000001
    907  1323		       7f		      .byte.b	%01111111
    908  1324				   SixR
    909  1324		       7f		      .byte.b	%01111111
    910  1325		       41		      .byte.b	%01000001
    911  1326		       41		      .byte.b	%01000001
    912  1327		       7f		      .byte.b	%01111111
    913  1328		       40		      .byte.b	%01000000
    914  1329		       40		      .byte.b	%01000000
    915  132a		       78		      .byte.b	%01111000
    916  132b				   EightR
    917  132b							;  .byte %00111110
    918  132b							;  .byte %01000011
    919  132b							;  .byte %01000011
    920  132b							;  .byte %00111110
    921  132b							;  .byte %00100011
    922  132b							;  .byte %00100011
    923  132b							;  .byte %00011110
    924  132b
    925  132b
    926  132b		       7f		      .byte.b	%01111111
    927  132c		       41		      .byte.b	%01000001
    928  132d		       41		      .byte.b	%01000001
    929  132e		       7f		      .byte.b	%01111111
    930  132f		       41		      .byte.b	%01000001
    931  1330		       41		      .byte.b	%01000001
    932  1331		       7f		      .byte.b	%01111111
    933  1332
    934  1332				   ZeroR
    935  1332		       7f		      .byte.b	%01111111
    936  1333		       41		      .byte.b	%01000001
    937  1334		       41		      .byte.b	%01000001
    938  1335		       41		      .byte.b	%01000001
    939  1336		       41		      .byte.b	%01000001
    940  1337		       41		      .byte.b	%01000001
    941  1338		       7f		      .byte.b	%01111111
    942  1339
    943  1339							;	  .byte %00111110
    944  1339							;	  .byte %01000011
    945  1339							;	  .byte %01000011
    946  1339							;	  .byte %01000011
    947  1339							;	  .byte %01000011
    948  1339							;	  .byte %00100011
    949  1339							;	  .byte %00011110
    950  1339				   ThreeR
    951  1339		       7f		      .byte.b	%01111111
    952  133a		       01		      .byte.b	%00000001
    953  133b		       01		      .byte.b	%00000001
    954  133c		       0f		      .byte.b	%00001111
    955  133d		       01		      .byte.b	%00000001
    956  133e		       01		      .byte.b	%00000001
    957  133f		       7f		      .byte.b	%01111111
    958  1340				   OneR
    959  1340		       08		      .byte.b	%00001000
    960  1341		       08		      .byte.b	%00001000
    961  1342		       08		      .byte.b	%00001000
    962  1343		       08		      .byte.b	%00001000
    963  1344		       08		      .byte.b	%00001000
    964  1345		       08		      .byte.b	%00001000
    965  1346		       08		      .byte.b	%00001000
    966  1347
    967  1347				   SevenR
    968  1347		       08		      .byte.b	%00001000
    969  1348		       08		      .byte.b	%00001000
    970  1349		       08		      .byte.b	%00001000
    971  134a		       0f		      .byte.b	%00001111
    972  134b		       01		      .byte.b	%00000001
    973  134c		       01		      .byte.b	%00000001
    974  134d		       7f		      .byte.b	%01111111
    975  134e
    976  134e				   TwoR
    977  134e		       7f		      .byte.b	%01111111
    978  134f		       40		      .byte.b	%01000000
    979  1350		       40		      .byte.b	%01000000
    980  1351		       7f		      .byte.b	%01111111
    981  1352		       01		      .byte.b	%00000001
    982  1353		       01		      .byte.b	%00000001
    983  1354		       7f		      .byte.b	%01111111
    984  1355				   FiveR
    985  1355		       7f		      .byte.b	%01111111
    986  1356		       01		      .byte.b	%00000001
    987  1357		       01		      .byte.b	%00000001
    988  1358		       7f		      .byte.b	%01111111
    989  1359		       40		      .byte.b	%01000000
    990  135a		       40		      .byte.b	%01000000
    991  135b		       78		      .byte.b	%01111000
    992  135c				   FourR
    993  135c		       08		      .byte.b	%00001000
    994  135d		       08		      .byte.b	%00001000
    995  135e		       08		      .byte.b	%00001000
    996  135f		       7f		      .byte.b	%01111111
    997  1360		       48		      .byte.b	%01001000
    998  1361		       48		      .byte.b	%01001000
    999  1362		       48		      .byte.b	%01001000
   1000  1363
   1001  1363							;CharAL:
   1002  1363							;    .byte %11100110
   1003  1363							;    .byte %11100110
   1004  1363							;    .byte %11111110
   1005  1363							;    .byte %11100110
   1006  1363							;    .byte %11100110
   1007  1363							;    .byte %01111100
   1008  1363							;    .byte %00111000
   1009  1363							;CharEL:
   1010  1363							;    .byte %11111110
   1011  1363							;    .byte %11111110
   1012  1363							;    .byte %11100000
   1013  1363							;    .byte %11100000
   1014  1363							;    .byte %11111100
   1015  1363							;    .byte %11100000
   1016  1363							;    .byte %11111110
   1017  1363							;CharRL:
   1018  1363							;    .byte %11100110
   1019  1363							;    .byte %11100110
   1020  1363							;    .byte %11111100
   1021  1363							;    .byte %11111100
   1022  1363							;    .byte %11100110
   1023  1363							;    .byte %11100110
   1024  1363							;    .byte %11111100
   1025  1363							;CharVL:
   1026  1363							;    .byte %00111000
   1027  1363							;    .byte %01111100
   1028  1363							;    .byte %11100110
   1029  1363							;    .byte %11100110
   1030  1363							;    .byte %11100110
   1031  1363							;    .byte %11100110
   1032  1363							;    .byte %11100110
   1033  1363
      0  1363					      CHECKPAGE	BLANKR
      8  1363					      LIST	ON
   1035  1363
   1036  1363							;---------------------------------------------------------------------------
   1037  1363
      0  1363					      DEFINE_SUBROUTINE	GameInitialise
      1  1363		       00 02	   BANK_GameInitialise =	_CURRENT_BANK
      2  1363					      SUBROUTINE
      3  1363				   GameInitialise
   1039  1363
   1040  1363							; copy loaded SK high score into scoring RAM:
   1041  1363		       a2 02		      ldx	#3-1
   1042  1365				   .loopCopyHighScore
   1043  1365		       b5 e4		      lda	highScoreSK,x
   1044  1367		       c9 ff		      cmp	#$ff
   1045  1369		       f0 06		      beq	.noSaveKey
   1046  136b		       9d 98 f7 	      sta	HighScore+RAM_WRITE,x
   1047  136e		       ca		      dex
   1048  136f		       10 f4		      bpl	.loopCopyHighScore
   1049  1371				   .noSaveKey
   1050  1371
   1051  1371							; clear both players scores
   1052  1371		       a0 05		      ldy	#2*3-1
   1053  1373		       a9 00		      lda	#0
   1054  1375				   .loopClearScore
   1055  1375		       99 8e f7 	      sta	ScoreCurrent+RAM_WRITE,y
   1056  1378		       88		      dey
   1057  1379		       10 fa		      bpl	.loopClearScore
   1058  137b
   1059  137b							; copy levelX and level for other player and SaveKey:
   1060  137b		       a5 b8		      lda	levelX
   1061  137d		       8d 96 f7 	      sta	PlayerLevelX+RAM_WRITE
   1062  1380		       a5 e7		      lda	startingLevel
   1063  1382		       8d 91 f7 	      sta	StartLevelX+RAM_WRITE
   1064  1385		       a5 b9		      lda	level
   1065  1387		       8d 97 f7 	      sta	PlayerLevel+RAM_WRITE
   1066  138a		       8d 92 f7 	      sta	StartLevel+RAM_WRITE
   1067  138d		       60		      rts
   1068  138e
   1069  138e							;---------------------------------------------------------------------------
   1070  138e
   1071  138e		       00 00 00    ScoreCurrent ds	3, 0
   1072  1391							; start levelx and level have to be after ScoreCurrent!
   1073  1391		       00	   StartLevelX .byte.b	0
   1074  1392		       00	   StartLevel .byte.b	0
   1075  1393		       00 00 00    PlayerScores ds	3, 0
   1076  1396							; levelx and level have to be consecutive variables!
   1077  1396		       00	   PlayerLevelX .byte.b	0
   1078  1397		       00	   PlayerLevel .byte.b	0
   1079  1398		       00 00 00 00*HighScore  ds	3+2, 0	; two extra bytes to save code
   1080  139d
   1081  139d
   1082  139d
   1083  139d							;------------------------------------------------------------------------------
   1084  139d
      0  139d					      CHECK_HALF_BANK_SIZE	"ROM_SHADOW_OF_BANK_SCORING"
      1  139d
      2  139d
      3  139d		       03 9d	   .TEMP      =	* - BANK_START
 ROM_SHADOW_OF_BANK_SCORING (1K) SIZE =  $39d , FREE= $63
      4  139d					      ECHO	"ROM_SHADOW_OF_BANK_SCORING", "(1K) SIZE = ", .TEMP, ", FREE=", ROM_BANK_SIZE/2 - .TEMP
      5  139d				  -	      if	( .TEMP ) > ROM_BANK_SIZE/2
      6  139d				  -	      ECHO	"HALF-BANK OVERFLOW @ ", * - ORIGIN
      7  139d				  -	      ERR
      8  139d					      endif
   1086  139d
   1087  139d							;------------------------------------------------------------------------------
   1088  139d
   1089  139d							; LEVEL DATA banks can go anywhere - *EXCEPT* for the same bank as the level
   1090  139d							; decoder.  Ironic, isn't it?	They calculate a constant -- MAX_LEVEL_SIZE
   1091  139d							; which is used as a buffer size inside UnpackLevel.  It's not important if
   1092  139d							; this is defined before or after, as once the levels have processed it will be
   1093  139d							; correct. Note, that levels should all be defined BEFORE *OR* AFTER the
   1094  139d							; UnpackLevel code -- but that they should not be both, nor in the same bank.
   1095  139d							; TODO: verify above is still valid
   1096  139d
   1097  139d
      0  139d					      CHECK_BANK_SIZE	"ROM_SHADOW_OF_BANK_SCORING -- full 2K"
      1  139d		       03 9d	   .TEMP      =	* - BANK_START
 ROM_SHADOW_OF_BANK_SCORING -- full 2K (2K) SIZE =  $39d , FREE= $463
      2  139d					      ECHO	"ROM_SHADOW_OF_BANK_SCORING -- full 2K", "(2K) SIZE = ", .TEMP, ", FREE=", ROM_BANK_SIZE - .TEMP
      3  139d				  -	      if	( .TEMP ) > ROM_BANK_SIZE
      4  139d				  -	      ECHO	"BANK OVERFLOW @ ", * - ORIGIN
      5  139d				  -	      ERR
      6  139d					      endif
------- FILE ./sokoboo.asm
------- FILE BANK_GENERIC.asm LEVEL 2 PASS 4
      0  139d					      include	"BANK_GENERIC.asm"
      1  139d							;    Sokoboo - a Sokoban implementation
      2  139d							;    using a generic tile-based display engine for the Atari 2600
      3  139d							;    Sokoban (倉庫番)™ is © Falcon Co., Ltd.
      4  139d							;
      5  139d							;    Code related to this Sokoban™ implementation was developed by Andrew Davie.
      6  139d							;
      7  139d							;    Code related to the generic tile-based display engine was developed by
      8  139d							;    Andrew Davie and Thomas Jentzsch during 2003-2011 and is
      9  139d							;    Copyright(C)2003-2019 Thomas Jentzsch and Andrew Davie - contacts details:
     10  139d							;    Andrew Davie (andrew@taswegian.com), Thomas Jentzsch (tjentzsch@yahoo.de).
     11  139d							;
     12  139d							;    Code related to music and sound effects uses the TIATracker music player
     13  139d							;    Copyright 2016 Andre "Kylearan" Wichmann - see source code in the "sound"
     14  139d							;    directory for Apache licensing details.
     15  139d							;
     16  139d							;    Some level data incorporated in this program were created by Lee J Haywood.
     17  139d							;    See the copyright notices in the License directory for a list of level
     18  139d							;    contributors.
     19  139d							;
     20  139d							;    Except where otherwise indicated, this software is released under the
     21  139d							;    following licensing arrangement...
     22  139d							;
     23  139d							;    This program is free software: you can redistribute it and/or modify
     24  139d							;    it under the terms of the GNU General Public License as published by
     25  139d							;    the Free Software Foundation, either version 3 of the License, or
     26  139d							;    (at your option) any later version.
     27  139d							;    see https://www.gnu.org/licenses/gpl-3.0.en.html
     28  139d
     29  139d							;    This program is distributed in the hope that it will be useful,
     30  139d							;    but WITHOUT ANY WARRANTY; without even the implied warranty of
     31  139d							;    MERCHANTABILITY or FITNESS FOR A PARTICULAR PURPOSE.  See the
     32  139d							;    GNU General Public License for more details.
     33  139d
     34  139d							;------------------------------------------------------------------------------
     35  139d							;##############################################################################
     36  139d							;------------------------------------------------------------------------------
     37  139d
      0  139d					      NEWBANK	GENERIC_BANK_1
      1  1f1e ????				      SEG	GENERIC_BANK_1
      2  1800					      ORG	ORIGIN
      3  1800					      RORG	$F000
      4  1800				   BANK_START SET	*
      5  1800				   GENERIC_BANK_1 SET	ORIGIN / 2048
      6  1800				   ORIGIN     SET	ORIGIN + 2048
      7  1800				   _CURRENT_BANK SET	GENERIC_BANK_1
     39  1800
     40  1800
     41  1800
      0  1800					      DEFINE_1K_SEGMENT	DECODE_LEVEL_SHADOW
      1  1800					      ALIGN	$400
      2  1800				   SEGMENT_DECODE_LEVEL_SHADOW SET	*
      3  1800				   BANK_DECODE_LEVEL_SHADOW SET	_CURRENT_BANK
------- FILE DecodeLevel.asm LEVEL 3 PASS 4
      0  1800					      include	"DecodeLevel.asm"
      1  1800							;    Sokoboo - a Sokoban implementation
      2  1800							;    using a generic tile-based display engine for the Atari 2600
      3  1800							;    Sokoban (倉庫番)™ is © Falcon Co., Ltd.
      4  1800							;
      5  1800							;    Code related to this Sokoban™ implementation was developed by Andrew Davie.
      6  1800							;
      7  1800							;    Code related to the generic tile-based display engine was developed by
      8  1800							;    Andrew Davie and Thomas Jentzsch during 2003-2011 and is
      9  1800							;    Copyright(C)2003-2019 Thomas Jentzsch and Andrew Davie - contacts details:
     10  1800							;    Andrew Davie (andrew@taswegian.com), Thomas Jentzsch (tjentzsch@yahoo.de).
     11  1800							;
     12  1800							;    Code related to music and sound effects uses the TIATracker music player
     13  1800							;    Copyright 2016 Andre "Kylearan" Wichmann - see source code in the "sound"
     14  1800							;    directory for Apache licensing details.
     15  1800							;
     16  1800							;    Some level data incorporated in this program were created by Lee J Haywood.
     17  1800							;    See the copyright notices in the License directory for a list of level
     18  1800							;    contributors.
     19  1800							;
     20  1800							;    Except where otherwise indicated, this software is released under the
     21  1800							;    following licensing arrangement...
     22  1800							;
     23  1800							;    This program is free software: you can redistribute it and/or modify
     24  1800							;    it under the terms of the GNU General Public License as published by
     25  1800							;    the Free Software Foundation, either version 3 of the License, or
     26  1800							;    (at your option) any later version.
     27  1800							;    see https://www.gnu.org/licenses/gpl-3.0.en.html
     28  1800
     29  1800							;    This program is distributed in the hope that it will be useful,
     30  1800							;    but WITHOUT ANY WARRANTY; without even the implied warranty of
     31  1800							;    MERCHANTABILITY or FITNESS FOR A PARTICULAR PURPOSE.  See the
     32  1800							;    GNU General Public License for more details.
     33  1800
     34  1800							; The ordering here corresponds to the ordering when playing...
     35  1800
     36  1800				   LevelInfoLO
     37  1800		       ff		      .byte.b	<(LEVEL__001_L-1)
     38  1801		       11		      .byte.b	<(LEVEL__001_R-1)
     39  1802		       1d		      .byte.b	<(LEVEL__002_L-1)
     40  1803		       36		      .byte.b	<(LEVEL__002_R-1)
     41  1804		       5e		      .byte.b	<(LEVEL__003_L-1)
     42  1805		       8a		      .byte.b	<(LEVEL__003_R-1)
     43  1806		       b4		      .byte.b	<(LEVEL__004_L-1)
     44  1807		       d7		      .byte.b	<(LEVEL__004_R-1)
     45  1808		       f3		      .byte.b	<(LEVEL__005_L-1)
     46  1809		       25		      .byte.b	<(LEVEL__005_R-1)
     47  180a		       64		      .byte.b	<(LEVEL__006_L-1)
     48  180b		       9f		      .byte.b	<(LEVEL__006_R-1)
     49  180c		       dd		      .byte.b	<(LEVEL__007_L-1)
     50  180d		       0a		      .byte.b	<(LEVEL__007_R-1)
     51  180e		       3d		      .byte.b	<(LEVEL__008_L-1)
     52  180f		       73		      .byte.b	<(LEVEL__008_R-1)
     53  1810		       a4		      .byte.b	<(LEVEL__009_L-1)
     54  1811		       d6		      .byte.b	<(LEVEL__009_R-1)
     55  1812		       06		      .byte.b	<(LEVEL__010_L-1)
     56  1813		       40		      .byte.b	<(LEVEL__010_R-1)
     57  1814		       73		      .byte.b	<(LEVEL__011_L-1)
     58  1815		       a6		      .byte.b	<(LEVEL__011_R-1)
     59  1816		       e0		      .byte.b	<(LEVEL__012_L-1)
     60  1817		       10		      .byte.b	<(LEVEL__012_R-1)
     61  1818		       4c		      .byte.b	<(LEVEL__013_L-1)
     62  1819		       8b		      .byte.b	<(LEVEL__013_R-1)
     63  181a		       be		      .byte.b	<(LEVEL__014_L-1)
     64  181b		       01		      .byte.b	<(LEVEL__014_R-1)
     65  181c		       44		      .byte.b	<(LEVEL__015_L-1)
     66  181d		       79		      .byte.b	<(LEVEL__015_R-1)
     67  181e		       be		      .byte.b	<(LEVEL__016_L-1)
     68  181f		       f5		      .byte.b	<(LEVEL__016_R-1)
     69  1820		       28		      .byte.b	<(LEVEL__017_L-1)
     70  1821		       72		      .byte.b	<(LEVEL__017_R-1)
     71  1822		       b5		      .byte.b	<(LEVEL__018_L-1)
     72  1823		       e9		      .byte.b	<(LEVEL__018_R-1)
     73  1824		       25		      .byte.b	<(LEVEL__019_L-1)
     74  1825		       60		      .byte.b	<(LEVEL__019_R-1)
     75  1826		       ff		      .byte.b	<(LEVEL__020_L-1)
     76  1827		       3e		      .byte.b	<(LEVEL__020_R-1)
     77  1828		       7e		      .byte.b	<(LEVEL__021_L-1)
     78  1829		       d4		      .byte.b	<(LEVEL__021_R-1)
     79  182a		       08		      .byte.b	<(LEVEL__022_L-1)
     80  182b		       4e		      .byte.b	<(LEVEL__022_R-1)
     81  182c		       8a		      .byte.b	<(LEVEL__023_L-1)
     82  182d		       cb		      .byte.b	<(LEVEL__023_R-1)
     83  182e		       0d		      .byte.b	<(LEVEL__024_L-1)
     84  182f		       5d		      .byte.b	<(LEVEL__024_R-1)
     85  1830		       a5		      .byte.b	<(LEVEL__025_L-1)
     86  1831		       e8		      .byte.b	<(LEVEL__025_R-1)
     87  1832		       27		      .byte.b	<(LEVEL__026_L-1)
     88  1833		       60		      .byte.b	<(LEVEL__026_R-1)
     89  1834		       a1		      .byte.b	<(LEVEL__027_L-1)
     90  1835		       df		      .byte.b	<(LEVEL__027_R-1)
     91  1836		       1d		      .byte.b	<(LEVEL__028_L-1)
     92  1837		       69		      .byte.b	<(LEVEL__028_R-1)
     93  1838		       b7		      .byte.b	<(LEVEL__029_L-1)
     94  1839		       fc		      .byte.b	<(LEVEL__029_R-1)
     95  183a		       40		      .byte.b	<(LEVEL__030_L-1)
     96  183b		       90		      .byte.b	<(LEVEL__030_R-1)
     97  183c		       e3		      .byte.b	<(LEVEL__031_L-1)
     98  183d		       29		      .byte.b	<(LEVEL__031_R-1)
     99  183e		       68		      .byte.b	<(LEVEL__032_L-1)
    100  183f		       a0		      .byte.b	<(LEVEL__032_R-1)
    101  1840		       e4		      .byte.b	<(LEVEL__033_L-1)
    102  1841		       2e		      .byte.b	<(LEVEL__033_R-1)
    103  1842		       6e		      .byte.b	<(LEVEL__034_L-1)
    104  1843		       ff		      .byte.b	<(LEVEL__034_R-1)
    105  1844		       48		      .byte.b	<(LEVEL__035_L-1)
    106  1845		       8d		      .byte.b	<(LEVEL__035_R-1)
    107  1846		       cd		      .byte.b	<(LEVEL__036_L-1)
    108  1847		       03		      .byte.b	<(LEVEL__036_R-1)
    109  1848		       49		      .byte.b	<(LEVEL__037_L-1)
    110  1849		       86		      .byte.b	<(LEVEL__037_R-1)
    111  184a		       cf		      .byte.b	<(LEVEL__038_L-1)
    112  184b		       17		      .byte.b	<(LEVEL__038_R-1)
    113  184c		       66		      .byte.b	<(LEVEL__039_L-1)
    114  184d		       b5		      .byte.b	<(LEVEL__039_R-1)
    115  184e		       0f		      .byte.b	<(LEVEL__040_L-1)
    116  184f		       56		      .byte.b	<(LEVEL__040_R-1)
    117  1850
    118  1850		       9d		      .byte.b	<(LEVEL__041_L-1)
    119  1851		       e7		      .byte.b	<(LEVEL__041_R-1)
    120  1852		       2e		      .byte.b	<(LEVEL__042_L-1)
    121  1853		       7c		      .byte.b	<(LEVEL__042_R-1)
    122  1854		       d4		      .byte.b	<(LEVEL__043_L-1)
    123  1855		       21		      .byte.b	<(LEVEL__043_R-1)
    124  1856		       6d		      .byte.b	<(LEVEL__044_L-1)
    125  1857		       a5		      .byte.b	<(LEVEL__044_R-1)
    126  1858		       f5		      .byte.b	<(LEVEL__045_L-1)
    127  1859		       43		      .byte.b	<(LEVEL__045_R-1)
    128  185a		       8d		      .byte.b	<(LEVEL__046_L-1)
    129  185b		       da		      .byte.b	<(LEVEL__046_R-1)
    130  185c		       1f		      .byte.b	<(LEVEL__047_L-1)
    131  185d		       75		      .byte.b	<(LEVEL__047_R-1)
    132  185e		       ff		      .byte.b	<(LEVEL__048_L-1)
    133  185f		       4b		      .byte.b	<(LEVEL__048_R-1)
    134  1860		       96		      .byte.b	<(LEVEL__049_L-1)
    135  1861		       e8		      .byte.b	<(LEVEL__049_R-1)
    136  1862
    137  1862		       2b		      .byte.b	<(LEVEL__050_L-1)
    138  1863		       78		      .byte.b	<(LEVEL__050_R-1)
    139  1864		       b1		      .byte.b	<(LEVEL__051_L-1)
    140  1865		       04		      .byte.b	<(LEVEL__051_R-1)
    141  1866		       55		      .byte.b	<(LEVEL__052_L-1)
    142  1867		       8f		      .byte.b	<(LEVEL__052_R-1)
    143  1868		       d7		      .byte.b	<(LEVEL__053_L-1)
    144  1869		       2c		      .byte.b	<(LEVEL__053_R-1)
    145  186a		       79		      .byte.b	<(LEVEL__054_L-1)
    146  186b		       c5		      .byte.b	<(LEVEL__054_R-1)
    147  186c		       0e		      .byte.b	<(LEVEL__055_L-1)
    148  186d		       68		      .byte.b	<(LEVEL__055_R-1)
    149  186e		       bd		      .byte.b	<(LEVEL__056_L-1)
    150  186f		       17		      .byte.b	<(LEVEL__056_R-1)
    151  1870		       72		      .byte.b	<(LEVEL__057_L-1)
    152  1871		       c8		      .byte.b	<(LEVEL__057_R-1)
    153  1872		       11		      .byte.b	<(LEVEL__058_L-1)
    154  1873		       56		      .byte.b	<(LEVEL__058_R-1)
    155  1874		       a6		      .byte.b	<(LEVEL__059_L-1)
    156  1875		       f8		      .byte.b	<(LEVEL__059_R-1)
    157  1876
    158  1876		       ff		      .byte.b	<(LEVEL__060_R-1)
    159  1877		       9b		      .byte.b	<(LEVEL__061_R-1)
    160  1878		       47		      .byte.b	<(LEVEL__061_L-1)
    161  1879		       e4		      .byte.b	<(LEVEL__062_L-1)
    162  187a		       3b		      .byte.b	<(LEVEL__062_R-1)
    163  187b		       87		      .byte.b	<(LEVEL__063_L-1)
    164  187c		       d7		      .byte.b	<(LEVEL__063_R-1)
    165  187d		       84		      .byte.b	<(LEVEL__064_R-1)
    166  187e		       29		      .byte.b	<(LEVEL__064_L-1)
    167  187f		       28		      .byte.b	<(LEVEL__065_R-1)
    168  1880		       d0		      .byte.b	<(LEVEL__065_L-1)
    169  1881		       ca		      .byte.b	<(LEVEL__066_R-1)
    170  1882		       70		      .byte.b	<(LEVEL__066_L-1)
    171  1883		       6d		      .byte.b	<(LEVEL__067_R-1)
    172  1884		       20		      .byte.b	<(LEVEL__067_L-1)
    173  1885		       26		      .byte.b	<(LEVEL__068_R-1)
    174  1886		       d2		      .byte.b	<(LEVEL__068_L-1)
    175  1887		       ca		      .byte.b	<(LEVEL__069_R-1)
    176  1888		       7c		      .byte.b	<(LEVEL__069_L-1)
    177  1889
    178  1889		       e8		      .byte.b	<(LEVEL__103_Arielle-1)
    179  188a		       a1		      .byte.b	<(LEVEL__103_Ajalae-1)
    180  188b		       56		      .byte.b	<(LEVEL__103_Adin-1)
    181  188c		       e8		      .byte.b	<(LEVEL__102_Raven-1)
    182  188d		       a4		      .byte.b	<(LEVEL__102_Oralia-1)
    183  188e		       ff		      .byte.b	<(LEVEL__102_Natalie-1)
    184  188f		       45		      .byte.b	<(LEVEL__102_Mirabel-1)
    185  1890		       38		      .byte.b	<(LEVEL__1XJH_Tara_Gelson-1)
    186  1891		       72		      .byte.b	<(LEVEL__1R7X_Alison-1)
    187  1892		       9f		      .byte.b	<(LEVEL__1KWD_Cecile_Clayworth-1)
    188  1893		       d3		      .byte.b	<(LEVEL__1EKT_Samantha_Gelson-1)
    189  1894		       0c		      .byte.b	<(LEVEL__0VM5_Andrea_Wadd-1)
    190  1895		       39		      .byte.b	<(LEVEL__0PAL_Jill_Leatherby-1)
    191  1896		       63		      .byte.b	<(LEVEL__0IZ1_Sophia-1)
    192  1897		       8e		      .byte.b	<(LEVEL__0CNH_Alice-1)
    193  1898		       18		      .byte.b	<(LEVEL__122_Maya-1)
    194  1899
    195  1899		       00 99	   MAX_LEVEL  =	* - LevelInfoLO
 $99 LEVELS INSTALLED
    196  1899					      ECHO	MAX_LEVEL, "LEVELS INSTALLED"
    197  1899				   LevelInfoHI
    198  1899
    199  1899		       ef		      .byte.b	>(LEVEL__001_L-1)
    200  189a		       f0		      .byte.b	>(LEVEL__001_R-1)
    201  189b		       f0		      .byte.b	>(LEVEL__002_L-1)
    202  189c		       f0		      .byte.b	>(LEVEL__002_R-1)
    203  189d		       f0		      .byte.b	>(LEVEL__003_L-1)
    204  189e		       f0		      .byte.b	>(LEVEL__003_R-1)
    205  189f		       f0		      .byte.b	>(LEVEL__004_L-1)
    206  18a0		       f0		      .byte.b	>(LEVEL__004_R-1)
    207  18a1		       f0		      .byte.b	>(LEVEL__005_L-1)
    208  18a2		       f1		      .byte.b	>(LEVEL__005_R-1)
    209  18a3		       f1		      .byte.b	>(LEVEL__006_L-1)
    210  18a4		       f1		      .byte.b	>(LEVEL__006_R-1)
    211  18a5		       f1		      .byte.b	>(LEVEL__007_L-1)
    212  18a6		       f2		      .byte.b	>(LEVEL__007_R-1)
    213  18a7		       f2		      .byte.b	>(LEVEL__008_L-1)
    214  18a8		       f2		      .byte.b	>(LEVEL__008_R-1)
    215  18a9		       f2		      .byte.b	>(LEVEL__009_L-1)
    216  18aa		       f2		      .byte.b	>(LEVEL__009_R-1)
    217  18ab		       f3		      .byte.b	>(LEVEL__010_L-1)
    218  18ac		       f3		      .byte.b	>(LEVEL__010_R-1)
    219  18ad		       f3		      .byte.b	>(LEVEL__011_L-1)
    220  18ae		       f3		      .byte.b	>(LEVEL__011_R-1)
    221  18af		       f3		      .byte.b	>(LEVEL__012_L-1)
    222  18b0		       f4		      .byte.b	>(LEVEL__012_R-1)
    223  18b1		       f4		      .byte.b	>(LEVEL__013_L-1)
    224  18b2		       f4		      .byte.b	>(LEVEL__013_R-1)
    225  18b3		       f4		      .byte.b	>(LEVEL__014_L-1)
    226  18b4		       f5		      .byte.b	>(LEVEL__014_R-1)
    227  18b5		       f5		      .byte.b	>(LEVEL__015_L-1)
    228  18b6		       f5		      .byte.b	>(LEVEL__015_R-1)
    229  18b7		       f5		      .byte.b	>(LEVEL__016_L-1)
    230  18b8		       f5		      .byte.b	>(LEVEL__016_R-1)
    231  18b9		       f6		      .byte.b	>(LEVEL__017_L-1)
    232  18ba		       f6		      .byte.b	>(LEVEL__017_R-1)
    233  18bb		       f6		      .byte.b	>(LEVEL__018_L-1)
    234  18bc		       f6		      .byte.b	>(LEVEL__018_R-1)
    235  18bd		       f7		      .byte.b	>(LEVEL__019_L-1)
    236  18be		       f7		      .byte.b	>(LEVEL__019_R-1)
    237  18bf		       ef		      .byte.b	>(LEVEL__020_L-1)
    238  18c0		       f0		      .byte.b	>(LEVEL__020_R-1)
    239  18c1		       f0		      .byte.b	>(LEVEL__021_L-1)
    240  18c2		       f0		      .byte.b	>(LEVEL__021_R-1)
    241  18c3		       f1		      .byte.b	>(LEVEL__022_L-1)
    242  18c4		       f1		      .byte.b	>(LEVEL__022_R-1)
    243  18c5		       f1		      .byte.b	>(LEVEL__023_L-1)
    244  18c6		       f1		      .byte.b	>(LEVEL__023_R-1)
    245  18c7		       f2		      .byte.b	>(LEVEL__024_L-1)
    246  18c8		       f2		      .byte.b	>(LEVEL__024_R-1)
    247  18c9		       f2		      .byte.b	>(LEVEL__025_L-1)
    248  18ca		       f2		      .byte.b	>(LEVEL__025_R-1)
    249  18cb		       f3		      .byte.b	>(LEVEL__026_L-1)
    250  18cc		       f3		      .byte.b	>(LEVEL__026_R-1)
    251  18cd		       f3		      .byte.b	>(LEVEL__027_L-1)
    252  18ce		       f3		      .byte.b	>(LEVEL__027_R-1)
    253  18cf		       f4		      .byte.b	>(LEVEL__028_L-1)
    254  18d0		       f4		      .byte.b	>(LEVEL__028_R-1)
    255  18d1		       f4		      .byte.b	>(LEVEL__029_L-1)
    256  18d2		       f4		      .byte.b	>(LEVEL__029_R-1)
    257  18d3		       f5		      .byte.b	>(LEVEL__030_L-1)
    258  18d4		       f5		      .byte.b	>(LEVEL__030_R-1)
    259  18d5		       f5		      .byte.b	>(LEVEL__031_L-1)
    260  18d6		       f6		      .byte.b	>(LEVEL__031_R-1)
    261  18d7		       f6		      .byte.b	>(LEVEL__032_L-1)
    262  18d8		       f6		      .byte.b	>(LEVEL__032_R-1)
    263  18d9		       f6		      .byte.b	>(LEVEL__033_L-1)
    264  18da		       f7		      .byte.b	>(LEVEL__033_R-1)
    265  18db		       f7		      .byte.b	>(LEVEL__034_L-1)
    266  18dc		       ef		      .byte.b	>(LEVEL__034_R-1)
    267  18dd		       f0		      .byte.b	>(LEVEL__035_L-1)
    268  18de		       f0		      .byte.b	>(LEVEL__035_R-1)
    269  18df		       f0		      .byte.b	>(LEVEL__036_L-1)
    270  18e0		       f1		      .byte.b	>(LEVEL__036_R-1)
    271  18e1		       f1		      .byte.b	>(LEVEL__037_L-1)
    272  18e2		       f1		      .byte.b	>(LEVEL__037_R-1)
    273  18e3		       f1		      .byte.b	>(LEVEL__038_L-1)
    274  18e4		       f2		      .byte.b	>(LEVEL__038_R-1)
    275  18e5		       f2		      .byte.b	>(LEVEL__039_L-1)
    276  18e6		       f2		      .byte.b	>(LEVEL__039_R-1)
    277  18e7		       f3		      .byte.b	>(LEVEL__040_L-1)
    278  18e8		       f3		      .byte.b	>(LEVEL__040_R-1)
    279  18e9
    280  18e9		       f3		      .byte.b	>(LEVEL__041_L-1)
    281  18ea		       f3		      .byte.b	>(LEVEL__041_R-1)
    282  18eb		       f4		      .byte.b	>(LEVEL__042_L-1)
    283  18ec		       f4		      .byte.b	>(LEVEL__042_R-1)
    284  18ed		       f4		      .byte.b	>(LEVEL__043_L-1)
    285  18ee		       f5		      .byte.b	>(LEVEL__043_R-1)
    286  18ef		       f5		      .byte.b	>(LEVEL__044_L-1)
    287  18f0		       f5		      .byte.b	>(LEVEL__044_R-1)
    288  18f1		       f5		      .byte.b	>(LEVEL__045_L-1)
    289  18f2		       f6		      .byte.b	>(LEVEL__045_R-1)
    290  18f3		       f6		      .byte.b	>(LEVEL__046_L-1)
    291  18f4		       f6		      .byte.b	>(LEVEL__046_R-1)
    292  18f5		       f7		      .byte.b	>(LEVEL__047_L-1)
    293  18f6		       f7		      .byte.b	>(LEVEL__047_R-1)
    294  18f7		       ef		      .byte.b	>(LEVEL__048_L-1)
    295  18f8		       f0		      .byte.b	>(LEVEL__048_R-1)
    296  18f9		       f0		      .byte.b	>(LEVEL__049_L-1)
    297  18fa		       f0		      .byte.b	>(LEVEL__049_R-1)
    298  18fb
    299  18fb		       f1		      .byte.b	>(LEVEL__050_L-1)
    300  18fc		       f1		      .byte.b	>(LEVEL__050_R-1)
    301  18fd		       f1		      .byte.b	>(LEVEL__051_L-1)
    302  18fe		       f2		      .byte.b	>(LEVEL__051_R-1)
    303  18ff		       f2		      .byte.b	>(LEVEL__052_L-1)
    304  1900		       f2		      .byte.b	>(LEVEL__052_R-1)
    305  1901		       f2		      .byte.b	>(LEVEL__053_L-1)
    306  1902		       f3		      .byte.b	>(LEVEL__053_R-1)
    307  1903		       f3		      .byte.b	>(LEVEL__054_L-1)
    308  1904		       f3		      .byte.b	>(LEVEL__054_R-1)
    309  1905		       f4		      .byte.b	>(LEVEL__055_L-1)
    310  1906		       f4		      .byte.b	>(LEVEL__055_R-1)
    311  1907		       f4		      .byte.b	>(LEVEL__056_L-1)
    312  1908		       f5		      .byte.b	>(LEVEL__056_R-1)
    313  1909		       f5		      .byte.b	>(LEVEL__057_L-1)
    314  190a		       f5		      .byte.b	>(LEVEL__057_R-1)
    315  190b		       f6		      .byte.b	>(LEVEL__058_L-1)
    316  190c		       f6		      .byte.b	>(LEVEL__058_R-1)
    317  190d		       f6		      .byte.b	>(LEVEL__059_L-1)
    318  190e		       f6		      .byte.b	>(LEVEL__059_R-1)
    319  190f
    320  190f		       ef		      .byte.b	>(LEVEL__060_R-1)
    321  1910		       f0		      .byte.b	>(LEVEL__061_R-1)
    322  1911		       f0		      .byte.b	>(LEVEL__061_L-1)
    323  1912		       f0		      .byte.b	>(LEVEL__062_L-1)
    324  1913		       f1		      .byte.b	>(LEVEL__062_R-1)
    325  1914		       f1		      .byte.b	>(LEVEL__063_L-1)
    326  1915		       f1		      .byte.b	>(LEVEL__063_R-1)
    327  1916		       f2		      .byte.b	>(LEVEL__064_R-1)
    328  1917		       f2		      .byte.b	>(LEVEL__064_L-1)
    329  1918		       f3		      .byte.b	>(LEVEL__065_R-1)
    330  1919		       f2		      .byte.b	>(LEVEL__065_L-1)
    331  191a		       f3		      .byte.b	>(LEVEL__066_R-1)
    332  191b		       f3		      .byte.b	>(LEVEL__066_L-1)
    333  191c		       f4		      .byte.b	>(LEVEL__067_R-1)
    334  191d		       f4		      .byte.b	>(LEVEL__067_L-1)
    335  191e		       f5		      .byte.b	>(LEVEL__068_R-1)
    336  191f		       f4		      .byte.b	>(LEVEL__068_L-1)
    337  1920		       f5		      .byte.b	>(LEVEL__069_R-1)
    338  1921		       f5		      .byte.b	>(LEVEL__069_L-1)
    339  1922
    340  1922		       f1		      .byte.b	>(LEVEL__103_Arielle-1)
    341  1923		       f1		      .byte.b	>(LEVEL__103_Ajalae-1)
    342  1924		       f1		      .byte.b	>(LEVEL__103_Adin-1)
    343  1925		       f0		      .byte.b	>(LEVEL__102_Raven-1)
    344  1926		       f0		      .byte.b	>(LEVEL__102_Oralia-1)
    345  1927		       ef		      .byte.b	>(LEVEL__102_Natalie-1)
    346  1928		       f0		      .byte.b	>(LEVEL__102_Mirabel-1)
    347  1929		       f2		      .byte.b	>(LEVEL__1XJH_Tara_Gelson-1)
    348  192a		       f2		      .byte.b	>(LEVEL__1R7X_Alison-1)
    349  192b		       f2		      .byte.b	>(LEVEL__1KWD_Cecile_Clayworth-1)
    350  192c		       f2		      .byte.b	>(LEVEL__1EKT_Samantha_Gelson-1)
    351  192d		       f3		      .byte.b	>(LEVEL__0VM5_Andrea_Wadd-1)
    352  192e		       f3		      .byte.b	>(LEVEL__0PAL_Jill_Leatherby-1)
    353  192f		       f3		      .byte.b	>(LEVEL__0IZ1_Sophia-1)
    354  1930		       f3		      .byte.b	>(LEVEL__0CNH_Alice-1)
    355  1931		       f6		      .byte.b	>(LEVEL__122_Maya-1)
    356  1932
    357  1932				  -	      IF	(* - LevelInfoHI != MAX_LEVEL)
    358  1932				  -	      ECHO	"ERROR: Incorrect LevelInfoHI table!"
    359  1932				  -	      ERR
    360  1932					      ENDIF
    361  1932
    362  1932				   LevelInfoBANK
    363  1932
    364  1932		       04		      .byte.b	BANK_LEVEL__001_L
    365  1933		       04		      .byte.b	BANK_LEVEL__001_R
    366  1934		       04		      .byte.b	BANK_LEVEL__002_L
    367  1935		       04		      .byte.b	BANK_LEVEL__002_R
    368  1936		       04		      .byte.b	BANK_LEVEL__003_L
    369  1937		       04		      .byte.b	BANK_LEVEL__003_R
    370  1938		       04		      .byte.b	BANK_LEVEL__004_L
    371  1939		       04		      .byte.b	BANK_LEVEL__004_R
    372  193a		       04		      .byte.b	BANK_LEVEL__005_L
    373  193b		       04		      .byte.b	BANK_LEVEL__005_R
    374  193c		       04		      .byte.b	BANK_LEVEL__006_L
    375  193d		       04		      .byte.b	BANK_LEVEL__006_R
    376  193e		       04		      .byte.b	BANK_LEVEL__007_L
    377  193f		       04		      .byte.b	BANK_LEVEL__007_R
    378  1940		       04		      .byte.b	BANK_LEVEL__008_L
    379  1941		       04		      .byte.b	BANK_LEVEL__008_R
    380  1942		       04		      .byte.b	BANK_LEVEL__009_L
    381  1943		       04		      .byte.b	BANK_LEVEL__009_R
    382  1944		       04		      .byte.b	BANK_LEVEL__010_L
    383  1945		       04		      .byte.b	BANK_LEVEL__010_R
    384  1946		       04		      .byte.b	BANK_LEVEL__011_L
    385  1947		       04		      .byte.b	BANK_LEVEL__011_R
    386  1948		       04		      .byte.b	BANK_LEVEL__012_L
    387  1949		       04		      .byte.b	BANK_LEVEL__012_R
    388  194a		       04		      .byte.b	BANK_LEVEL__013_L
    389  194b		       04		      .byte.b	BANK_LEVEL__013_R
    390  194c		       04		      .byte.b	BANK_LEVEL__014_L
    391  194d		       04		      .byte.b	BANK_LEVEL__014_R
    392  194e		       04		      .byte.b	BANK_LEVEL__015_L
    393  194f		       04		      .byte.b	BANK_LEVEL__015_R
    394  1950		       04		      .byte.b	BANK_LEVEL__016_L
    395  1951		       04		      .byte.b	BANK_LEVEL__016_R
    396  1952		       04		      .byte.b	BANK_LEVEL__017_L
    397  1953		       04		      .byte.b	BANK_LEVEL__017_R
    398  1954		       04		      .byte.b	BANK_LEVEL__018_L
    399  1955		       04		      .byte.b	BANK_LEVEL__018_R
    400  1956		       04		      .byte.b	BANK_LEVEL__019_L
    401  1957		       04		      .byte.b	BANK_LEVEL__019_R
    402  1958		       05		      .byte.b	BANK_LEVEL__020_L
    403  1959		       05		      .byte.b	BANK_LEVEL__020_R
    404  195a		       05		      .byte.b	BANK_LEVEL__021_L
    405  195b		       05		      .byte.b	BANK_LEVEL__021_R
    406  195c		       05		      .byte.b	BANK_LEVEL__022_L
    407  195d		       05		      .byte.b	BANK_LEVEL__022_R
    408  195e		       05		      .byte.b	BANK_LEVEL__023_L
    409  195f		       05		      .byte.b	BANK_LEVEL__023_R
    410  1960		       05		      .byte.b	BANK_LEVEL__024_L
    411  1961		       05		      .byte.b	BANK_LEVEL__024_R
    412  1962		       05		      .byte.b	BANK_LEVEL__025_L
    413  1963		       05		      .byte.b	BANK_LEVEL__025_R
    414  1964		       05		      .byte.b	BANK_LEVEL__026_L
    415  1965		       05		      .byte.b	BANK_LEVEL__026_R
    416  1966		       05		      .byte.b	BANK_LEVEL__027_L
    417  1967		       05		      .byte.b	BANK_LEVEL__027_R
    418  1968		       05		      .byte.b	BANK_LEVEL__028_L
    419  1969		       05		      .byte.b	BANK_LEVEL__028_R
    420  196a		       05		      .byte.b	BANK_LEVEL__029_L
    421  196b		       05		      .byte.b	BANK_LEVEL__029_R
    422  196c		       05		      .byte.b	BANK_LEVEL__030_L
    423  196d		       05		      .byte.b	BANK_LEVEL__030_R
    424  196e		       05		      .byte.b	BANK_LEVEL__031_L
    425  196f		       05		      .byte.b	BANK_LEVEL__031_R
    426  1970		       05		      .byte.b	BANK_LEVEL__032_L
    427  1971		       05		      .byte.b	BANK_LEVEL__032_R
    428  1972		       05		      .byte.b	BANK_LEVEL__033_L
    429  1973		       05		      .byte.b	BANK_LEVEL__033_R
    430  1974		       05		      .byte.b	BANK_LEVEL__034_L
    431  1975		       06		      .byte.b	BANK_LEVEL__034_R
    432  1976		       06		      .byte.b	BANK_LEVEL__035_L
    433  1977		       06		      .byte.b	BANK_LEVEL__035_R
    434  1978		       06		      .byte.b	BANK_LEVEL__036_L
    435  1979		       06		      .byte.b	BANK_LEVEL__036_R
    436  197a		       06		      .byte.b	BANK_LEVEL__037_L
    437  197b		       06		      .byte.b	BANK_LEVEL__037_R
    438  197c		       06		      .byte.b	BANK_LEVEL__038_L
    439  197d		       06		      .byte.b	BANK_LEVEL__038_R
    440  197e		       06		      .byte.b	BANK_LEVEL__039_L
    441  197f		       06		      .byte.b	BANK_LEVEL__039_R
    442  1980		       06		      .byte.b	BANK_LEVEL__040_L
    443  1981		       06		      .byte.b	BANK_LEVEL__040_R
    444  1982
    445  1982		       06		      .byte.b	BANK_LEVEL__041_L
    446  1983		       06		      .byte.b	BANK_LEVEL__041_R
    447  1984		       06		      .byte.b	BANK_LEVEL__042_L
    448  1985		       06		      .byte.b	BANK_LEVEL__042_R
    449  1986		       06		      .byte.b	BANK_LEVEL__043_L
    450  1987		       06		      .byte.b	BANK_LEVEL__043_R
    451  1988		       06		      .byte.b	BANK_LEVEL__044_L
    452  1989		       06		      .byte.b	BANK_LEVEL__044_R
    453  198a		       06		      .byte.b	BANK_LEVEL__045_L
    454  198b		       06		      .byte.b	BANK_LEVEL__045_R
    455  198c		       06		      .byte.b	BANK_LEVEL__046_L
    456  198d		       06		      .byte.b	BANK_LEVEL__046_R
    457  198e		       06		      .byte.b	BANK_LEVEL__047_L
    458  198f		       06		      .byte.b	BANK_LEVEL__047_R
    459  1990		       07		      .byte.b	BANK_LEVEL__048_L
    460  1991		       07		      .byte.b	BANK_LEVEL__048_R
    461  1992		       07		      .byte.b	BANK_LEVEL__049_L
    462  1993		       07		      .byte.b	BANK_LEVEL__049_R
    463  1994
    464  1994		       07		      .byte.b	BANK_LEVEL__050_L
    465  1995		       07		      .byte.b	BANK_LEVEL__050_R
    466  1996		       07		      .byte.b	BANK_LEVEL__051_L
    467  1997		       07		      .byte.b	BANK_LEVEL__051_R
    468  1998		       07		      .byte.b	BANK_LEVEL__052_L
    469  1999		       07		      .byte.b	BANK_LEVEL__052_R
    470  199a		       07		      .byte.b	BANK_LEVEL__053_L
    471  199b		       07		      .byte.b	BANK_LEVEL__053_R
    472  199c		       07		      .byte.b	BANK_LEVEL__054_L
    473  199d		       07		      .byte.b	BANK_LEVEL__054_R
    474  199e		       07		      .byte.b	BANK_LEVEL__055_L
    475  199f		       07		      .byte.b	BANK_LEVEL__055_R
    476  19a0		       07		      .byte.b	BANK_LEVEL__056_L
    477  19a1		       07		      .byte.b	BANK_LEVEL__056_R
    478  19a2		       07		      .byte.b	BANK_LEVEL__057_L
    479  19a3		       07		      .byte.b	BANK_LEVEL__057_R
    480  19a4		       07		      .byte.b	BANK_LEVEL__058_L
    481  19a5		       07		      .byte.b	BANK_LEVEL__058_R
    482  19a6		       07		      .byte.b	BANK_LEVEL__059_L
    483  19a7		       07		      .byte.b	BANK_LEVEL__059_R
    484  19a8
    485  19a8		       08		      .byte.b	BANK_LEVEL__060_R
    486  19a9		       08		      .byte.b	BANK_LEVEL__061_R
    487  19aa		       08		      .byte.b	BANK_LEVEL__061_L
    488  19ab		       08		      .byte.b	BANK_LEVEL__062_L
    489  19ac		       08		      .byte.b	BANK_LEVEL__062_R
    490  19ad		       08		      .byte.b	BANK_LEVEL__063_L
    491  19ae		       08		      .byte.b	BANK_LEVEL__063_R
    492  19af		       08		      .byte.b	BANK_LEVEL__064_R
    493  19b0		       08		      .byte.b	BANK_LEVEL__064_L
    494  19b1		       08		      .byte.b	BANK_LEVEL__065_R
    495  19b2		       08		      .byte.b	BANK_LEVEL__065_L
    496  19b3		       08		      .byte.b	BANK_LEVEL__066_R
    497  19b4		       08		      .byte.b	BANK_LEVEL__066_L
    498  19b5		       08		      .byte.b	BANK_LEVEL__067_R
    499  19b6		       08		      .byte.b	BANK_LEVEL__067_L
    500  19b7		       08		      .byte.b	BANK_LEVEL__068_R
    501  19b8		       08		      .byte.b	BANK_LEVEL__068_L
    502  19b9		       08		      .byte.b	BANK_LEVEL__069_R
    503  19ba		       08		      .byte.b	BANK_LEVEL__069_L
    504  19bb
    505  19bb		       09		      .byte.b	BANK_LEVEL__103_Arielle
    506  19bc		       09		      .byte.b	BANK_LEVEL__103_Ajalae
    507  19bd		       09		      .byte.b	BANK_LEVEL__103_Adin
    508  19be		       09		      .byte.b	BANK_LEVEL__102_Raven
    509  19bf		       09		      .byte.b	BANK_LEVEL__102_Oralia
    510  19c0		       09		      .byte.b	BANK_LEVEL__102_Natalie
    511  19c1		       09		      .byte.b	BANK_LEVEL__102_Mirabel
    512  19c2		       09		      .byte.b	BANK_LEVEL__1XJH_Tara_Gelson
    513  19c3		       09		      .byte.b	BANK_LEVEL__1R7X_Alison
    514  19c4		       09		      .byte.b	BANK_LEVEL__1KWD_Cecile_Clayworth
    515  19c5		       09		      .byte.b	BANK_LEVEL__1EKT_Samantha_Gelson
    516  19c6		       09		      .byte.b	BANK_LEVEL__0VM5_Andrea_Wadd
    517  19c7		       09		      .byte.b	BANK_LEVEL__0PAL_Jill_Leatherby
    518  19c8		       09		      .byte.b	BANK_LEVEL__0IZ1_Sophia
    519  19c9		       09		      .byte.b	BANK_LEVEL__0CNH_Alice
    520  19ca
    521  19ca		       08		      .byte.b	BANK_LEVEL__122_Maya
    522  19cb
    523  19cb				  -	      IF	(* - LevelInfoBANK != MAX_LEVEL)
    524  19cb				  -	      ECHO	"ERROR: Incorrect LevelInfoBANK table!"
    525  19cb				  -	      ERR
    526  19cb					      ENDIF
    527  19cb
    528  19cb
    529  19cb
    530  19cb				   finX
    531  19cb							; now put the soil in - fill from the outsides
    532  19cb
    533  19cb		       a9 01		      lda	#CHARACTER_SOIL
    534  19cd		       85 8e		      sta	POS_Type
    535  19cf
    536  19cf		       a9 13		      lda	#SIZE_BOARD_Y-1
    537  19d1		       85 8b		      sta	POS_Y
    538  19d3
    539  19d3		       a9 17	   xlin       lda	#SIZE_BOARD_X-1
    540  19d5		       85 8a		      sta	POS_X
    541  19d7		       20 26 f8    zap1       jsr	GetBoardCharacter__CALL_FROM_RAM__
    542  19da		       c9 01		      cmp	#CHARACTER_SOIL
    543  19dc		       f0 07		      beq	kg2a
    544  19de		       c9 00		      cmp	#0
    545  19e0		       d0 07		      bne	endzap1
    546  19e2		       20 3a f8 	      jsr	PutBoardCharacterFromRAM
    547  19e5		       c6 8a	   kg2a       dec	POS_X
    548  19e7		       10 ee		      bpl	zap1
    549  19e9
    550  19e9		       a9 00	   endzap1    lda	#0
    551  19eb		       85 8a		      sta	POS_X
    552  19ed		       20 26 f8    zap2       jsr	GetBoardCharacter__CALL_FROM_RAM__
    553  19f0		       c9 01		      cmp	#CHARACTER_SOIL
    554  19f2		       f0 07		      beq	kg2
    555  19f4		       c9 00		      cmp	#0
    556  19f6		       d0 0b		      bne	endzap2
    557  19f8		       20 3a f8 	      jsr	PutBoardCharacterFromRAM
    558  19fb		       e6 8a	   kg2	      inc	POS_X
    559  19fd		       a5 8a		      lda	POS_X
    560  19ff		       c9 18		      cmp	#SIZE_BOARD_X
    561  1a01		       d0 ea		      bne	zap2
    562  1a03
    563  1a03		       c6 8b	   endzap2    dec	POS_Y
    564  1a05		       10 cc		      bpl	xlin
    565  1a07
    566  1a07
    567  1a07		       a9 17		      lda	#SIZE_BOARD_X-1
    568  1a09		       85 8a		      sta	POS_X
    569  1a0b
    570  1a0b		       a9 13	   ylin       lda	#SIZE_BOARD_Y-1
    571  1a0d		       85 8b		      sta	POS_Y
    572  1a0f		       20 26 f8    zapy1      jsr	GetBoardCharacter__CALL_FROM_RAM__
    573  1a12		       c9 01		      cmp	#CHARACTER_SOIL
    574  1a14		       f0 07		      beq	kg3
    575  1a16		       c9 00		      cmp	#0
    576  1a18		       d0 07		      bne	endzapy1
    577  1a1a		       20 3a f8 	      jsr	PutBoardCharacterFromRAM
    578  1a1d		       c6 8b	   kg3	      dec	POS_Y
    579  1a1f		       10 ee		      bpl	zapy1
    580  1a21
    581  1a21		       a9 00	   endzapy1   lda	#0
    582  1a23		       85 8b		      sta	POS_Y
    583  1a25		       20 26 f8    zapy2      jsr	GetBoardCharacter__CALL_FROM_RAM__
    584  1a28		       c9 01		      cmp	#CHARACTER_SOIL
    585  1a2a		       f0 07		      beq	kg3b
    586  1a2c		       c9 00		      cmp	#0
    587  1a2e		       d0 0b		      bne	endzapy2
    588  1a30		       20 3a f8 	      jsr	PutBoardCharacterFromRAM
    589  1a33		       e6 8b	   kg3b       inc	POS_Y
    590  1a35		       a5 8b		      lda	POS_Y
    591  1a37		       c9 14		      cmp	#SIZE_BOARD_Y
    592  1a39		       d0 ea		      bne	zapy2
    593  1a3b
    594  1a3b		       c6 8a	   endzapy2   dec	POS_X
    595  1a3d		       10 cc		      bpl	ylin
    596  1a3f		       60		      rts
    597  1a40
      0  1a40					      DEFINE_SUBROUTINE	RegisterOneMoreTarget
      1  1a40		       00 03	   BANK_RegisterOneMoreTarget =	_CURRENT_BANK
      2  1a40					      SUBROUTINE
      3  1a40				   RegisterOneMoreTarget
    599  1a40
    600  1a40		       f8		      sed
    601  1a41		       18		      clc
    602  1a42		       a5 bd		      lda	targetsRequired
    603  1a44		       69 01		      adc	#1
    604  1a46		       85 bd		      sta	targetsRequired
    605  1a48		       d8		      cld
    606  1a49		       60		      rts
    607  1a4a
    608  1a4a							;A	 steel wall
    609  1a4a							;B	 soil (surround)
    610  1a4a							;C	 box
    611  1a4a
    612  1a4a
    613  1a4a				   C1			;mortar
    614  1a4a		       88 b6		      .byte.b	$88,$b6
    615  1a4c		       38 68		      .byte.b	$38,$68
    616  1a4e		       5a aa		      .byte.b	$5a,$AA
    617  1a50		       5a 8a		      .byte.b	$5a,$8a
    618  1a52				   C2			; soil stripes
    619  1a52		       34 62		      .byte.b	$34,$62
    620  1a54		       b4 74		      .byte.b	$b4,$74
    621  1a56		       f4 24		      .byte.b	$F4,$24
    622  1a58		       a4 74		      .byte.b	$a4,$74
    623  1a5a				   C3			; brick
    624  1a5a		       1a 2a		      .byte.b	$1A,$2a
    625  1a5c		       8c bc		      .byte.b	$8C,$BC
    626  1a5e		       0a fa		      .byte.b	$0A,$fA
    627  1a60		       ca 3a		      .byte.b	$ca,$3a
    628  1a62
      0  1a62					      DEFINE_SUBROUTINE	UnpackLevel
      1  1a62		       00 03	   BANK_UnpackLevel =	_CURRENT_BANK
      2  1a62					      SUBROUTINE
      3  1a62				   UnpackLevel
    630  1a62
    631  1a62		       85 ca		      sta	RAM_Bank
    632  1a64
    633  1a64							; has to be done before decoding the level to have the platform right:
    634  1a64							;	    SET_PLATFORM
    635  1a64
    636  1a64		       a9 01		      lda	#CHARACTER_SOIL
    637  1a66		       85 8e		      sta	POS_Type
    638  1a68
    639  1a68		       a9 13		      lda	#SIZE_BOARD_Y-1
    640  1a6a		       85 8b		      sta	POS_Y
    641  1a6c		       a9 17	   xyLine     lda	#SIZE_BOARD_X-1
    642  1a6e		       85 8a		      sta	POS_X
    643  1a70		       20 3a f8    xyClear    jsr	PutBoardCharacterFromRAM
    644  1a73		       c6 8a		      dec	POS_X
    645  1a75		       10 f9		      bpl	xyClear
    646  1a77		       c6 8b		      dec	POS_Y
    647  1a79		       10 f1		      bpl	xyLine
    648  1a7b
    649  1a7b		       a9 04		      lda	#4
    650  1a7d		       85 e1		      sta	base_x
    651  1a7f		       85 e2		      sta	base_y
    652  1a81
    653  1a81		       a5 d0		      lda	NextLevelTrigger
    654  1a83		       09 80		      ora	#BIT_NEXTLEVEL
    655  1a85		       85 d0		      sta	NextLevelTrigger
    656  1a87
    657  1a87		       a6 b8		      ldx	levelX
    658  1a89		       bd 00 f0 	      lda	LevelInfoLO,x
    659  1a8c		       85 c5		      sta	Board_AddressR
    660  1a8e		       bd 99 f0 	      lda	LevelInfoHI,x
    661  1a91		       85 c6		      sta	Board_AddressR+1
    662  1a93		       bd 32 f1 	      lda	LevelInfoBANK,x
    663  1a96		       85 b1		      sta	LEVEL_bank
    664  1a98
    665  1a98		       a9 03		      lda	#BANK_UnpackLevel	; the *ROM* bank of this routine (NOT RAM)
    666  1a9a		       85 c9		      sta	ROM_Bank	; GetROMByte returns to this bank
    667  1a9c
    668  1a9c		       a5 b8		      lda	levelX
    669  1a9e		       29 03		      and	#3
    670  1aa0		       0a		      asl
    671  1aa1		       0a		      asl
    672  1aa2		       05 81		      ora	Platform	; NTSC/PAL
    673  1aa4		       4a		      lsr
    674  1aa5		       aa		      tax
    675  1aa6		       bd 4a f2 	      lda	C1,x
    676  1aa9		       85 c2		      sta	color
    677  1aab		       bd 52 f2 	      lda	C2,x
    678  1aae		       85 c3		      sta	color+1
    679  1ab0		       bd 5a f2 	      lda	C3,x
    680  1ab3		       85 c4		      sta	color+2
    681  1ab5
    682  1ab5		       a9 00		      lda	#$00
    683  1ab7		       85 be		      sta	moveCounter
    684  1ab9		       85 bf		      sta	moveCounterHi
    685  1abb		       85 c0		      sta	moveCounterBinary
    686  1abd		       85 c1		      sta	moveCounterBase
    687  1abf
    688  1abf		       a9 00		      lda	#$00	; BCD reminder!
    689  1ac1		       85 bd		      sta	targetsRequired	; # of targets that do NOT have boxes on them
    690  1ac3
    691  1ac3		       a9 18		      lda	#24	; arbitrary
    692  1ac5		       85 bc		      sta	ThrottleSpeed
    693  1ac7
    694  1ac7							; first fill bg with character_soil
    695  1ac7							; then rle unpack level
    696  1ac7							; change level colours
    697  1ac7
    698  1ac7		       a9 00		      lda	#0
    699  1ac9		       85 8a		      sta	POS_X
    700  1acb		       85 8b		      sta	POS_Y
    701  1acd		       85 99		      sta	BoardLimit_Width
    702  1acf		       85 9a		      sta	BoardLimit_Height
    703  1ad1
    704  1ad1				   GetNextItem
    705  1ad1
    706  1ad1		       a9 01		      lda	#1
    707  1ad3		       85 e3		      sta	upk_length
    708  1ad5		       a9 00		      lda	#0
    709  1ad7		       85 e4		      sta	upk_column	; reuse var - this flags a digit already
    710  1ad9
    711  1ad9		       e6 c5	   Get2       inc	Board_AddressR
    712  1adb		       d0 02		      bne	addrOK
    713  1add		       e6 c6		      inc	Board_AddressR+1
    714  1adf				   addrOK
    715  1adf
    716  1adf		       a5 b1		      lda	LEVEL_bank
    717  1ae1		       a0 00		      ldy	#0
    718  1ae3		       20 0f f8 	      jsr	GetROMByte
    719  1ae6		       85 e5		      sta	upk_temp	;scratch
    720  1ae8
    721  1ae8
    722  1ae8		       c9 00		      cmp	#0
    723  1aea		       d0 03		      bne	parse
    724  1aec		       4c cb f1 	      jmp	finX
    725  1aef				   parse
    726  1aef		       c9 3a		      cmp	#"9"+1
    727  1af1		       b0 1e		      bcs	notDigit
    728  1af3		       c9 30		      cmp	#"0"
    729  1af5		       90 1a		      bcc	notDigit
    730  1af7
    731  1af7		       a5 e4		      lda	upk_column
    732  1af9		       f0 09		      beq	firstDig
    733  1afb
    734  1afb		       a5 e3		      lda	upk_length
    735  1afd		       0a		      asl
    736  1afe		       0a		      asl
    737  1aff		       0a		      asl
    738  1b00		       65 e3		      adc	upk_length
    739  1b02		       65 e3		      adc	upk_length
    740  1b04
    741  1b04		       18	   firstDig   clc
    742  1b05		       65 e5		      adc	upk_temp
    743  1b07		       38		      sec
    744  1b08		       e9 30		      sbc	#"0"
    745  1b0a		       85 e3		      sta	upk_length
    746  1b0c		       e6 e4		      inc	upk_column	; flag we have seen a digit
    747  1b0e		       4c d9 f2 	      jmp	Get2
    748  1b11
    749  1b11		       c9 7c	   notDigit   cmp	#"|"	; newline
    750  1b13		       d0 11		      bne	checkWall
    751  1b15
    752  1b15							; Handle new-line
    753  1b15		       a9 00		      lda	#0
    754  1b17		       85 8a		      sta	POS_X
    755  1b19		       e6 8b		      inc	POS_Y
    756  1b1b
    757  1b1b
    758  1b1b		       a5 8b		      lda	POS_Y
    759  1b1d		       c5 9a		      cmp	BoardLimit_Height
    760  1b1f		       90 02		      bcc	wOK2
    761  1b21		       85 9a		      sta	BoardLimit_Height	;???^^^
    762  1b23				   wOK2
    763  1b23
    764  1b23		       4c d1 f2 	      jmp	GetNextItem
    765  1b26
    766  1b26		       c9 23	   checkWall  cmp	#"#"	; wall
    767  1b28		       d0 09		      bne	checkForGap
    768  1b2a		       a5 b8		      lda	levelX
    769  1b2c		       29 01		      and	#1
    770  1b2e		       18		      clc
    771  1b2f		       69 06		      adc	#CHARACTER_STEEL
    772  1b31		       d0 66		      bne	WriteChars
    773  1b33
    774  1b33		       c9 20	   checkForGap cmp	#32
    775  1b35		       f0 08		      beq	writeGap
    776  1b37		       c9 2d		      cmp	#"-"
    777  1b39		       f0 04		      beq	writeGap
    778  1b3b		       c9 5f		      cmp	#"_"
    779  1b3d		       d0 05		      bne	checkForMan
    780  1b3f
    781  1b3f		       a9 00	   writeGap   lda	#CHARACTER_BLANK
    782  1b41		       4c 99 f3 	      jmp	WriteChars
    783  1b44
    784  1b44				   checkForMan
    785  1b44		       c9 2b		      cmp	#"+"	; player on goal square
    786  1b46		       d0 07		      bne	notPlayerGoal
    787  1b48
    788  1b48		       20 40 f2 	      jsr	RegisterOneMoreTarget
    789  1b4b
    790  1b4b							; put goal square, init player with POS_VAR = CHARACTER_TARGET
    791  1b4b
    792  1b4b		       a9 03		      lda	#CHARACTER_TARGET
    793  1b4d		       d0 06		      bne	genPlayer
    794  1b4f
    795  1b4f				   notPlayerGoal
    796  1b4f		       c9 40		      cmp	#"@"	; player on normal square
    797  1b51		       d0 2d		      bne	checkBox
    798  1b53
    799  1b53		       a9 00		      lda	#CHARACTER_BLANK
    800  1b55
    801  1b55				   genPlayer
    802  1b55
    803  1b55		       85 8f		      sta	POS_VAR	; character man is on
    804  1b57
    805  1b57		       18		      clc
    806  1b58		       a5 8a		      lda	POS_X
    807  1b5a		       48		      pha
    808  1b5b		       65 e1		      adc	base_x
    809  1b5d		       85 8a		      sta	POS_X
    810  1b5f		       85 a0		      sta	ManX
    811  1b61
    812  1b61		       a5 8b		      lda	POS_Y
    813  1b63		       48		      pha
    814  1b64		       65 e2		      adc	base_y
    815  1b66		       85 8b		      sta	POS_Y
    816  1b68		       85 a1		      sta	ManY
    817  1b6a
    818  1b6a							; POS_X     x position
    819  1b6a							; POS_Y     y position
    820  1b6a							; POS_VAR   CHARACTER UNDER MAN TO RESTORE
    821  1b6a							; POS_Type  type of object
    822  1b6a
    823  1b6a		       a9 00		      lda	#TYPE_MAN
    824  1b6c		       85 8e		      sta	POS_Type	;	 creature TYPE
    825  1b6e		       20 24 f9 	      jsr	InsertObjectStackFromRAM	;6+94(B)
    826  1b71
    827  1b71		       a9 00		      lda	#0
    828  1b73		       85 9f		      sta	manAnimationIndex
    829  1b75
    830  1b75		       68		      pla
    831  1b76		       85 8b		      sta	POS_Y
    832  1b78		       68		      pla
    833  1b79		       85 8a		      sta	POS_X
    834  1b7b
    835  1b7b		       a9 05		      lda	#CHARACTER_MANOCCUPIED
    836  1b7d		       4c 99 f3 	      jmp	WriteChars
    837  1b80
    838  1b80		       c9 24	   checkBox   cmp	#"$"
    839  1b82		       d0 04		      bne	checkBoxTarget
    840  1b84
    841  1b84		       a9 02		      lda	#CHARACTER_BOX
    842  1b86		       d0 11		      bne	WriteChars
    843  1b88
    844  1b88		       c9 2a	   checkBoxTarget cmp	#"*"
    845  1b8a		       d0 04		      bne	checkTarget
    846  1b8c
    847  1b8c		       a9 08		      lda	#CHARACTER_BOX_ON_TARGET
    848  1b8e		       d0 09		      bne	WriteChars
    849  1b90
    850  1b90		       c9 2e	   checkTarget cmp	#"."
    851  1b92		       f0 03		      beq	targ
    852  1b94		       4c d1 f2 	      jmp	GetNextItem
    853  1b97				   targ
    854  1b97
    855  1b97		       a9 03		      lda	#CHARACTER_TARGET
    856  1b99
    857  1b99		       85 8e	   WriteChars sta	POS_Type
    858  1b9b
    859  1b9b		       18	   Wc2x       clc
    860  1b9c		       a5 8a		      lda	POS_X
    861  1b9e		       48		      pha
    862  1b9f		       65 e1		      adc	base_x
    863  1ba1		       85 8a		      sta	POS_X
    864  1ba3
    865  1ba3		       a5 8b		      lda	POS_Y
    866  1ba5		       48		      pha
    867  1ba6		       65 e2		      adc	base_y
    868  1ba8		       85 8b		      sta	POS_Y
    869  1baa
    870  1baa		       20 3a f8 	      jsr	PutBoardCharacterFromRAM
    871  1bad
    872  1bad		       a5 8e		      lda	POS_Type
    873  1baf		       c9 03		      cmp	#CHARACTER_TARGET
    874  1bb1		       d0 03		      bne	notargdet
    875  1bb3		       20 40 f2 	      jsr	RegisterOneMoreTarget
    876  1bb6				   notargdet
    877  1bb6
    878  1bb6		       68		      pla
    879  1bb7		       85 8b		      sta	POS_Y
    880  1bb9		       68		      pla
    881  1bba		       85 8a		      sta	POS_X
    882  1bbc
    883  1bbc		       18		      clc
    884  1bbd		       69 01		      adc	#1
    885  1bbf		       85 8a		      sta	POS_X
    886  1bc1
    887  1bc1		       c5 99		      cmp	BoardLimit_Width
    888  1bc3		       90 02		      bcc	wOK
    889  1bc5		       85 99		      sta	BoardLimit_Width
    890  1bc7				   wOK
    891  1bc7
    892  1bc7		       c6 e3		      dec	upk_length
    893  1bc9		       d0 d0		      bne	Wc2x
    894  1bcb		       4c d1 f2 	      jmp	GetNextItem
    895  1bce
    896  1bce				   finishedUnpack
    897  1bce
    898  1bce		       60		      rts
    899  1bce					      endif
------- FILE BANK_GENERIC.asm
     44  1bcf
      0  1bcf					      CHECK_HALF_BANK_SIZE	"GENERIC_BANK_1 (DECODE_LEVEL)"
      1  1bcf
      2  1bcf
      3  1bcf		       03 cf	   .TEMP      =	* - BANK_START
 GENERIC_BANK_1 (DECODE_LEVEL) (1K) SIZE =  $3cf , FREE= $31
      4  1bcf					      ECHO	"GENERIC_BANK_1 (DECODE_LEVEL)", "(1K) SIZE = ", .TEMP, ", FREE=", ROM_BANK_SIZE/2 - .TEMP
      5  1bcf				  -	      if	( .TEMP ) > ROM_BANK_SIZE/2
      6  1bcf				  -	      ECHO	"HALF-BANK OVERFLOW @ ", * - ORIGIN
      7  1bcf				  -	      ERR
      8  1bcf					      endif
     46  1bcf
     47  1bcf							;------------------------------------------------------------------------------
     48  1bcf							; ... the above is a RAM-copied section -- the following is ROM-only.	Note that
     49  1bcf							; we do not configure a 1K boundary, as we con't really care when the above 'RAM'
     50  1bcf							; bank finishes.  Just continue on from where it left off...
     51  1bcf							;------------------------------------------------------------------------------
     52  1bcf
      0  1bcf					      DEFINE_SUBROUTINE	Cart_Init	; in GENERIC_BANK_1
      1  1bcf		       00 03	   BANK_Cart_Init =	_CURRENT_BANK
      2  1bcf					      SUBROUTINE
      3  1bcf				   Cart_Init
     54  1bcf
     55  1bcf							; Note the variables from the title selection are incredibly transient an can be stomped
     56  1bcf							; at any time.  So they need to be used immediately.
     57  1bcf
     58  1bcf
     59  1bcf							; odd usage below is to prevent any possibility of variable stomping/assumptions
     60  1bcf
     61  1bcf		       a9 01		      lda	#1
     62  1bd1		       a2 00		      ldx	#0	;sLevel				      ; level # from title select
     63  1bd3		       a0 00		      ldy	#0	;sJoysticks
     64  1bd5		       84 ae		      sty	jtoggle
     65  1bd7		       86 b9		      stx	level
     66  1bd9		       85 ac		      sta	ManCount	; = #players
     67  1bdb		       a9 00		      lda	#0
     68  1bdd		       85 b8		      sta	levelX	; make an immediate copy to safe variables!
     69  1bdf		       85 e7		      sta	startingLevel
     70  1be1
     71  1be1							; multiply with LEVEL_DEFINITION_SIZE (5):
     72  1be1		       0a		      asl
     73  1be2		       0a		      asl
     74  1be3		       85 b8		      sta	levelX
     75  1be5
     76  1be5		       a9 01		      lda	#1
     77  1be7		       85 9e		      sta	whichPlayer	; will switch to 0 on 1st go
     78  1be9
     79  1be9		       a9 30		      lda	#NUM_LIVES<<4	; 3 lives
     80  1beb		       a6 ac		      ldx	ManCount	; = sPlayers
     81  1bed		       f0 02		      beq	opg
     82  1bef		       a9 33		      lda	#NUM_LIVES<<4|NUM_LIVES
     83  1bf1		       85 ac	   opg	      sta	ManCount	; P2P1 nybble each
     84  1bf3
     85  1bf3							;---------------------------------------------------------------------------
     86  1bf3
     87  1bf3		       a9 00		      lda	#0
     88  1bf5		       8d 83 02 	      sta	SWBCNT	; console I/O always set to INPUT
     89  1bf8		       8d 81 02 	      sta	SWACNT	; set controller I/O to INPUT
     90  1bfb		       85 6b		      sta	HMCLR
     91  1bfd
     92  1bfd							; cleanup remains of title screen
     93  1bfd		       85 5b		      sta	GRP0
     94  1bff		       85 5c		      sta	GRP1
     95  1c01		       85 5b		      sta	GRP0
     96  1c03
     97  1c03		       85 89		      sta	ScreenDrawPhase	; sequences the sections of gameplay/screen drawing
     98  1c05		       85 af		      sta	circle_d
     99  1c07		       85 b0		      sta	circle_d+1
    100  1c09		       85 d5		      sta	TakebackInhibit
    101  1c0b
    102  1c0b							;    IFCONST DEBUG_CREATURE
    103  1c0b							;		  sta worstTime
    104  1c0b							;    ENDIF
    105  1c0b
    106  1c0b		       a9 04		      lda	#%100	; players/missiles BEHIND BG
    107  1c0d		       85 4a		      sta	CTRLPF
    108  1c0f		       85 82		      sta	rnd	; anything non-0
    109  1c11
    110  1c11		       a9 ff		      lda	#$FF
    111  1c13		       85 84		      sta	DrawStackPointer
    112  1c15		       85 97		      sta	BufferedButton
    113  1c17		       85 98		      sta	BufferedButton+1
    114  1c19
    115  1c19		       a9 07		      lda	#DIRECTION_BITS
    116  1c1b		       85 a9		      sta	ManLastDirection
    117  1c1d
    118  1c1d		       a9 00		      lda	#0
    119  1c1f							;		  sta ObjStackPtr		  ; object stack index of last entry
    120  1c1f							;		  sta ObjStackPtr+1
    121  1c1f							;		  sta ObjStackNum
    122  1c1f							;		  sta ObjIterator
    123  1c1f
    124  1c1f		       85 d2		      sta	sortPtr
    125  1c21		       a9 ff		      lda	#<(-1)
    126  1c23		       85 d1		      sta	sortRequired
    127  1c25
    128  1c25							; read high score from SaveKey and store in highScoreSK,
    129  1c25							; which is transferred to high score variable in RAM by GeneralScoringSetups
    130  1c25		       4c 99 f6 	      jmp	ReadSaveKey
    131  1c28
    132  1c28							;LEVEL0CREATURE  .byte TYPE_MAN,	  0,	  3,	  5
    133  1c28							;		  .byte -1
    134  1c28
    135  1c28							;------------------------------------------------------------------------------
    136  1c28
      0  1c28					      DEFINE_SUBROUTINE	SwapPlayersGeneric
      1  1c28		       00 03	   BANK_SwapPlayersGeneric =	_CURRENT_BANK
      2  1c28					      SUBROUTINE
      3  1c28				   SwapPlayersGeneric
    138  1c28
    139  1c28							; at the start of a level (or player, doesn't matter) we grab the current state of the colour/B&W switch
    140  1c28							; into the gameMode variable.
    141  1c28
    142  1c28		       a5 80		      lda	gameMode
    143  1c2a		       29 77		      and	#~(BW_SWITCH|GAMEMODE_PAUSED)
    144  1c2c		       85 80		      sta	gameMode
    145  1c2e		       ad 82 02 	      lda	SWCHB
    146  1c31		       29 08		      and	#BW_SWITCH
    147  1c33		       05 80		      ora	gameMode	; COLOR/B&W @start of level stored in gameMode -- so now we just detect a CHANGE is pause
    148  1c35		       85 80		      sta	gameMode	; also, BIT7=0 -- system is NOT paused
    149  1c37
    150  1c37
    151  1c37							; restart level
    152  1c37		       a5 d0		      lda	NextLevelTrigger
    153  1c39		       29 bf		      and	#<(~BIT_NEXTLIFE)
    154  1c3b		       85 d0		      sta	NextLevelTrigger
    155  1c3d
    156  1c3d							; if new high score was set by SwapPlayers, update it:
    157  1c3d
    158  1c3d		       4c bf f6 	      jmp	WriteSaveKey
    159  1c40
    160  1c40
    161  1c40							;------------------------------------------------------------------------------
    162  1c40
      0  1c40					      DEFINE_SUBROUTINE	CreateCreatures
      1  1c40		       00 03	   BANK_CreateCreatures =	_CURRENT_BANK
      2  1c40					      SUBROUTINE
      3  1c40				   CreateCreatures
    164  1c40
    165  1c40							; Calculate rightmost value for scrolling edge.  .
    166  1c40
    167  1c40		       85 c9		      sta	ROM_Bank
    168  1c42
    169  1c42		       38		      sec
    170  1c43		       a5 99		      lda	BoardLimit_Width
    171  1c45		       e9 09		      sbc	#SCREEN_WIDTH-1
    172  1c47		       85 99		      sta	BoardEdge_Right	; absolute rightmost scroll value
    173  1c49
    174  1c49							;		  sec			     already set
    175  1c49		       a5 9a		      lda	BoardLimit_Height
    176  1c4b		       e9 07		      sbc	#SCREEN_LINES-1
    177  1c4d		       85 9a		      sta	BoardEdge_Bottom	; absolute bottommost scroll value
    178  1c4f
    179  1c4f							; kludge position scroll roughly at player
    180  1c4f
    181  1c4f							;		  sec			 already set
    182  1c4f		       a5 a0		      lda	ManX
    183  1c51		       e9 05		      sbc	#5
    184  1c53		       b0 02		      bcs	notL0
    185  1c55		       a9 00		      lda	#0
    186  1c57		       85 9c	   notL0      sta	BoardScrollX
    187  1c59
    188  1c59
    189  1c59		       38		      sec
    190  1c5a		       a5 a1		      lda	ManY
    191  1c5c		       e9 03		      sbc	#3	; TJ: why 5???
    192  1c5e		       b0 02		      bcs	notU0
    193  1c60		       a9 00		      lda	#0
    194  1c62		       85 9b	   notU0      sta	BoardScrollY
    195  1c64
    196  1c64		       a9 00		      lda	#0
    197  1c66		       85 a4		      sta	ManMode
    198  1c68		       85 a5		      sta	ManDelayCount
    199  1c6a
    200  1c6a		       a9 1a		      lda	#AnimateBLANK-Manimate	;0 ;<AnimateBLANK ;STAND
    201  1c6c		       85 a6		      sta	ManAnimation
    202  1c6e							;lda #>AnimateBLANK ;
    203  1c6e							;sta ManAnimation+1
    204  1c6e
    205  1c6e		       a9 ff		      lda	#$FF
    206  1c70		       85 b5		      sta	LastSpriteY
    207  1c72
    208  1c72		       a9 07		      lda	#DIRECTION_BITS
    209  1c74		       85 a9		      sta	ManLastDirection
    210  1c76		       60		      rts
    211  1c77
    212  1c77							;-------------------------------------------------------------------------------------
    213  1c77
      0  1c77					      DEFINE_SUBROUTINE	LevelInit	; in GENERIC_BANK_1
      1  1c77		       00 03	   BANK_LevelInit =	_CURRENT_BANK
      2  1c77					      SUBROUTINE
      3  1c77				   LevelInit
    215  1c77
    216  1c77		       a9 00		      lda	#0
    217  1c79		       85 86		      sta	ObjStackPtr
    218  1c7b		       85 87		      sta	ObjStackPtr+1	; kill all creatures
    219  1c7d		       85 85		      sta	ObjStackNum
    220  1c7f		       85 d3		      sta	ObjIterator
    221  1c81
    222  1c81		       85 9d		      sta	scrollBits
    223  1c83		       85 89		      sta	ScreenDrawPhase
    224  1c85
    225  1c85		       85 b7		      sta	BGColour
    226  1c87		       85 cb		      sta	ColourTimer
    227  1c89
    228  1c89		       85 59		      sta	AUDV0
    229  1c8b		       85 5a		      sta	AUDV1	; turn off music while levels init
    230  1c8d							;		  sta AUDC0
    231  1c8d
    232  1c8d		       85 a9		      sta	ManLastDirection
    233  1c8f		       85 aa		      sta	ManPushCounter
    234  1c91
    235  1c91		       85 d2		      sta	sortPtr	; sort stopped
    236  1c93		       a9 ff		      lda	#<(-1)
    237  1c95		       85 d1		      sta	sortRequired	; nothing needed
    238  1c97		       85 84		      sta	DrawStackPointer
    239  1c99
    240  1c99		       a9 00		      lda	#DISPLAY_TIME	;DISPLAY_SCORE
    241  1c9b		       85 cf		      sta	scoringFlags
    242  1c9d		       a9 00		      lda	#0	;SCORING_TIMER_FIRST		      ; We want the first timer display to be long, to show level and lives
    243  1c9f		       85 ce		      sta	scoringTimer
    244  1ca1		       60		      rts
    245  1ca2
    246  1ca2							;-------------------------------------------------------------------------------------
    247  1ca2
      0  1ca2					      DEFINE_SUBROUTINE	Resync
      1  1ca2		       00 03	   BANK_Resync =	_CURRENT_BANK
      2  1ca2					      SUBROUTINE
      3  1ca2				   Resync
      0  1ca2					      RESYNC
      1  1ca2
      2  1ca2		       a9 02		      lda	#%10
      3  1ca4		       85 41		      sta	VBLANK
      4  1ca6
      5  1ca6		       a2 08		      ldx	#8
      6  1ca8				   .loopResync
      0  1ca8					      VERTICAL_SYNC
      1  1ca8		       a9 0e		      lda	#%1110
      2  1caa		       85 42	   .VSLP1     sta	WSYNC
      3  1cac		       85 40		      sta	VSYNC
      4  1cae		       4a		      lsr
      5  1caf		       d0 f9		      bne	.VSLP1
      8  1cb1
      9  1cb1		       a0 88		      ldy	#SCANLINES_NTSC/2 - 2
     10  1cb3		       a5 81		      lda	Platform
     11  1cb5		       49 02		      eor	#PAL_50
     12  1cb7		       d0 02		      bne	.ntsc
     13  1cb9		       a0 9a		      ldy	#SCANLINES_PAL/2 - 2
     14  1cbb				   .ntsc
     15  1cbb				   .loopWait
     16  1cbb		       85 42		      sta	WSYNC
     17  1cbd		       85 42		      sta	WSYNC
     18  1cbf		       88		      dey
     19  1cc0		       d0 f9		      bne	.loopWait
     20  1cc2		       ca		      dex
     21  1cc3		       d0 e3		      bne	.loopResync
    250  1cc5		       60	   Ret	      rts
    251  1cc6
    252  1cc6							;---------------------------------------------------------------------------
    253  1cc6
      0  1cc6					      DEFINE_SUBROUTINE	TrackPlayer	; =145; in GENERIC_BANK_1
      1  1cc6		       00 03	   BANK_TrackPlayer =	_CURRENT_BANK
      2  1cc6					      SUBROUTINE
      3  1cc6				   TrackPlayer
    255  1cc6
    256  1cc6		       a5 ab		      lda	LookingAround	; 3
    257  1cc8		       d0 fb		      bne	Ret	; 2/3=5/6   don't track when looking around
    258  1cca
    259  1cca							; Contribution by Thomas Jentzsch
    260  1cca
    261  1cca							; scrolling constants:
    262  1cca		       00 03	   .SCRL_START_LEFT =	3	; 3
    263  1cca		       00 03	   .SCRL_STOP_LEFT =	3	;SCREEN_WIDTH-5		    ; 5 scrolls 5-3+1 = 3 pixel
    264  1cca		       00 07	   .SCRL_START_RIGHT =	SCREEN_WIDTH-.SCRL_START_LEFT	; 7
    265  1cca		       00 07	   .SCRL_STOP_RIGHT =	SCREEN_WIDTH-.SCRL_STOP_LEFT	; 5
    266  1cca		       00 11	   .SCRL_LEFT_BIT =	%00010001
    267  1cca		       00 22	   .SCRL_RIGHT_BIT =	%00100010
    268  1cca		       00 33	   .SCRL_X_BITS =	.SCRL_LEFT_BIT|.SCRL_RIGHT_BIT
    269  1cca
    270  1cca		       00 02	   .SCRL_START_UP =	2	; 2
    271  1cca		       00 02	   .SCRL_STOP_UP =	2	;SCREEN_LINES-5		    ; 3 scrolls 3-2+1 = 2 pixel
    272  1cca		       00 06	   .SCRL_START_DOWN =	SCREEN_LINES-.SCRL_START_UP	; 6
    273  1cca		       00 06	   .SCRL_STOP_DOWN =	SCREEN_LINES-.SCRL_STOP_UP	; 5
    274  1cca		       00 44	   .SCRL_UP_BIT =	%01000100
    275  1cca		       00 88	   .SCRL_DOWN_BIT =	%10001000
    276  1cca		       00 cc	   .SCRL_Y_BITS =	.SCRL_UP_BIT|.SCRL_DOWN_BIT
    277  1cca
    278  1cca							; *** horizontal scrolling (unoptimized version): ***
    279  1cca
    280  1cca							; check for enabling horizontal scrolling:
    281  1cca		       a5 a0		      lda	ManX	; 3
    282  1ccc		       38		      sec		; 2
    283  1ccd		       e5 9c		      sbc	BoardScrollX	; 3
    284  1ccf		       a8		      tay		; 2	     for later use
    285  1cd0		       a9 11		      lda	#.SCRL_LEFT_BIT	; 2
    286  1cd2		       c0 03		      cpy	#.SCRL_START_LEFT	; 2	     <3?
    287  1cd4		       30 06		      bmi	.startXScroll	; 2/3	     yes, scroll left
    288  1cd6		       c0 07		      cpy	#.SCRL_START_RIGHT	; 2	     <8?
    289  1cd8		       30 08		      bmi	.skipStartXScroll	; 2/3	     no
    290  1cda		       a9 22		      lda	#.SCRL_RIGHT_BIT	; 2 = 22    yes, scroll right
    291  1cdc				   .startXScroll
    292  1cdc		       29 03		      and	#.SCRL_X_BITS >> 4	; 2
    293  1cde		       05 9d		      ora	scrollBits	; 3
    294  1ce0		       85 9d		      sta	scrollBits	; 3 =	8
    295  1ce2				   .skipStartXScroll
    296  1ce2
    297  1ce2							; do horizontal scrolling:
    298  1ce2		       a5 9d		      lda	scrollBits	; 3
    299  1ce4		       29 03		      and	#.SCRL_X_BITS >> 4	; 2
    300  1ce6		       f0 23		      beq	.skipXScroll	; 2/3
    301  1ce8		       29 22		      and	#.SCRL_RIGHT_BIT	; 2
    302  1cea		       d0 0c		      bne	.xScrollRight	; 2/3=11/12
    303  1cec
    304  1cec							; scroll left:
    305  1cec		       a5 9c		      lda	BoardScrollX	; 3	     already at left edge?
    306  1cee		       f0 15		      beq	.stopXScroll	; 2
    307  1cf0		       c6 9c		      dec	BoardScrollX	; 5
    308  1cf2		       c0 02		      cpy	#.SCRL_STOP_LEFT-1	; 2
    309  1cf4		       10 0f		      bpl	.stopXScroll	; 2/3=15
    310  1cf6		       30 13		      bmi	.skipXScroll	; 3
    311  1cf8							;---------------------------------------
    312  1cf8				   .xScrollRight
    313  1cf8		       a6 9c		      ldx	BoardScrollX	; 3
    314  1cfa		       e8		      inx		; 2
    315  1cfb		       e4 99		      cpx	BoardEdge_Right	; 3	     already at right edge?
    316  1cfd		       10 06		      bpl	.stopXScroll	; 2/3
    317  1cff		       86 9c		      stx	BoardScrollX	; 3
    318  1d01		       c0 08		      cpy	#.SCRL_STOP_RIGHT+1	; 2
    319  1d03		       10 06		      bpl	.skipXScroll	; 2/3=17/18
    320  1d05				   .stopXScroll
    321  1d05		       a5 9d		      lda	scrollBits	; 3
    322  1d07		       29 fc		      and	#(~(.SCRL_X_BITS >> 4))	; 2
    323  1d09		       85 9d		      sta	scrollBits	; 3 =	8
    324  1d0b				   .skipXScroll
    325  1d0b							; worst case: 22 + 8 + 12 + 17 + 8 = 67
    326  1d0b
    327  1d0b							; *** vertical scrolling (unoptimized version): ***
    328  1d0b
    329  1d0b							; check for enabling vertical scrolling:
    330  1d0b		       a5 a1		      lda	ManY	; 3
    331  1d0d		       38		      sec		; 2
    332  1d0e		       e5 9b		      sbc	BoardScrollY	; 3
    333  1d10		       a8		      tay		; 2	     for later use
    334  1d11		       a9 44		      lda	#.SCRL_UP_BIT	; 2
    335  1d13		       c0 02		      cpy	#.SCRL_START_UP	; 2	     <2?
    336  1d15		       30 06		      bmi	.startYScroll	; 2/3	     yes, scroll up
    337  1d17		       c0 06		      cpy	#.SCRL_START_DOWN	; 2	     <6?
    338  1d19		       30 08		      bmi	.skipStartYScroll	; 2/3
    339  1d1b		       a9 88		      lda	#.SCRL_DOWN_BIT	; 2 = 22    yes, scroll down
    340  1d1d				   .startYScroll
    341  1d1d		       29 0c		      and	#.SCRL_Y_BITS >> 4	; 2
    342  1d1f		       05 9d		      ora	scrollBits	; 3
    343  1d21		       85 9d		      sta	scrollBits	; 3 =	8
    344  1d23				   .skipStartYScroll
    345  1d23
    346  1d23							; do vertical scrolling:
    347  1d23		       a5 9d		      lda	scrollBits	; 3
    348  1d25		       29 cc		      and	#.SCRL_Y_BITS	; 2
    349  1d27		       f0 23		      beq	.skipYScroll	; 2/3
    350  1d29		       29 88		      and	#.SCRL_DOWN_BIT	; 2
    351  1d2b		       d0 0c		      bne	.yScrollDown	; 2/3=11/12
    352  1d2d
    353  1d2d							; scroll up
    354  1d2d		       a5 9b		      lda	BoardScrollY	; 3
    355  1d2f		       f0 15		      beq	.stopYScroll	; 2
    356  1d31		       c6 9b		      dec	BoardScrollY	; 5
    357  1d33		       c0 01		      cpy	#.SCRL_STOP_UP-1	; 2
    358  1d35		       10 0f		      bpl	.stopYScroll	; 2/3=15
    359  1d37		       30 13		      bmi	.skipYScroll	; 3
    360  1d39							;---------------------------------------
    361  1d39				   .yScrollDown
    362  1d39		       a6 9b		      ldx	BoardScrollY	; 3
    363  1d3b		       e8		      inx		; 2
    364  1d3c		       e4 9a		      cpx	BoardEdge_Bottom	;     ; 3
    365  1d3e		       10 06		      bpl	.stopYScroll	; 2/3
    366  1d40		       86 9b		      stx	BoardScrollY	; 3
    367  1d42		       c0 07		      cpy	#.SCRL_STOP_DOWN+1	; 2
    368  1d44		       10 06		      bpl	.skipYScroll	; 2/3=17/18
    369  1d46				   .stopYScroll
    370  1d46		       a5 9d		      lda	scrollBits	; 3
    371  1d48		       29 f3		      and	#(~(.SCRL_Y_BITS >> 4))	; 2
    372  1d4a		       85 9d		      sta	scrollBits	; 3 =	8
    373  1d4c				   .skipYScroll
    374  1d4c							; worst case: 22 + 8 + 12 + 17 + 8 = 67
    375  1d4c
    376  1d4c		       60	   EarlyAbortx rts		; 6 =	6
    377  1d4d							; total: 5+67*2+6 = 145
    378  1d4d
    379  1d4d
    380  1d4d							;------------------------------------------------------------------------------
    381  1d4d
    382  1d4d							; This is a GOOD home for these tables.
    383  1d4d
      0  1d4d					      DEFINE_SUBROUTINE	TS_PhaseVectorLO
      1  1d4d		       00 03	   BANK_TS_PhaseVectorLO =	_CURRENT_BANK
      2  1d4d					      SUBROUTINE
      3  1d4d				   TS_PhaseVectorLO
    385  1d4d
    386  1d4d							; Gives LO byte of addresses of subroutines for timeslice processing
    387  1d4d
    388  1d4d		       58		      .byte.b	<ProcessObjStack
    389  1d4e		       b6		      .byte.b	<DrawFullScreen
    390  1d4f		       5a		      .byte.b	<BuildDrawStack
    391  1d50		       61		      .byte.b	<DrawAIntoStack
    392  1d51		       9b		      .byte.b	<SwitchObjects
    393  1d52
    394  1d52				   TS_PhaseVectorHI
    395  1d52
    396  1d52							; Gives HI byte of addresses of subroutines for timeslice processing
    397  1d52
    398  1d52		       f8		      .byte.b	>ProcessObjStack
    399  1d53		       f2		      .byte.b	>DrawFullScreen
    400  1d54		       fb		      .byte.b	>BuildDrawStack
    401  1d55		       fb		      .byte.b	>DrawAIntoStack
    402  1d56		       f8		      .byte.b	>SwitchObjects
    403  1d57
    404  1d57				   TS_PhaseBank
    405  1d57
    406  1d57							; Gives bank of subroutines for timeslice processing
    407  1d57
    408  1d57		       0f		      .byte.b	BANK_ProcessObjStack
    409  1d58		       0b		      .byte.b	BANK_DrawFullScreen
    410  1d59		       08		      .byte.b	BANK_DRAW_BUFFERS	;BANK_BuildDrawStack
    411  1d5a		       08		      .byte.b	BANK_DRAW_BUFFERS	;BANK_BuildDrawStack2
    412  1d5b		       0f		      .byte.b	BANK_SwitchObjects
    413  1d5c
    414  1d5c							;------------------------------------------------------------------------------
    415  1d5c		       02 02	   lookColour2 .byte.b	$02, $02
    416  1d5e		       04 04		      .byte.b	$04, $04
    417  1d60
    418  1d60				   OverscanTime
    419  1d60		       22 22		      .byte.b	OVERSCAN_TIM_NTSC, OVERSCAN_TIM_NTSC
    420  1d62		       29 22		      .byte.b	OVERSCAN_TIM_PAL, OVERSCAN_TIM_NTSC
    421  1d64
    422  1d64		       c0 c0 50 50 FlashColour .byte.b	$C0, $C0, $50, $50
    423  1d68		       30 30 60 60	      .byte.b	$30, $30, $60, $60
    424  1d6c
    425  1d6c
      0  1d6c					      DEFINE_SUBROUTINE	PostScreenCleanup
      1  1d6c		       00 03	   BANK_PostScreenCleanup =	_CURRENT_BANK
      2  1d6c					      SUBROUTINE
      3  1d6c				   PostScreenCleanup
    427  1d6c
    428  1d6c		       c8		      iny		; --> 0
    429  1d6d
    430  1d6d		       84 49		      sty	COLUBK	; starts colour change bottom score area, wraps to top score area
    431  1d6f							; + moved here so we don't see a minor colour artefact bottom of screen when look-arounding
    432  1d6f
    433  1d6f		       84 4d		      sty	PF0	; why wasn't this here?  I saw colour glitching in score area!
    434  1d71							; TJ: no idea why, but you had removed it in revision 758 ;)
    435  1d71							; completely accidental -- one of our cats may have deleted it.
    436  1d71		       84 4e		      sty	PF1
    437  1d73		       84 4f		      sty	PF2
    438  1d75		       84 5d		      sty	ENAM0
    439  1d77		       84 5b		      sty	GRP0	; when look-scrolling, we can see feet at the top if these aren't here
    440  1d79		       84 5c		      sty	GRP1	; 30/12/2011 -- fix dots @ top!
    441  1d7b
    442  1d7b							; D1 VBLANK turns off beam
    443  1d7b
    444  1d7b		       a9 42		      lda	#%01000010	; bit6 is not required
    445  1d7d		       85 41		      sta	VBLANK	; end of screen - enter blanking
    446  1d7f
    447  1d7f							;------------------------------------------------------------------------------
    448  1d7f							; This is where the PAL system has a bit of extra time on a per-frame basis.
    449  1d7f
    450  1d7f		       a6 81		      ldx	Platform
    451  1d81		       bd 60 f5 	      lda	OverscanTime,x
    452  1d84		       8d 96 02 	      sta	TIM64T
    453  1d87
    454  1d87							; Background colour priorities. Increasing order of priority...
    455  1d87							;	black -- nothing happening
    456  1d87							;	looking around			     lookingAround<0		     BLUE
    457  1d87							;	when paused			     gameMode... BIT7		     RED
    458  1d87							;	when the door opens (flash)	     ColourTimer>0		     WHITE
    459  1d87
    460  1d87
    461  1d87							;		  lda LookingAround
    462  1d87							;		  bpl nolooker			  ; if not looking around, that will do nicely
    463  1d87							;		  ldy #0 ;sok
    464  1d87							;;		   ldy lookColour2,x		   ; otherwise, use the lookaround colour as the base
    465  1d87							;nolooker	  sty BGColour			  ; 'BASE' colour pause reverts TO when unpaused
    466  1d87
    467  1d87		       a5 bc		      lda	ThrottleSpeed
    468  1d89		       18		      clc
    469  1d8a		       65 bb		      adc	Throttle
    470  1d8c		       b0 02		      bcs	noVerflo
    471  1d8e		       85 bb		      sta	Throttle
    472  1d90				   noVerflo
    473  1d90
    474  1d90
    475  1d90							;----------------------------------------------------------------------------------------------
    476  1d90							; handle pause button for 2600 and 7800
    477  1d90
    478  1d90							; Timings:  NOT including palette setting or platform detect
    479  1d90							; 2600:     no button press:	 11 cycles
    480  1d90							;	     with button press:  21 cycles
    481  1d90							; 7800      no button press:	 16 cycles
    482  1d90							;	     with button press:  21 cycles
    483  1d90
    484  1d90
    485  1d90
    486  1d90		       00 08	   BW_SWITCH  =	$08	; NOTE: Shares bit position with SWCHB COLOUR/B&W SWITCH
    487  1d90
    488  1d90		       24 80		      bit	gameMode
    489  1d92		       50 0b		      bvc	.pause7800	; 7800 platform
    490  1d94
    491  1d94							; 2600 pause logic...
    492  1d94
    493  1d94		       ad 82 02 	      lda	SWCHB
    494  1d97		       45 80		      eor	gameMode
    495  1d99		       29 08		      and	#BW_SWITCH
    496  1d9b		       f0 17		      beq	.setPauseCol	; no different to original state = no pause change
    497  1d9d		       d0 0f		      bne	.buttonDown	; unconditional
    498  1d9f
    499  1d9f							; 7800 pause logic...
    500  1d9f
    501  1d9f							; When the button is pressed, we check if it's the FIRST time it's pressed.
    502  1d9f							; This FIRST time is indicated by the PFLAG7800 being clear.  If it's the first time, we toggle the pause
    503  1d9f							; flag (BIT6) AND we toggle the PFLAG7800 so continued button-down does nothing.  When the button is
    504  1d9f							; released, then we again toggle the PFLAG7800, allowing a FIRST time check once again, when the button
    505  1d9f							; is next pressed.
    506  1d9f
    507  1d9f		       a9 08	   .pause7800 lda	#BW_SWITCH
    508  1da1		       2c 82 02 	      bit	SWCHB
    509  1da4		       f0 04		      beq	.pausePress
    510  1da6		       05 80		      ora	gameMode	; not pressed, so enable first time press
    511  1da8		       d0 08		      bne	.fixPause	; unconditional
    512  1daa
    513  1daa		       24 80	   .pausePress bit	gameMode
    514  1dac		       f0 06		      beq	.setPauseCol	; NOT the first time in pause - so do nothing new
    515  1dae
    516  1dae							; Button is down, and we have detected it as a FIRST-TIME button press.
    517  1dae
    518  1dae		       45 80	   .buttonDown eor	gameMode	; toggle first time flag(7800) or current switch state(2600)
    519  1db0		       49 80		      eor	#GAMEMODE_PAUSED	; toggle pause flag
    520  1db2		       85 80	   .fixPause  sta	gameMode
    521  1db4
    522  1db4		       a5 80	   .setPauseCol lda	gameMode	; are we paused?
    523  1db6		       10 07		      bpl	.exitPause	; only show pause colour when actually paused
    524  1db8
    525  1db8		       a6 81		      ldx	Platform
    526  1dba		       bd 2a f6 	      lda	pscol,x
    527  1dbd		       85 b7		      sta	BGColour	; set main screen background colour.  RED is paused.
    528  1dbf
    529  1dbf				   .exitPause
    530  1dbf
    531  1dbf							;----------------------------------------------------------------------------------------------
    532  1dbf
    533  1dbf							; has to be done AFTER screen display, because it disables the effect!
    534  1dbf		       a5 82		      lda	rnd	; 3	 randomly reposition the Cosmic Ark missile
    535  1dc1		       85 62		      sta	HMM0	; 3	 this assumes that HMOVE is called at least once/frame
    536  1dc3
    537  1dc3							; "Flash" has highest BG colour priority
    538  1dc3
    539  1dc3		       a5 cb		      lda	ColourTimer
    540  1dc5		       f0 07		      beq	noFlashBG
    541  1dc7		       c6 cb		      dec	ColourTimer
    542  1dc9		       a6 cc		      ldx	ColourFlash
    543  1dcb		       bd 64 f5 	      lda	FlashColour,x
    544  1dce		       85 b7	   noFlashBG  sta	BGColour
    545  1dd0
    546  1dd0							; Handle the player joystick reading. We do it *every frame* so that we can incorporate a two-frame
    547  1dd0							; buffer.  This is designed to give a little better responsiveness to the 'quick tap' movement.
    548  1dd0
    549  1dd0		       a5 95		      lda	BufferedJoystick	; previous frame
    550  1dd2		       85 96		      sta	BufferedJoystick+1	; -> buffered
    551  1dd4
    552  1dd4
    553  1dd4							; Create a 'standardised' joystick with D4-D7 having bits CLEAR if the appropriate direction is chosen.
    554  1dd4							; P2 is shifted UP, so we don't need to worry in usage elsewhere (it's same format as a P1 joystick)
    555  1dd4
    556  1dd4		       a5 9e		      lda	whichPlayer	; 3
    557  1dd6		       25 ae		      and	jtoggle	; 3
    558  1dd8		       aa		      tax		; 2
    559  1dd9
    560  1dd9		       b5 4c		      lda	INPT4,x	; 4
    561  1ddb		       25 97		      and	BufferedButton
    562  1ddd		       85 97		      sta	BufferedButton	; 3 = 15
    563  1ddf
    564  1ddf		       ad 80 02 	      lda	SWCHA	; 4
    565  1de2
    566  1de2		       ca		      dex		; 2
    567  1de3		       30 04		      bmi	notP2	; 2/3= 8/9
    568  1de5
    569  1de5		       0a		      asl		; 2
    570  1de6		       0a		      asl		; 2
    571  1de7		       0a		      asl		; 2
    572  1de8		       0a		      asl		; 2 =	8
    573  1de9		       85 95	   notP2      sta	BufferedJoystick	; 3
    574  1deb
    575  1deb
    576  1deb							; "Scoring timer" reset stomp comment
    577  1deb
    578  1deb		       a5 ce		      lda	scoringTimer
    579  1ded		       f0 0a		      beq	timer0now
    580  1def		       c6 ce		      dec	scoringTimer
    581  1df1		       d0 06		      bne	timer0now
    582  1df3		       a5 cf		      lda	scoringFlags
    583  1df5		       29 fc		      and	#<(~DISPLAY_FLAGS)	;	 switches to time display
    584  1df7		       85 cf		      sta	scoringFlags
    585  1df9				   timer0now
    586  1df9
    587  1df9							; fall through
    588  1df9
    589  1df9							;-------------------------------------------------------------------------------------
    590  1df9							; Player animation happens *every* frame so that we get good animation speeds.  Note that
    591  1df9							; the player animation consists of running a small animation 'program', and then actually drawing
    592  1df9							; the player.	The draw is the neat bit, because all it does is update some self-modifying pointers
    593  1df9							; inside the actual draw kernel in the appropriate bank.
    594  1df9
    595  1df9
      0  1df9					      DEFINE_SUBROUTINE	AnimatePlayers	; in GENERIC_BANK_1
      1  1df9		       00 03	   BANK_AnimatePlayers =	_CURRENT_BANK
      2  1df9					      SUBROUTINE
      3  1df9				   AnimatePlayers
    597  1df9
    598  1df9							; Optimised 7/1/2012 -- single page tables
    599  1df9
    600  1df9							; This interesting code performs the animations for the player(s) and sets the
    601  1df9							; pointers INSIDE the row bank for the draw code to point to the correct player
    602  1df9							; shape.  Kind of neat, as it doesn't require any shape copying (=speed!)
    603  1df9
    604  1df9
    605  1df9							; Cycle the player through his animation list.  The animation of a player is a direct
    606  1df9							; pointer to the actual shape used to display the player.  This shape is in turn
    607  1df9							; written to the current bank's self-modifying locations for the draw.  Since
    608  1df9							; we are effectively drawing from this current bank, the same code can be used
    609  1df9							; to 'undraw' the player as required.
    610  1df9
    611  1df9
    612  1df9							; x = player index
    613  1df9							; sets ManAnimation = FRAME to display for player
    614  1df9							; ManAnimation = index of player program into Manimate list
    615  1df9
    616  1df9		       24 80		      bit	gameMode
    617  1dfb		       30 2c		      bmi	AnimationOK	; don't animate during pause
    618  1dfd
    619  1dfd		       c6 a5		      dec	ManDelayCount
    620  1dff		       10 28		      bpl	AnimationOK
    621  1e01
    622  1e01		       a4 a6	   ReloadAnimation ldy	ManAnimation
    623  1e03		       b9 00 f7    ContinueAnim lda	Manimate,y	; delay count
    624  1e06		       d0 07		      bne	NewFrameOK
    625  1e08		       b9 01 f7 	      lda	Manimate+1,y
    626  1e0b		       a8		      tay
    627  1e0c		       4c 03 f6 	      jmp	ContinueAnim
    628  1e0f
    629  1e0f		       10 0d	   NewFrameOK bpl	doDelay
    630  1e11
    631  1e11		       c8		      iny		; handle a REFLECT
    632  1e12		       a5 a9		      lda	ManLastDirection
    633  1e14		       29 f7		      and	#%11110111
    634  1e16		       19 00 f7 	      ora	Manimate,y
    635  1e19		       85 a9		      sta	ManLastDirection
    636  1e1b
    637  1e1b		       c8		      iny
    638  1e1c		       d0 e5		      bne	ContinueAnim
    639  1e1e
    640  1e1e		       85 a5	   doDelay    sta	ManDelayCount
    641  1e20
    642  1e20		       c8		      iny
    643  1e21		       b9 00 f7 	      lda	Manimate,y
    644  1e24		       85 a8		      sta	ManAnimationFrameLO
    645  1e26
    646  1e26		       c8		      iny
    647  1e27		       84 a6		      sty	ManAnimation
    648  1e29
    649  1e29		       60	   AnimationOK rts
    650  1e2a
    651  1e2a
    652  1e2a
    653  1e2a		       40 40	   pscol      .byte.b	$40, $40
    654  1e2c		       60 60		      .byte.b	$60, $60
    655  1e2e
    656  1e2e							;------------------------------------------------------------------------------
    657  1e2e
------- FILE i2c_v2.2.inc LEVEL 3 PASS 4
      0  1e2e					      include	"i2c_v2.2.inc"
      1  1e2e							;
      2  1e2e							; i2c_v2.2.inc
      3  1e2e							;
      4  1e2e							;
      5  1e2e							; AtariVox EEPROM Driver
      6  1e2e							;
      7  1e2e							; By Alex Herbert, 2004
      8  1e2e							;
      9  1e2e							; Optimisations by Thomas Jentzsch, 2006/2008
     10  1e2e							;
     11  1e2e
     12  1e2e
     13  1e2e							; I/O Constants
     14  1e2e
     15  1e2e		       00 04	   I2C_SDA_MASK equ	$04
     16  1e2e		       00 08	   I2C_SCL_MASK equ	$08
     17  1e2e
     18  1e2e
     19  1e2e							; Signalling Macros
     20  1e2e
     21  1e2e							;  MAC     I2C_SCL_0
     22  1e2e							;    lda     #$00
     23  1e2e							;    sta     SWCHA
     24  1e2e							;  ENDM
     25  1e2e
     26  1e2e							;  MAC     I2C_SCL_1
     27  1e2e							;    lda     #I2C_SCL_MASK
     28  1e2e							;    sta     SWCHA
     29  1e2e							;  ENDM
     30  1e2e
     31  1e2e							;  MAC     I2C_SDA_IN
     32  1e2e							;    lda     #I2C_SCL_MASK
     33  1e2e							;    sta     SWACNT
     34  1e2e							;  ENDM
     35  1e2e
     36  1e2e							;  MAC     I2C_SDA_OUT
     37  1e2e							;    lda     #I2C_SCL_MASK|I2C_SDA_MASK
     38  1e2e							;    sta     SWACNT
     39  1e2e							;  ENDM
     40  1e2e
     41  1e2e
     42  1e2e					      MAC	i2c_start
     43  1e2e							; I2C_SCL_1
     44  1e2e					      lda	#(I2C_SCL_MASK|I2C_SDA_MASK)*2	; 2	     I2C_SCL_MASK
     45  1e2e					      sta	SWCHA	; 4
     46  1e2e							; I2C_SDA_OUT
     47  1e2e					      lsr		; 2	     I2C_SCL_MASK|I2C_SDA_MASK
     48  1e2e					      sta	SWACNT	; 4
     49  1e2e							; total: 12 cycles
     50  1e2e					      ENDM
     51  1e2e
     52  1e2e
     53  1e2e					      MAC	i2c_txbit
     54  1e2e							; I2C_SCL_0
     55  1e2e					      lda	#%0011	; 2
     56  1e2e					      sta	SWCHA	; 4
     57  1e2e							; set bit
     58  1e2e					      adc	#%1000	; 2
     59  1e2e					      sta	SWACNT	; 4	     SDA = !C (a = %1000 / %1100)
     60  1e2e							; I2C_SCL_1
     61  1e2e					      lda	#I2C_SCL_MASK	; 2
     62  1e2e					      sta	SWCHA	; 4
     63  1e2e							; total: 18 cycles
     64  1e2e					      ENDM
     65  1e2e
     66  1e2e
     67  1e2e					      MAC	i2c_txnack
     68  1e2e							; I2C_SCL_0
     69  1e2e					      lda	#I2C_SCL_MASK*2	; 2	     $00
     70  1e2e					      sta	SWCHA	; 4
     71  1e2e							; I2C_SDA_IN
     72  1e2e					      lsr		; 2	     I2C_SCL_MASK
     73  1e2e					      sta	SWACNT	; 4
     74  1e2e							; I2C_SCL_1
     75  1e2e					      nop		; 2	     required for timing!
     76  1e2e					      sta	SWCHA	; 4	     I2C_SCL_MASK
     77  1e2e							; total: 18 cycles
     78  1e2e					      ENDM
     79  1e2e
     80  1e2e
     81  1e2e							; Subroutine Macros
     82  1e2e
     83  1e2e					      MAC	i2c_subs
     84  1e2e
     85  1e2e				   i2c_startread
     86  1e2e							; use V to flag if previous byte needs ACK
     87  1e2e					      ldy	#%10100001	; 2	     eeprom read command
     88  1e2e					      .byte	$2c	; 2
     89  1e2e				   i2c_startwrite
     90  1e2e					      ldy	#%10100000	; 2	     eeprom write command
     91  1e2e					      I2C_START		;12	     start signal (clears V flag)
     92  1e2e					      tya		; 2 = 16
     93  1e2e				   i2c_txbyte
     94  1e2e					      eor	#$ff	; 2	     invert data byte
     95  1e2e					      sec		; 2
     96  1e2e					      rol		; 2 =	6    shift loop bit into a
     97  1e2e				   i2c_txbyteloop
     98  1e2e					      tay		; 2
     99  1e2e					      I2C_TXBIT		;18	     transmit
    100  1e2e					      tya		; 2
    101  1e2e					      asl		; 2	     shift next bit into C
    102  1e2e					      bne	i2c_txbyteloop	; 2= 26/27
    103  1e2e
    104  1e2e							; receive acknowledge bit
    105  1e2e
    106  1e2e					      beq	i2c_rxbit	;43 = 43
    107  1e2e							; i2c_txbyte: 264 cycles
    108  1e2e							;-------------------------------------------------------------------------------
    109  1e2e
    110  1e2e				   i2c_rxbyte
    111  1e2e					      bvc	i2c_rxskipack	; 2	     previous byte needs acknowledge?
    112  1e2e					      jsr	i2c_txack	;24	     transmit acknowledge bit
    113  1e2e
    114  1e2e				   i2c_rxskipack
    115  1e2e					      bit	i2c_rxbyte	; 4	     set V - next byte(s) require acknowledge
    116  1e2e
    117  1e2e					      lda	#1	; 2
    118  1e2e				   i2c_rxbyteloop
    119  1e2e					      tay		; 2 =	2
    120  1e2e				   i2c_rxbit		;	     receive bit in C
    121  1e2e					      I2C_TXNACK		;18 = 18
    122  1e2e
    123  1e2e					      lda	SWCHA	; 4
    124  1e2e					      lsr		; 2
    125  1e2e					      lsr		; 2
    126  1e2e					      lsr		; 2 = 10    C = SDA
    127  1e2e
    128  1e2e					      tya		; 2
    129  1e2e					      rol		; 2	     rotate into Y
    130  1e2e					      bcc	i2c_rxbyteloop	; 2=	6/7
    131  1e2e
    132  1e2e							; received byte in A
    133  1e2e					      rts		; 6 =	6
    134  1e2e							; i2c_rxbit:  40 cycles
    135  1e2e							; i2c_rxbyte: 310/333 cycles
    136  1e2e							;-------------------------------------------------------------------------------
    137  1e2e
    138  1e2e				   i2c_stopread
    139  1e2e					      bvc	i2c_stopwrite	; 2
    140  1e2e					      ldy	#$80	; 2
    141  1e2e					      jsr	i2c_rxbit	;46	     transmit no-acknowledge
    142  1e2e
    143  1e2e				   i2c_stopwrite
    144  1e2e					      jsr	i2c_txack	;30
    145  1e2e
    146  1e2e							; return port to input mode
    147  1e2e					      lda	#0	; 2	     0
    148  1e2e					      sta	SWACNT	; 4
    149  1e2e					      rts		; 6 = 12
    150  1e2e							; i2c_stopread:  45/92
    151  1e2e							; i2c_stopwrite: 42
    152  1e2e							;-------------------------------------------------------------------------------
    153  1e2e
    154  1e2e				   i2c_txack
    155  1e2e							; I2C_SCL_0
    156  1e2e					      lda	#0	; 2	     $00
    157  1e2e					      sta	SWCHA	; 4
    158  1e2e							; I2C_SDA_OUT
    159  1e2e					      lda	#(I2C_SCL_MASK|I2C_SDA_MASK)	; 2	     I2C_SCL_MASK|I2C_SDA_MASK
    160  1e2e					      sta	SWACNT	; 4
    161  1e2e							; I2C_SCL_1
    162  1e2e					      asl		; 2	     I2C_SCL_MASK
    163  1e2e					      sta	SWCHA	; 4
    164  1e2e
    165  1e2e					      rts		; 6
    166  1e2e							; total: 24 cycles
    167  1e2e							;-------------------------------------------------------------------------------
    168  1e2e
    169  1e2e					      ENDM
    170  1e2e
    171  1e2e
    172  1e2e
------- FILE BANK_GENERIC.asm
    659  1e2e
      0  1e2e					      i2c_subs
      1  1e2e
      2  1e2e				   i2c_startread
      3  1e2e
      4  1e2e		       a0 a1		      ldy	#%10100001
      5  1e30		       2c		      .byte.b	$2c
      6  1e31				   i2c_startwrite
      7  1e31		       a0 a0		      ldy	#%10100000
      0  1e33					      I2C_START
      1  1e33
      2  1e33		       a9 18		      lda	#(I2C_SCL_MASK|I2C_SDA_MASK)*2
      3  1e35		       8d 80 02 	      sta	SWCHA
      4  1e38
      5  1e38		       4a		      lsr
      6  1e39		       8d 81 02 	      sta	SWACNT
      7  1e3c
      9  1e3c		       98		      tya
     10  1e3d				   i2c_txbyte
     11  1e3d		       49 ff		      eor	#$ff
     12  1e3f		       38		      sec
     13  1e40		       2a		      rol
     14  1e41				   i2c_txbyteloop
     15  1e41		       a8		      tay
      0  1e42					      I2C_TXBIT
      1  1e42
      2  1e42		       a9 03		      lda	#%0011
      3  1e44		       8d 80 02 	      sta	SWCHA
      4  1e47
      5  1e47		       69 08		      adc	#%1000
      6  1e49		       8d 81 02 	      sta	SWACNT
      7  1e4c
      8  1e4c		       a9 08		      lda	#I2C_SCL_MASK
      9  1e4e		       8d 80 02 	      sta	SWCHA
     10  1e51
     17  1e51		       98		      tya
     18  1e52		       0a		      asl
     19  1e53		       d0 ec		      bne	i2c_txbyteloop
     20  1e55
     21  1e55
     22  1e55
     23  1e55		       f0 0b		      beq	i2c_rxbit
     24  1e57
     25  1e57
     26  1e57
     27  1e57				   i2c_rxbyte
     28  1e57		       50 03		      bvc	i2c_rxskipack
     29  1e59		       20 8a f6 	      jsr	i2c_txack
     30  1e5c
     31  1e5c				   i2c_rxskipack
     32  1e5c		       2c 57 f6 	      bit	i2c_rxbyte
     33  1e5f
     34  1e5f		       a9 01		      lda	#1
     35  1e61				   i2c_rxbyteloop
     36  1e61		       a8		      tay
     37  1e62				   i2c_rxbit
      0  1e62					      I2C_TXNACK
      1  1e62
      2  1e62		       a9 10		      lda	#I2C_SCL_MASK*2
      3  1e64		       8d 80 02 	      sta	SWCHA
      4  1e67
      5  1e67		       4a		      lsr
      6  1e68		       8d 81 02 	      sta	SWACNT
      7  1e6b
      8  1e6b		       ea		      nop
      9  1e6c		       8d 80 02 	      sta	SWCHA
     10  1e6f
     39  1e6f
     40  1e6f		       ad 80 02 	      lda	SWCHA
     41  1e72		       4a		      lsr
     42  1e73		       4a		      lsr
     43  1e74		       4a		      lsr
     44  1e75
     45  1e75		       98		      tya
     46  1e76		       2a		      rol
     47  1e77		       90 e8		      bcc	i2c_rxbyteloop
     48  1e79
     49  1e79
     50  1e79		       60		      rts
     51  1e7a
     52  1e7a
     53  1e7a
     54  1e7a
     55  1e7a				   i2c_stopread
     56  1e7a		       50 05		      bvc	i2c_stopwrite
     57  1e7c		       a0 80		      ldy	#$80
     58  1e7e		       20 62 f6 	      jsr	i2c_rxbit
     59  1e81
     60  1e81				   i2c_stopwrite
     61  1e81		       20 8a f6 	      jsr	i2c_txack
     62  1e84
     63  1e84
     64  1e84		       a9 00		      lda	#0
     65  1e86		       8d 81 02 	      sta	SWACNT
     66  1e89		       60		      rts
     67  1e8a
     68  1e8a
     69  1e8a
     70  1e8a
     71  1e8a				   i2c_txack
     72  1e8a
     73  1e8a		       a9 00		      lda	#0
     74  1e8c		       8d 80 02 	      sta	SWCHA
     75  1e8f
     76  1e8f		       a9 0c		      lda	#(I2C_SCL_MASK|I2C_SDA_MASK)
     77  1e91		       8d 81 02 	      sta	SWACNT
     78  1e94
     79  1e94		       0a		      asl
     80  1e95		       8d 80 02 	      sta	SWCHA
     81  1e98
     82  1e98		       60		      rts
     83  1e99
     84  1e99
     85  1e99
    661  1e99
    662  1e99				   HandleSaveKey SUBROUTINE
    663  1e99
    664  1e99		       2f 00	   SAVEKEY_ADR =	$2F00	;	     tentative address for Sokoban (64 bytes)
    665  1e99
    666  1e99							;------------------------------------------------------------------------------
      0  1e99					      DEFINE_SUBROUTINE	ReadSaveKey	; = 2371
      1  1e99		       00 03	   BANK_ReadSaveKey =	_CURRENT_BANK
      2  1e99					      SUBROUTINE
      3  1e99				   ReadSaveKey
    668  1e99
    669  1e99							; assume no SaveKey found:
    670  1e99		       a9 ff		      lda	#$ff	; 2	     return $ff if no SaveKey found
    671  1e9b		       85 e6		      sta	highScoreSK+2	; 3
    672  1e9d
    673  1e9d							; setup SaveKey:
    674  1e9d		       a5 e7		      lda	startingLevel	; 3	     load start levelX*5 and level
    675  1e9f		       a6 b9		      ldx	level	; 3
    676  1ea1		       20 da f6 	      jsr	SetupSaveKey	;6+853
    677  1ea4		       90 52		      bcc	NoSKfound	; 2/3
    678  1ea6
    679  1ea6							;    lda     #$34
    680  1ea6							;    sta     COLUBK
    681  1ea6
    682  1ea6							; start read
    683  1ea6		       20 81 f6 	      jsr	i2c_stopwrite	;6+42	     end of "fake" write
    684  1ea9		       20 2e f6 	      jsr	i2c_startread	;6+284      Start signal and $a1 command byte
    685  1eac
    686  1eac							; read high score:
    687  1eac		       a2 02		      ldx	#3-1	; 2 = 1187
    688  1eae				   .loopRead
    689  1eae		       20 57 f6 	      jsr	i2c_rxbyte	;6+333      read byte from EEPROM
    690  1eb1		       c9 ff		      cmp	#$ff	; 2	     EEPROM slot empty?
    691  1eb3		       d0 02		      bne	.skipEmpty	; 2/3	      no, skip clear
    692  1eb5		       a9 00		      lda	#0	; 2	     clear EEPROM slot
    693  1eb7				   .skipEmpty
    694  1eb7		       95 e4		      sta	highScoreSK,x	; 4
    695  1eb9		       ca		      dex		; 2
    696  1eba		       10 f2		      bpl	.loopRead	; 2/3= 354
    697  1ebc
    698  1ebc							; stop read:
    699  1ebc		       4c 7a f6 	      jmp	i2c_stopread	;3+92=95    terminate read
    700  1ebf
    701  1ebf							;------------------------------------------------------------------------------
      0  1ebf					      DEFINE_SUBROUTINE	WriteSaveKey	; = 1751
      1  1ebf		       00 03	   BANK_WriteSaveKey =	_CURRENT_BANK
      2  1ebf					      SUBROUTINE
      3  1ebf				   WriteSaveKey
    703  1ebf
    704  1ebf							; check if new high score:
    705  1ebf		       a6 e4		      ldx	highScoreSK	; 3
    706  1ec1		       e8		      inx		; 2
    707  1ec2		       f0 34		      beq	NoSKfound	; 2/3	     no new high score, abort
    708  1ec4
    709  1ec4							; setup SaveKey:
    710  1ec4		       a5 e7		      lda	startingLevel	; 3	     load start levelX*5 and level
    711  1ec6		       a6 e8		      ldx	startLevel	; 3
    712  1ec8		       20 da f6 	      jsr	SetupSaveKey	; 6+853
    713  1ecb		       90 2b		      bcc	NoSKfound	; 2/3
    714  1ecd
    715  1ecd							;    lda     #$64
    716  1ecd							;    sta     COLUBK
    717  1ecd
    718  1ecd							; write high score:
    719  1ecd		       a2 02		      ldx	#3-1	; 2 = 841
    720  1ecf				   .loopWrite
    721  1ecf		       b5 e4		      lda	highScoreSK,x	; 4
    722  1ed1		       20 3d f6 	      jsr	i2c_txbyte	;6+264      transmit to EEPROM
    723  1ed4		       ca		      dex		; 2
    724  1ed5		       10 f8		      bpl	.loopWrite	; 2/3= 837
    725  1ed7
    726  1ed7							; stop write:
    727  1ed7		       4c 81 f6 	      jmp	i2c_stopwrite	; 3+42= 45  terminate write and commit to memory
    728  1eda
    729  1eda
    730  1eda							;------------------------------------------------------------------------------
      0  1eda					      DEFINE_SUBROUTINE	SetupSaveKey	; = 853
      1  1eda		       00 03	   BANK_SetupSaveKey =	_CURRENT_BANK
      2  1eda					      SUBROUTINE
      3  1eda				   SetupSaveKey
    732  1eda
    733  1eda							; calculate slot;
    734  1eda							; a = levelX
    735  1eda							; x = level (0..4)
    736  1eda		       85 e9		      sta	offsetSK	; 3
    737  1edc		       8a		      txa		; 2
    738  1edd		       18		      clc		; 2
    739  1ede		       65 e9		      adc	offsetSK	; 3
    740  1ee0		       85 e9		      sta	offsetSK	; 3
    741  1ee2		       0a		      asl		; 2	     multiply by 3
    742  1ee3		       65 e9		      adc	offsetSK	; 3
    743  1ee5		       69 00		      adc	#<SAVEKEY_ADR	; 2
    744  1ee7		       aa		      tax		; 2 = 22
    745  1ee8							; detect SaveKey:
    746  1ee8		       20 31 f6 	      jsr	i2c_startwrite	;6+280
    747  1eeb		       d0 0a		      bne	.exitSK	; 2/3
    748  1eed
    749  1eed							; setup address:
    750  1eed		       b8		      clv		; 2
    751  1eee		       a9 2f		      lda	#>SAVEKEY_ADR	; 2	     upper byte of address
    752  1ef0		       20 3d f6 	      jsr	i2c_txbyte	;6+264
    753  1ef3		       8a		      txa		; 2	     x = lower byte offset
    754  1ef4		       4c 3d f6 	      jmp	i2c_txbyte	;3+264      returns C==1
    755  1ef7
    756  1ef7				   .exitSK
    757  1ef7		       18		      clc
    758  1ef8				   NoSKfound
    759  1ef8		       60		      rts
    760  1ef8					      ENDIF
    761  1ef9
    762  1f00		       00 00 00 00*	      align	256
    763  1f00
    764  1f00				   Manimate
    765  1f00				   AnimateSTAND
    766  1f00				   AnimateRIGHT
    767  1f00				   AnimateLEFT
    768  1f00				   AnimateUP
    769  1f00				   AnimateSTOPPED
    770  1f00		       7f		      .byte.b	127
    771  1f01		       a2		      .byte.b	<PLAYER_RIGHT0	;PLAYER_STAND
    772  1f02							;.byte 10
    773  1f02							;.byte < PLAYER_BLINK
    774  1f02							;.byte 127
    775  1f02							;.byte < PLAYER_STAND
    776  1f02							;.byte 0
    777  1f02							;.word AnimateTAP
    778  1f02
    779  1f02				   AnimateTAP
    780  1f02							;.byte 128, %0 		  ; reflect off, always tap with left foot
    781  1f02							;.byte 8
    782  1f02							;.byte < PLAYER_TAP0
    783  1f02							;.byte 8
    784  1f02							;.byte < PLAYER_TAP1
    785  1f02							;.byte 8
    786  1f02							;.byte < PLAYER_TAP0
    787  1f02							;.byte 8
    788  1f02							;.byte < PLAYER_TAP1
    789  1f02							;.byte 8
    790  1f02							;.byte < PLAYER_TAP0
    791  1f02							;.byte 8
    792  1f02							;.byte < PLAYER_TAP1
    793  1f02		       00		      .byte.b	0
    794  1f03		       00		      .byte.b	AnimateSTAND-Manimate	;word AnimateSTAND
    795  1f04
    796  1f04							;AnimateRIGHT
    797  1f04		       80 00		      .byte.b	128, %0	; reflect off
    798  1f06		       05		      .byte.b	5
    799  1f07		       a2		      .byte.b	< PLAYER_RIGHT0
    800  1f08		       05		      .byte.b	5
    801  1f09		       ba		      .byte.b	< PLAYER_RIGHT1
    802  1f0a		       00		      .byte.b	0
    803  1f0b		       00		      .byte.b	AnimateRIGHT-Manimate	;word AnimateRIGHT
    804  1f0c
    805  1f0c							;AnimateLEFT
    806  1f0c		       80 08		      .byte.b	128, %1000	; reflect ON
    807  1f0e		       05		      .byte.b	5
    808  1f0f		       a2		      .byte.b	< PLAYER_RIGHT0
    809  1f10		       05		      .byte.b	5
    810  1f11		       ba		      .byte.b	< PLAYER_RIGHT1
    811  1f12		       00		      .byte.b	0
    812  1f13		       00		      .byte.b	AnimateLEFT-Manimate	;word AnimateLEFT
    813  1f14
    814  1f14							;AnimateUP
    815  1f14							;    .byte 128, %0		   ; reflect off
    816  1f14							;    .byte 5
    817  1f14							;    .byte < PLAYER_TAP
    818  1f14							;    .byte 128, %1000
    819  1f14							;    .byte 5
    820  1f14							;    .byte < PLAYER_TAP
    821  1f14							;    .byte 0
    822  1f14							;    .word AnimateUP
    823  1f14
    824  1f14							;AnimateUP
    825  1f14		       05		      .byte.b	5
    826  1f15		       a2		      .byte.b	< PLAYER_RIGHT0
    827  1f16		       05		      .byte.b	5
    828  1f17		       ba		      .byte.b	< PLAYER_RIGHT1
    829  1f18		       00		      .byte.b	0
    830  1f19		       00		      .byte.b	AnimateUP-Manimate	;word AnimateUP
    831  1f1a
    832  1f1a				   AnimateBLANK
    833  1f1a		       7f		      .byte.b	127
    834  1f1b		       8a		      .byte.b	< PLAYER_BLANK
    835  1f1c		       00		      .byte.b	0
    836  1f1d		       1a		      .byte.b	AnimateBLANK-Manimate	;word AnimateBLANK
    837  1f1e
    838  1f1e				   AnimateEND
      0  1f1e					      CHECKPAGEX	Manimate, "AnimateEND @ BANK_GENERIC"
      9  1f1e					      LIST	ON
    840  1f1e
    841  1f1e
      0  1f1e					      CHECK_BANK_SIZE	"GENERIC_BANK_1 -- full 2K"
      1  1f1e		       07 1e	   .TEMP      =	* - BANK_START
 GENERIC_BANK_1 -- full 2K (2K) SIZE =  $71e , FREE= $e2
      2  1f1e					      ECHO	"GENERIC_BANK_1 -- full 2K", "(2K) SIZE = ", .TEMP, ", FREE=", ROM_BANK_SIZE - .TEMP
      3  1f1e				  -	      if	( .TEMP ) > ROM_BANK_SIZE
      4  1f1e				  -	      ECHO	"BANK OVERFLOW @ ", * - ORIGIN
      5  1f1e				  -	      ERR
      6  1f1e					      endif
------- FILE ./sokoboo.asm
------- FILE BANK_LEVELS1.asm LEVEL 2 PASS 4
      0  1f1e					      include	"BANK_LEVELS1.asm"
      1  1f1e							;    Sokoboo - a Sokoban implementation
      2  1f1e							;    using a generic tile-based display engine for the Atari 2600
      3  1f1e							;    Sokoban (倉庫番)™ is © Falcon Co., Ltd.
      4  1f1e							;
      5  1f1e							;    Code related to this Sokoban™ implementation was developed by Andrew Davie.
      6  1f1e							;
      7  1f1e							;    Code related to the generic tile-based display engine was developed by
      8  1f1e							;    Andrew Davie and Thomas Jentzsch during 2003-2011 and is
      9  1f1e							;    Copyright(C)2003-2019 Thomas Jentzsch and Andrew Davie - contacts details:
     10  1f1e							;    Andrew Davie (andrew@taswegian.com), Thomas Jentzsch (tjentzsch@yahoo.de).
     11  1f1e							;
     12  1f1e							;    Code related to music and sound effects uses the TIATracker music player
     13  1f1e							;    Copyright 2016 Andre "Kylearan" Wichmann - see source code in the "sound"
     14  1f1e							;    directory for Apache licensing details.
     15  1f1e							;
     16  1f1e							;    Some level data incorporated in this program were created by Lee J Haywood.
     17  1f1e							;    See the copyright notices in the License directory for a list of level
     18  1f1e							;    contributors.
     19  1f1e							;
     20  1f1e							;    Except where otherwise indicated, this software is released under the
     21  1f1e							;    following licensing arrangement...
     22  1f1e							;
     23  1f1e							;    This program is free software: you can redistribute it and/or modify
     24  1f1e							;    it under the terms of the GNU General Public License as published by
     25  1f1e							;    the Free Software Foundation, either version 3 of the License, or
     26  1f1e							;    (at your option) any later version.
     27  1f1e							;    see https://www.gnu.org/licenses/gpl-3.0.en.html
     28  1f1e
     29  1f1e							;    This program is distributed in the hope that it will be useful,
     30  1f1e							;    but WITHOUT ANY WARRANTY; without even the implied warranty of
     31  1f1e							;    MERCHANTABILITY or FITNESS FOR A PARTICULAR PURPOSE.  See the
     32  1f1e							;    GNU General Public License for more details.
     33  1f1e
      0  1f1e					      NEWBANK	LEVELS1
      1  27b5 ????				      SEG	LEVELS1
      2  2000					      ORG	ORIGIN
      3  2000					      RORG	$F000
      4  2000				   BANK_START SET	*
      5  2000				   LEVELS1    SET	ORIGIN / 2048
      6  2000				   ORIGIN     SET	ORIGIN + 2048
      7  2000				   _CURRENT_BANK SET	LEVELS1
     35  2000
     36  2000
     37  2000							;  DEFL _000_SELECT, "12#|#@3-5$.#|10-|10-|12#"
     38  2000
     39  2000							; "SOKWHOLE" collection...
     40  2000
     41  2000
      0  2000					      DEFL	_001_L, "3#|#@#|#$#|#.#|3#"
      0  2000					      START_LEVEL	_001_L
      1  2000				   LEVEL_START SET	*
      2  2000		       00 04	   BANK_LEVEL__001_L =	_CURRENT_BANK
      3  2000				   LEVEL__001_L SUBROUTINE
      4  2000				   MAX_LEVEL_NUMBER SET	MAX_LEVEL_NUMBER + 1
      5  2000
      2  2000		       33 23 7c 23*	      .byte.b	"3#|#@#|#$#|#.#|3#",0
      0  2012					      END_LEVEL	_001_L
      1  2012		       00 12	   LEVEL_SIZE__001_L =	* - LEVEL_START
      2  2012					      IF	LEVEL_SIZE__001_L > MAX_LEVEL_SIZE
      3  2012				   MAX_LEVEL_SIZE SET	LEVEL_SIZE__001_L
      4  2012					      ENDIF
      0  2012					      DEFL	_001_R, "5#|#.$@#|5#"
      0  2012					      START_LEVEL	_001_R
      1  2012				   LEVEL_START SET	*
      2  2012		       00 04	   BANK_LEVEL__001_R =	_CURRENT_BANK
      3  2012				   LEVEL__001_R SUBROUTINE
      4  2012				   MAX_LEVEL_NUMBER SET	MAX_LEVEL_NUMBER + 1
      5  2012
      2  2012		       35 23 7c 23*	      .byte.b	"5#|#.$@#|5#",0
      0  201e					      END_LEVEL	_001_R
      1  201e		       00 0c	   LEVEL_SIZE__001_R =	* - LEVEL_START
      2  201e				  -	      IF	LEVEL_SIZE__001_R > MAX_LEVEL_SIZE
      3  201e				  -MAX_LEVEL_SIZE SET	LEVEL_SIZE__001_R
      4  201e					      ENDIF
      0  201e					      DEFL	_002_L, "3#2-|#.3#|#*$-#|#2-@#|5#"
      0  201e					      START_LEVEL	_002_L
      1  201e				   LEVEL_START SET	*
      2  201e		       00 04	   BANK_LEVEL__002_L =	_CURRENT_BANK
      3  201e				   LEVEL__002_L SUBROUTINE
      4  201e				   MAX_LEVEL_NUMBER SET	MAX_LEVEL_NUMBER + 1
      5  201e
      2  201e		       33 23 32 2d*	      .byte.b	"3#2-|#.3#|#*$-#|#2-@#|5#",0
      0  2037					      END_LEVEL	_002_L
      1  2037		       00 19	   LEVEL_SIZE__002_L =	* - LEVEL_START
      2  2037					      IF	LEVEL_SIZE__002_L > MAX_LEVEL_SIZE
      3  2037				   MAX_LEVEL_SIZE SET	LEVEL_SIZE__002_L
      4  2037					      ENDIF
      0  2037					      DEFL	_002_R, "2-5#-|3#3-2#|#.*-#@-#|2#$3#-#|-#5-#|-7#"
      0  2037					      START_LEVEL	_002_R
      1  2037				   LEVEL_START SET	*
      2  2037		       00 04	   BANK_LEVEL__002_R =	_CURRENT_BANK
      3  2037				   LEVEL__002_R SUBROUTINE
      4  2037				   MAX_LEVEL_NUMBER SET	MAX_LEVEL_NUMBER + 1
      5  2037
      2  2037		       32 2d 35 23*	      .byte.b	"2-5#-|3#3-2#|#.*-#@-#|2#$3#-#|-#5-#|-7#",0
      0  205f					      END_LEVEL	_002_R
      1  205f		       00 28	   LEVEL_SIZE__002_R =	* - LEVEL_START
      2  205f					      IF	LEVEL_SIZE__002_R > MAX_LEVEL_SIZE
      3  205f				   MAX_LEVEL_SIZE SET	LEVEL_SIZE__002_R
      4  205f					      ENDIF
      0  205f					      DEFL	_003_L, "4-5#|2-3#3-#|3#.*-#-#|#@$.$#2-#|2#5-2#|-7#-"
      0  205f					      START_LEVEL	_003_L
      1  205f				   LEVEL_START SET	*
      2  205f		       00 04	   BANK_LEVEL__003_L =	_CURRENT_BANK
      3  205f				   LEVEL__003_L SUBROUTINE
      4  205f				   MAX_LEVEL_NUMBER SET	MAX_LEVEL_NUMBER + 1
      5  205f
      2  205f		       34 2d 35 23*	      .byte.b	"4-5#|2-3#3-#|3#.*-#-#|#@$.$#2-#|2#5-2#|-7#-",0
      0  208b					      END_LEVEL	_003_L
      1  208b		       00 2c	   LEVEL_SIZE__003_L =	* - LEVEL_START
      2  208b					      IF	LEVEL_SIZE__003_L > MAX_LEVEL_SIZE
      3  208b				   MAX_LEVEL_SIZE SET	LEVEL_SIZE__003_L
      4  208b					      ENDIF
      0  208b					      DEFL	_003_R, "9#|#7-#|#-*2.2#-#|2#$#$#2-#|-#-@3-2#|-7#-"
      0  208b					      START_LEVEL	_003_R
      1  208b				   LEVEL_START SET	*
      2  208b		       00 04	   BANK_LEVEL__003_R =	_CURRENT_BANK
      3  208b				   LEVEL__003_R SUBROUTINE
      4  208b				   MAX_LEVEL_NUMBER SET	MAX_LEVEL_NUMBER + 1
      5  208b
      2  208b		       39 23 7c 23*	      .byte.b	"9#|#7-#|#-*2.2#-#|2#$#$#2-#|-#-@3-2#|-7#-",0
      0  20b5					      END_LEVEL	_003_R
      1  20b5		       00 2a	   LEVEL_SIZE__003_R =	* - LEVEL_START
      2  20b5				  -	      IF	LEVEL_SIZE__003_R > MAX_LEVEL_SIZE
      3  20b5				  -MAX_LEVEL_SIZE SET	LEVEL_SIZE__003_R
      4  20b5					      ENDIF
      0  20b5					      DEFL	_004_L, "5#-|#3-2#|#-.*-#|#2-$@#|#2-3#|4#2-"
      0  20b5					      START_LEVEL	_004_L
      1  20b5				   LEVEL_START SET	*
      2  20b5		       00 04	   BANK_LEVEL__004_L =	_CURRENT_BANK
      3  20b5				   LEVEL__004_L SUBROUTINE
      4  20b5				   MAX_LEVEL_NUMBER SET	MAX_LEVEL_NUMBER + 1
      5  20b5
      2  20b5		       35 23 2d 7c*	      .byte.b	"5#-|#3-2#|#-.*-#|#2-$@#|#2-3#|4#2-",0
      0  20d8					      END_LEVEL	_004_L
      1  20d8		       00 23	   LEVEL_SIZE__004_L =	* - LEVEL_START
      2  20d8				  -	      IF	LEVEL_SIZE__004_L > MAX_LEVEL_SIZE
      3  20d8				  -MAX_LEVEL_SIZE SET	LEVEL_SIZE__004_L
      4  20d8					      ENDIF
      0  20d8					      DEFL	_004_R, "-6#|-#4-#|2#-$*$#|#@$3.#|7#"
      0  20d8					      START_LEVEL	_004_R
      1  20d8				   LEVEL_START SET	*
      2  20d8		       00 04	   BANK_LEVEL__004_R =	_CURRENT_BANK
      3  20d8				   LEVEL__004_R SUBROUTINE
      4  20d8				   MAX_LEVEL_NUMBER SET	MAX_LEVEL_NUMBER + 1
      5  20d8
      2  20d8		       2d 36 23 7c*	      .byte.b	"-6#|-#4-#|2#-$*$#|#@$3.#|7#",0
      0  20f4					      END_LEVEL	_004_R
      1  20f4		       00 1c	   LEVEL_SIZE__004_R =	* - LEVEL_START
      2  20f4				  -	      IF	LEVEL_SIZE__004_R > MAX_LEVEL_SIZE
      3  20f4				  -MAX_LEVEL_SIZE SET	LEVEL_SIZE__004_R
      4  20f4					      ENDIF
      0  20f4					      DEFL	_005_L, "3-5#|3-#.$-#|3-#.$-#|4#.#-#|#@$-*2-#|2#3-3#|-5#2-"
      0  20f4					      START_LEVEL	_005_L
      1  20f4				   LEVEL_START SET	*
      2  20f4		       00 04	   BANK_LEVEL__005_L =	_CURRENT_BANK
      3  20f4				   LEVEL__005_L SUBROUTINE
      4  20f4				   MAX_LEVEL_NUMBER SET	MAX_LEVEL_NUMBER + 1
      5  20f4
      2  20f4		       33 2d 35 23*	      .byte.b	"3-5#|3-#.$-#|3-#.$-#|4#.#-#|#@$-*2-#|2#3-3#|-5#2-",0
      0  2126					      END_LEVEL	_005_L
      1  2126		       00 32	   LEVEL_SIZE__005_L =	* - LEVEL_START
      2  2126					      IF	LEVEL_SIZE__005_L > MAX_LEVEL_SIZE
      3  2126				   MAX_LEVEL_SIZE SET	LEVEL_SIZE__005_L
      4  2126					      ENDIF
      0  2126					      DEFL	_005_R, "6#2-|#2-@-2#-|#-2#$-2#|#-2#.$-#|#-$3.-#|2#2-#$2#|-2#3-#-|2-5#-"
      0  2126					      START_LEVEL	_005_R
      1  2126				   LEVEL_START SET	*
      2  2126		       00 04	   BANK_LEVEL__005_R =	_CURRENT_BANK
      3  2126				   LEVEL__005_R SUBROUTINE
      4  2126				   MAX_LEVEL_NUMBER SET	MAX_LEVEL_NUMBER + 1
      5  2126
      2  2126		       36 23 32 2d*	      .byte.b	"6#2-|#2-@-2#-|#-2#$-2#|#-2#.$-#|#-$3.-#|2#2-#$2#|-2#3-#-|2-5#-",0
      0  2165					      END_LEVEL	_005_R
      1  2165		       00 3f	   LEVEL_SIZE__005_R =	* - LEVEL_START
      2  2165					      IF	LEVEL_SIZE__005_R > MAX_LEVEL_SIZE
      3  2165				   MAX_LEVEL_SIZE SET	LEVEL_SIZE__005_R
      4  2165					      ENDIF
      0  2165					      DEFL	_006_L, "5#3-|#3-3#-|#-#-$.#-|#-#-$.#-|#-#-.*2#|#2-#-$@#|#4-3#|6#2-"
      0  2165					      START_LEVEL	_006_L
      1  2165				   LEVEL_START SET	*
      2  2165		       00 04	   BANK_LEVEL__006_L =	_CURRENT_BANK
      3  2165				   LEVEL__006_L SUBROUTINE
      4  2165				   MAX_LEVEL_NUMBER SET	MAX_LEVEL_NUMBER + 1
      5  2165
      2  2165		       35 23 33 2d*	      .byte.b	"5#3-|#3-3#-|#-#-$.#-|#-#-$.#-|#-#-.*2#|#2-#-$@#|#4-3#|6#2-",0
      0  21a0					      END_LEVEL	_006_L
      1  21a0		       00 3b	   LEVEL_SIZE__006_L =	* - LEVEL_START
      2  21a0				  -	      IF	LEVEL_SIZE__006_L > MAX_LEVEL_SIZE
      3  21a0				  -MAX_LEVEL_SIZE SET	LEVEL_SIZE__006_L
      4  21a0					      ENDIF
      0  21a0					      DEFL	_006_R, "3#4-|#@5#|#$4-#|#2.$#-#|2#*.$-#|-#-.-2#|-2#$-#-|2-#2-#-|2-4#-"
      0  21a0					      START_LEVEL	_006_R
      1  21a0				   LEVEL_START SET	*
      2  21a0		       00 04	   BANK_LEVEL__006_R =	_CURRENT_BANK
      3  21a0				   LEVEL__006_R SUBROUTINE
      4  21a0				   MAX_LEVEL_NUMBER SET	MAX_LEVEL_NUMBER + 1
      5  21a0
      2  21a0		       33 23 34 2d*	      .byte.b	"3#4-|#@5#|#$4-#|#2.$#-#|2#*.$-#|-#-.-2#|-2#$-#-|2-#2-#-|2-4#-",0
      0  21de					      END_LEVEL	_006_R
      1  21de		       00 3e	   LEVEL_SIZE__006_R =	* - LEVEL_START
      2  21de				  -	      IF	LEVEL_SIZE__006_R > MAX_LEVEL_SIZE
      3  21de				  -MAX_LEVEL_SIZE SET	LEVEL_SIZE__006_R
      4  21de					      ENDIF
      0  21de					      DEFL	_007_L, "6#-|#4-#-|#@-*-#-|#-*.3#|2#-$2-#|-2#3-#|2-5#"
      0  21de					      START_LEVEL	_007_L
      1  21de				   LEVEL_START SET	*
      2  21de		       00 04	   BANK_LEVEL__007_L =	_CURRENT_BANK
      3  21de				   LEVEL__007_L SUBROUTINE
      4  21de				   MAX_LEVEL_NUMBER SET	MAX_LEVEL_NUMBER + 1
      5  21de
      2  21de		       36 23 2d 7c*	      .byte.b	"6#-|#4-#-|#@-*-#-|#-*.3#|2#-$2-#|-2#3-#|2-5#",0
      0  220b					      END_LEVEL	_007_L
      1  220b		       00 2d	   LEVEL_SIZE__007_L =	* - LEVEL_START
      2  220b				  -	      IF	LEVEL_SIZE__007_L > MAX_LEVEL_SIZE
      3  220b				  -MAX_LEVEL_SIZE SET	LEVEL_SIZE__007_L
      4  220b					      ENDIF
      0  220b					      DEFL	_007_R, "4#4-|#2-2#3-|#-$.2#2-|#2-*.3#|#2-2*$-#|3#3-@#|2-6#"
      0  220b					      START_LEVEL	_007_R
      1  220b				   LEVEL_START SET	*
      2  220b		       00 04	   BANK_LEVEL__007_R =	_CURRENT_BANK
      3  220b				   LEVEL__007_R SUBROUTINE
      4  220b				   MAX_LEVEL_NUMBER SET	MAX_LEVEL_NUMBER + 1
      5  220b
      2  220b		       34 23 34 2d*	      .byte.b	"4#4-|#2-2#3-|#-$.2#2-|#2-*.3#|#2-2*$-#|3#3-@#|2-6#",0
      0  223e					      END_LEVEL	_007_R
      1  223e		       00 33	   LEVEL_SIZE__007_R =	* - LEVEL_START
      2  223e				  -	      IF	LEVEL_SIZE__007_R > MAX_LEVEL_SIZE
      3  223e				  -MAX_LEVEL_SIZE SET	LEVEL_SIZE__007_R
      4  223e					      ENDIF
      0  223e					      DEFL	_008_L, "2-5#|2-#3-#|-2#.*-#|2#@$.2#|#-$2-#-|#-2#-#-|#4-#-|6#-"
      0  223e					      START_LEVEL	_008_L
      1  223e				   LEVEL_START SET	*
      2  223e		       00 04	   BANK_LEVEL__008_L =	_CURRENT_BANK
      3  223e				   LEVEL__008_L SUBROUTINE
      4  223e				   MAX_LEVEL_NUMBER SET	MAX_LEVEL_NUMBER + 1
      5  223e
      2  223e		       32 2d 35 23*	      .byte.b	"2-5#|2-#3-#|-2#.*-#|2#@$.2#|#-$2-#-|#-2#-#-|#4-#-|6#-",0
      0  2274					      END_LEVEL	_008_L
      1  2274		       00 36	   LEVEL_SIZE__008_L =	* - LEVEL_START
      2  2274				  -	      IF	LEVEL_SIZE__008_L > MAX_LEVEL_SIZE
      3  2274				  -MAX_LEVEL_SIZE SET	LEVEL_SIZE__008_L
      4  2274					      ENDIF
      0  2274					      DEFL	_008_R, "-5#3-|2#3-2#2-|#-$-*-2#-|#2-*.$-2#|3#2.-$@#|2-7#"
      0  2274					      START_LEVEL	_008_R
      1  2274				   LEVEL_START SET	*
      2  2274		       00 04	   BANK_LEVEL__008_R =	_CURRENT_BANK
      3  2274				   LEVEL__008_R SUBROUTINE
      4  2274				   MAX_LEVEL_NUMBER SET	MAX_LEVEL_NUMBER + 1
      5  2274
      2  2274		       2d 35 23 33*	      .byte.b	"-5#3-|2#3-2#2-|#-$-*-2#-|#2-*.$-2#|3#2.-$@#|2-7#",0
      0  22a5					      END_LEVEL	_008_R
      1  22a5		       00 31	   LEVEL_SIZE__008_R =	* - LEVEL_START
      2  22a5				  -	      IF	LEVEL_SIZE__008_R > MAX_LEVEL_SIZE
      3  22a5				  -MAX_LEVEL_SIZE SET	LEVEL_SIZE__008_R
      4  22a5					      ENDIF
      0  22a5					      DEFL	_009_L, "-5#-|2#-$.2#|#@$-.-#|2#-$.$#|-#-$2.#|-2#-$.#|2-5#"
      0  22a5					      START_LEVEL	_009_L
      1  22a5				   LEVEL_START SET	*
      2  22a5		       00 04	   BANK_LEVEL__009_L =	_CURRENT_BANK
      3  22a5				   LEVEL__009_L SUBROUTINE
      4  22a5				   MAX_LEVEL_NUMBER SET	MAX_LEVEL_NUMBER + 1
      5  22a5
      2  22a5		       2d 35 23 2d*	      .byte.b	"-5#-|2#-$.2#|#@$-.-#|2#-$.$#|-#-$2.#|-2#-$.#|2-5#",0
      0  22d7					      END_LEVEL	_009_L
      1  22d7		       00 32	   LEVEL_SIZE__009_L =	* - LEVEL_START
      2  22d7				  -	      IF	LEVEL_SIZE__009_L > MAX_LEVEL_SIZE
      3  22d7				  -MAX_LEVEL_SIZE SET	LEVEL_SIZE__009_L
      4  22d7					      ENDIF
      0  22d7					      DEFL	_009_R, "-3#3-|2#@4#|#-$3-#|#2-$2*#|2#2-*.#|-2#2-.#|2-5#"
      0  22d7					      START_LEVEL	_009_R
      1  22d7				   LEVEL_START SET	*
      2  22d7		       00 04	   BANK_LEVEL__009_R =	_CURRENT_BANK
      3  22d7				   LEVEL__009_R SUBROUTINE
      4  22d7				   MAX_LEVEL_NUMBER SET	MAX_LEVEL_NUMBER + 1
      5  22d7
      2  22d7		       2d 33 23 33*	      .byte.b	"-3#3-|2#@4#|#-$3-#|#2-$2*#|2#2-*.#|-2#2-.#|2-5#",0
      0  2307					      END_LEVEL	_009_R
      1  2307		       00 30	   LEVEL_SIZE__009_R =	* - LEVEL_START
      2  2307				  -	      IF	LEVEL_SIZE__009_R > MAX_LEVEL_SIZE
      3  2307				  -MAX_LEVEL_SIZE SET	LEVEL_SIZE__009_R
      4  2307					      ENDIF
      0  2307					      DEFL	_010_L, "2-3#-|2-#@#-|3#$#-|#2-.2#|#-$2.#|#-$.$#|#-$.-#|#-$.2#|5#-"
      0  2307					      START_LEVEL	_010_L
      1  2307				   LEVEL_START SET	*
      2  2307		       00 04	   BANK_LEVEL__010_L =	_CURRENT_BANK
      3  2307				   LEVEL__010_L SUBROUTINE
      4  2307				   MAX_LEVEL_NUMBER SET	MAX_LEVEL_NUMBER + 1
      5  2307
      2  2307		       32 2d 33 23*	      .byte.b	"2-3#-|2-#@#-|3#$#-|#2-.2#|#-$2.#|#-$.$#|#-$.-#|#-$.2#|5#-",0
      0  2341					      END_LEVEL	_010_L
      1  2341		       00 3a	   LEVEL_SIZE__010_L =	* - LEVEL_START
      2  2341				  -	      IF	LEVEL_SIZE__010_L > MAX_LEVEL_SIZE
      3  2341				  -MAX_LEVEL_SIZE SET	LEVEL_SIZE__010_L
      4  2341					      ENDIF
      0  2341					      DEFL	_010_R, "4#2-|#2-#2-|#-$3#|#-$2.#|#2-*-#|#-$*-#|2#-+2#|-4#-"
      0  2341					      START_LEVEL	_010_R
      1  2341				   LEVEL_START SET	*
      2  2341		       00 04	   BANK_LEVEL__010_R =	_CURRENT_BANK
      3  2341				   LEVEL__010_R SUBROUTINE
      4  2341				   MAX_LEVEL_NUMBER SET	MAX_LEVEL_NUMBER + 1
      5  2341
      2  2341		       34 23 32 2d*	      .byte.b	"4#2-|#2-#2-|#-$3#|#-$2.#|#2-*-#|#-$*-#|2#-+2#|-4#-",0
      0  2374					      END_LEVEL	_010_R
      1  2374		       00 33	   LEVEL_SIZE__010_R =	* - LEVEL_START
      2  2374				  -	      IF	LEVEL_SIZE__010_R > MAX_LEVEL_SIZE
      3  2374				  -MAX_LEVEL_SIZE SET	LEVEL_SIZE__010_R
      4  2374					      ENDIF
      0  2374					      DEFL	_011_L, "-4#2-|-#2.3#|2#$*2.#|#@$-$-#|2#-$2-#|-2#2-2#|2-4#-"
      0  2374					      START_LEVEL	_011_L
      1  2374				   LEVEL_START SET	*
      2  2374		       00 04	   BANK_LEVEL__011_L =	_CURRENT_BANK
      3  2374				   LEVEL__011_L SUBROUTINE
      4  2374				   MAX_LEVEL_NUMBER SET	MAX_LEVEL_NUMBER + 1
      5  2374
      2  2374		       2d 34 23 32*	      .byte.b	"-4#2-|-#2.3#|2#$*2.#|#@$-$-#|2#-$2-#|-2#2-2#|2-4#-",0
      0  23a7					      END_LEVEL	_011_L
      1  23a7		       00 33	   LEVEL_SIZE__011_L =	* - LEVEL_START
      2  23a7				  -	      IF	LEVEL_SIZE__011_L > MAX_LEVEL_SIZE
      3  23a7				  -MAX_LEVEL_SIZE SET	LEVEL_SIZE__011_L
      4  23a7					      ENDIF
      0  23a7					      DEFL	_011_R, "2-3#-|-2#@#-|2#-$#-|#-$-2#|#-.*.#|#-*2.#|#-$-$#|2#3-#|-5#"
      0  23a7					      START_LEVEL	_011_R
      1  23a7				   LEVEL_START SET	*
      2  23a7		       00 04	   BANK_LEVEL__011_R =	_CURRENT_BANK
      3  23a7				   LEVEL__011_R SUBROUTINE
      4  23a7				   MAX_LEVEL_NUMBER SET	MAX_LEVEL_NUMBER + 1
      5  23a7
      2  23a7		       32 2d 33 23*	      .byte.b	"2-3#-|-2#@#-|2#-$#-|#-$-2#|#-.*.#|#-*2.#|#-$-$#|2#3-#|-5#",0
      0  23e1					      END_LEVEL	_011_R
      1  23e1		       00 3a	   LEVEL_SIZE__011_R =	* - LEVEL_START
      2  23e1				  -	      IF	LEVEL_SIZE__011_R > MAX_LEVEL_SIZE
      3  23e1				  -MAX_LEVEL_SIZE SET	LEVEL_SIZE__011_R
      4  23e1					      ENDIF
      0  23e1					      DEFL	_012_L, "7#3-|#5-2#2-|#-3$2.#2-|2#2-.*$3#|-3#2.-$@#|3-7#"
      0  23e1					      START_LEVEL	_012_L
      1  23e1				   LEVEL_START SET	*
      2  23e1		       00 04	   BANK_LEVEL__012_L =	_CURRENT_BANK
      3  23e1				   LEVEL__012_L SUBROUTINE
      4  23e1				   MAX_LEVEL_NUMBER SET	MAX_LEVEL_NUMBER + 1
      5  23e1
      2  23e1		       37 23 33 2d*	      .byte.b	"7#3-|#5-2#2-|#-3$2.#2-|2#2-.*$3#|-3#2.-$@#|3-7#",0
      0  2411					      END_LEVEL	_012_L
      1  2411		       00 30	   LEVEL_SIZE__012_L =	* - LEVEL_START
      2  2411				  -	      IF	LEVEL_SIZE__012_L > MAX_LEVEL_SIZE
      3  2411				  -MAX_LEVEL_SIZE SET	LEVEL_SIZE__012_L
      4  2411					      ENDIF
      0  2411					      DEFL	_012_R, "-6#2-|2#2-.-2#-|#@$-*$-2#|2#-$.$2-#|-3#.*2-#|3-#.2-2#|3-5#-"
      0  2411					      START_LEVEL	_012_R
      1  2411				   LEVEL_START SET	*
      2  2411		       00 04	   BANK_LEVEL__012_R =	_CURRENT_BANK
      3  2411				   LEVEL__012_R SUBROUTINE
      4  2411				   MAX_LEVEL_NUMBER SET	MAX_LEVEL_NUMBER + 1
      5  2411
      2  2411		       2d 36 23 32*	      .byte.b	"-6#2-|2#2-.-2#-|#@$-*$-2#|2#-$.$2-#|-3#.*2-#|3-#.2-2#|3-5#-",0
      0  244d					      END_LEVEL	_012_R
      1  244d		       00 3c	   LEVEL_SIZE__012_R =	* - LEVEL_START
      2  244d				  -	      IF	LEVEL_SIZE__012_R > MAX_LEVEL_SIZE
      3  244d				  -MAX_LEVEL_SIZE SET	LEVEL_SIZE__012_R
      4  244d					      ENDIF
      0  244d					      DEFL	_013_L, "2-5#-|2-#3-2#|2-#-.2-#|3#2*2.#|#@$2-$-#|3#-$2-#|2-2#2-2#|3-4#-"
      0  244d					      START_LEVEL	_013_L
      1  244d				   LEVEL_START SET	*
      2  244d		       00 04	   BANK_LEVEL__013_L =	_CURRENT_BANK
      3  244d				   LEVEL__013_L SUBROUTINE
      4  244d				   MAX_LEVEL_NUMBER SET	MAX_LEVEL_NUMBER + 1
      5  244d
      2  244d		       32 2d 35 23*	      .byte.b	"2-5#-|2-#3-2#|2-#-.2-#|3#2*2.#|#@$2-$-#|3#-$2-#|2-2#2-2#|3-4#-",0
      0  248c					      END_LEVEL	_013_L
      1  248c		       00 3f	   LEVEL_SIZE__013_L =	* - LEVEL_START
      2  248c				  -	      IF	LEVEL_SIZE__013_L > MAX_LEVEL_SIZE
      3  248c				  -MAX_LEVEL_SIZE SET	LEVEL_SIZE__013_L
      4  248c					      ENDIF
      0  248c					      DEFL	_013_R, "-5#2-|2#3-2#-|#-$3-2#|#-.2*.-#|#3-$*-#|5#@2#|4-3#-"
      0  248c					      START_LEVEL	_013_R
      1  248c				   LEVEL_START SET	*
      2  248c		       00 04	   BANK_LEVEL__013_R =	_CURRENT_BANK
      3  248c				   LEVEL__013_R SUBROUTINE
      4  248c				   MAX_LEVEL_NUMBER SET	MAX_LEVEL_NUMBER + 1
      5  248c
      2  248c		       2d 35 23 32*	      .byte.b	"-5#2-|2#3-2#-|#-$3-2#|#-.2*.-#|#3-$*-#|5#@2#|4-3#-",0
      0  24bf					      END_LEVEL	_013_R
      1  24bf		       00 33	   LEVEL_SIZE__013_R =	* - LEVEL_START
      2  24bf				  -	      IF	LEVEL_SIZE__013_R > MAX_LEVEL_SIZE
      3  24bf				  -MAX_LEVEL_SIZE SET	LEVEL_SIZE__013_R
      4  24bf					      ENDIF
      0  24bf					      DEFL	_014_L, "6#4-|#@3-2#3-|#-2#$-4#|#-#-$-*2-#|#-$-2.*2-#|5#2.$-#|4-2#.$-#|5-5#"
      0  24bf					      START_LEVEL	_014_L
      1  24bf				   LEVEL_START SET	*
      2  24bf		       00 04	   BANK_LEVEL__014_L =	_CURRENT_BANK
      3  24bf				   LEVEL__014_L SUBROUTINE
      4  24bf				   MAX_LEVEL_NUMBER SET	MAX_LEVEL_NUMBER + 1
      5  24bf
      2  24bf		       36 23 34 2d*	      .byte.b	"6#4-|#@3-2#3-|#-2#$-4#|#-#-$-*2-#|#-$-2.*2-#|5#2.$-#|4-2#.$-#|5-5#",0
      0  2502					      END_LEVEL	_014_L
      1  2502		       00 43	   LEVEL_SIZE__014_L =	* - LEVEL_START
      2  2502					      IF	LEVEL_SIZE__014_L > MAX_LEVEL_SIZE
      3  2502				   MAX_LEVEL_SIZE SET	LEVEL_SIZE__014_L
      4  2502					      ENDIF
      0  2502					      DEFL	_014_R, "6#3-|#4-4#|#2-#2-$@#|#-$.*-3#|2#-.*-#2-|-2#.$-#2-|2-#.$-#2-|2-5#2-"
      0  2502					      START_LEVEL	_014_R
      1  2502				   LEVEL_START SET	*
      2  2502		       00 04	   BANK_LEVEL__014_R =	_CURRENT_BANK
      3  2502				   LEVEL__014_R SUBROUTINE
      4  2502				   MAX_LEVEL_NUMBER SET	MAX_LEVEL_NUMBER + 1
      5  2502
      2  2502		       36 23 33 2d*	      .byte.b	"6#3-|#4-4#|#2-#2-$@#|#-$.*-3#|2#-.*-#2-|-2#.$-#2-|2-#.$-#2-|2-5#2-",0
      0  2545					      END_LEVEL	_014_R
      1  2545		       00 43	   LEVEL_SIZE__014_R =	* - LEVEL_START
      2  2545				  -	      IF	LEVEL_SIZE__014_R > MAX_LEVEL_SIZE
      3  2545				  -MAX_LEVEL_SIZE SET	LEVEL_SIZE__014_R
      4  2545					      ENDIF
      0  2545					      DEFL	_015_L, "2-5#|3#3-#|#@#-$-#|#$*.-2#|#2.*$-#|2#-*2-#|-#4-#|-6#"
      0  2545					      START_LEVEL	_015_L
      1  2545				   LEVEL_START SET	*
      2  2545		       00 04	   BANK_LEVEL__015_L =	_CURRENT_BANK
      3  2545				   LEVEL__015_L SUBROUTINE
      4  2545				   MAX_LEVEL_NUMBER SET	MAX_LEVEL_NUMBER + 1
      5  2545
      2  2545		       32 2d 35 23*	      .byte.b	"2-5#|3#3-#|#@#-$-#|#$*.-2#|#2.*$-#|2#-*2-#|-#4-#|-6#",0
      0  257a					      END_LEVEL	_015_L
      1  257a		       00 35	   LEVEL_SIZE__015_L =	* - LEVEL_START
      2  257a				  -	      IF	LEVEL_SIZE__015_L > MAX_LEVEL_SIZE
      3  257a				  -MAX_LEVEL_SIZE SET	LEVEL_SIZE__015_L
      4  257a					      ENDIF
      0  257a					      DEFL	_015_R, "3-5#|2-2#3-#|2-#4-#|3#-$3#|#.*.*-#-|2#-*2-#-|-#2-$-#-|-3#@2#-|3-3#2-"
      0  257a					      START_LEVEL	_015_R
      1  257a				   LEVEL_START SET	*
      2  257a		       00 04	   BANK_LEVEL__015_R =	_CURRENT_BANK
      3  257a				   LEVEL__015_R SUBROUTINE
      4  257a				   MAX_LEVEL_NUMBER SET	MAX_LEVEL_NUMBER + 1
      5  257a
      2  257a		       33 2d 35 23*	      .byte.b	"3-5#|2-2#3-#|2-#4-#|3#-$3#|#.*.*-#-|2#-*2-#-|-#2-$-#-|-3#@2#-|3-3#2-",0
      0  25bf					      END_LEVEL	_015_R
      1  25bf		       00 45	   LEVEL_SIZE__015_R =	* - LEVEL_START
      2  25bf					      IF	LEVEL_SIZE__015_R > MAX_LEVEL_SIZE
      3  25bf				   MAX_LEVEL_SIZE SET	LEVEL_SIZE__015_R
      4  25bf					      ENDIF
      0  25bf					      DEFL	_016_L, "4-3#2-|5#.3#|#4.*2-#|#$#-*-$-#|#@$-2$-2#|2#4-2#-|-6#2-"
      0  25bf					      START_LEVEL	_016_L
      1  25bf				   LEVEL_START SET	*
      2  25bf		       00 04	   BANK_LEVEL__016_L =	_CURRENT_BANK
      3  25bf				   LEVEL__016_L SUBROUTINE
      4  25bf				   MAX_LEVEL_NUMBER SET	MAX_LEVEL_NUMBER + 1
      5  25bf
      2  25bf		       34 2d 33 23*	      .byte.b	"4-3#2-|5#.3#|#4.*2-#|#$#-*-$-#|#@$-2$-2#|2#4-2#-|-6#2-",0
      0  25f6					      END_LEVEL	_016_L
      1  25f6		       00 37	   LEVEL_SIZE__016_L =	* - LEVEL_START
      2  25f6				  -	      IF	LEVEL_SIZE__016_L > MAX_LEVEL_SIZE
      3  25f6				  -MAX_LEVEL_SIZE SET	LEVEL_SIZE__016_L
      4  25f6					      ENDIF
      0  25f6					      DEFL	_016_R, "5#-|#.2-#-|#.$-#-|#.*-2#|#*-$@#|#2-$-#|2#2-2#|-4#-"
      0  25f6					      START_LEVEL	_016_R
      1  25f6				   LEVEL_START SET	*
      2  25f6		       00 04	   BANK_LEVEL__016_R =	_CURRENT_BANK
      3  25f6				   LEVEL__016_R SUBROUTINE
      4  25f6				   MAX_LEVEL_NUMBER SET	MAX_LEVEL_NUMBER + 1
      5  25f6
      2  25f6		       35 23 2d 7c*	      .byte.b	"5#-|#.2-#-|#.$-#-|#.*-2#|#*-$@#|#2-$-#|2#2-2#|-4#-",0
      0  2629					      END_LEVEL	_016_R
      1  2629		       00 33	   LEVEL_SIZE__016_R =	* - LEVEL_START
      2  2629				  -	      IF	LEVEL_SIZE__016_R > MAX_LEVEL_SIZE
      3  2629				  -MAX_LEVEL_SIZE SET	LEVEL_SIZE__016_R
      4  2629					      ENDIF
      0  2629					      DEFL	_017_L, "5#4-|#3-2#3-|#$3-2#2-|#2.*$-#2-|2#2*.-3#|-#.$2-$@#|-#2-#-3#|-#4-#2-|-6#2-"
      0  2629					      START_LEVEL	_017_L
      1  2629				   LEVEL_START SET	*
      2  2629		       00 04	   BANK_LEVEL__017_L =	_CURRENT_BANK
      3  2629				   LEVEL__017_L SUBROUTINE
      4  2629				   MAX_LEVEL_NUMBER SET	MAX_LEVEL_NUMBER + 1
      5  2629
      2  2629		       35 23 34 2d*	      .byte.b	"5#4-|#3-2#3-|#$3-2#2-|#2.*$-#2-|2#2*.-3#|-#.$2-$@#|-#2-#-3#|-#4-#2-|-6#2-",0
      0  2673					      END_LEVEL	_017_L
      1  2673		       00 4a	   LEVEL_SIZE__017_L =	* - LEVEL_START
      2  2673					      IF	LEVEL_SIZE__017_L > MAX_LEVEL_SIZE
      3  2673				   MAX_LEVEL_SIZE SET	LEVEL_SIZE__017_L
      4  2673					      ENDIF
      0  2673					      DEFL	_017_R, "3-4#-|3-#2-#-|-3#2-#-|-#.*.-#-|3#2*.#-|#3-2$2#|#-#2-$@#|#3-4#|5#3-"
      0  2673					      START_LEVEL	_017_R
      1  2673				   LEVEL_START SET	*
      2  2673		       00 04	   BANK_LEVEL__017_R =	_CURRENT_BANK
      3  2673				   LEVEL__017_R SUBROUTINE
      4  2673				   MAX_LEVEL_NUMBER SET	MAX_LEVEL_NUMBER + 1
      5  2673
      2  2673		       33 2d 34 23*	      .byte.b	"3-4#-|3-#2-#-|-3#2-#-|-#.*.-#-|3#2*.#-|#3-2$2#|#-#2-$@#|#3-4#|5#3-",0
      0  26b6					      END_LEVEL	_017_R
      1  26b6		       00 43	   LEVEL_SIZE__017_R =	* - LEVEL_START
      2  26b6				  -	      IF	LEVEL_SIZE__017_R > MAX_LEVEL_SIZE
      3  26b6				  -MAX_LEVEL_SIZE SET	LEVEL_SIZE__017_R
      4  26b6					      ENDIF
      0  26b6					      DEFL	_018_L, "6#3-|#4-2#2-|#-$2.-3#|2#-3*2.#|#-$2-$*$#|#4-#@-#|9#"
      0  26b6					      START_LEVEL	_018_L
      1  26b6				   LEVEL_START SET	*
      2  26b6		       00 04	   BANK_LEVEL__018_L =	_CURRENT_BANK
      3  26b6				   LEVEL__018_L SUBROUTINE
      4  26b6				   MAX_LEVEL_NUMBER SET	MAX_LEVEL_NUMBER + 1
      5  26b6
      2  26b6		       36 23 33 2d*	      .byte.b	"6#3-|#4-2#2-|#-$2.-3#|2#-3*2.#|#-$2-$*$#|#4-#@-#|9#",0
      0  26ea					      END_LEVEL	_018_L
      1  26ea		       00 34	   LEVEL_SIZE__018_L =	* - LEVEL_START
      2  26ea				  -	      IF	LEVEL_SIZE__018_L > MAX_LEVEL_SIZE
      3  26ea				  -MAX_LEVEL_SIZE SET	LEVEL_SIZE__018_L
      4  26ea					      ENDIF
      0  26ea					      DEFL	_018_R, "-4#3-|-#2-2#2-|2#-*.2#-|#-$.*@2#|#2-$2*-#|#4-#-#|3#4-#|2-6#"
      0  26ea					      START_LEVEL	_018_R
      1  26ea				   LEVEL_START SET	*
      2  26ea		       00 04	   BANK_LEVEL__018_R =	_CURRENT_BANK
      3  26ea				   LEVEL__018_R SUBROUTINE
      4  26ea				   MAX_LEVEL_NUMBER SET	MAX_LEVEL_NUMBER + 1
      5  26ea
      2  26ea		       2d 34 23 33*	      .byte.b	"-4#3-|-#2-2#2-|2#-*.2#-|#-$.*@2#|#2-$2*-#|#4-#-#|3#4-#|2-6#",0
      0  2726					      END_LEVEL	_018_R
      1  2726		       00 3c	   LEVEL_SIZE__018_R =	* - LEVEL_START
      2  2726				  -	      IF	LEVEL_SIZE__018_R > MAX_LEVEL_SIZE
      3  2726				  -MAX_LEVEL_SIZE SET	LEVEL_SIZE__018_R
      4  2726					      ENDIF
      0  2726					      DEFL	_019_L, "4-5#-|2-3#-*.#-|2-#-$-2.#-|3#-2$*$2#|#@$2-2.2-#|6#3-#|5-5#"
      0  2726					      START_LEVEL	_019_L
      1  2726				   LEVEL_START SET	*
      2  2726		       00 04	   BANK_LEVEL__019_L =	_CURRENT_BANK
      3  2726				   LEVEL__019_L SUBROUTINE
      4  2726				   MAX_LEVEL_NUMBER SET	MAX_LEVEL_NUMBER + 1
      5  2726
      2  2726		       34 2d 35 23*	      .byte.b	"4-5#-|2-3#-*.#-|2-#-$-2.#-|3#-2$*$2#|#@$2-2.2-#|6#3-#|5-5#",0
      0  2761					      END_LEVEL	_019_L
      1  2761		       00 3b	   LEVEL_SIZE__019_L =	* - LEVEL_START
      2  2761				  -	      IF	LEVEL_SIZE__019_L > MAX_LEVEL_SIZE
      3  2761				  -MAX_LEVEL_SIZE SET	LEVEL_SIZE__019_L
      4  2761					      ENDIF
      0  2761					      DEFL	_019_R, "2-7#2-|2-#5-2#-|2-#-$*#$-#-|3#-$.*.*#-|#@$-3.$-2#|5#.$3-#|4-2#-2#-#|5-#4-#|5-6#"
      0  2761					      START_LEVEL	_019_R
      1  2761				   LEVEL_START SET	*
      2  2761		       00 04	   BANK_LEVEL__019_R =	_CURRENT_BANK
      3  2761				   LEVEL__019_R SUBROUTINE
      4  2761				   MAX_LEVEL_NUMBER SET	MAX_LEVEL_NUMBER + 1
      5  2761
      2  2761		       32 2d 37 23*	      .byte.b	"2-7#2-|2-#5-2#-|2-#-$*#$-#-|3#-$.*.*#-|#@$-3.$-2#|5#.$3-#|4-2#-2#-#|5-#4-#|5-6#",0
      0  27b1					      END_LEVEL	_019_R
      1  27b1		       00 50	   LEVEL_SIZE__019_R =	* - LEVEL_START
      2  27b1					      IF	LEVEL_SIZE__019_R > MAX_LEVEL_SIZE
      3  27b1				   MAX_LEVEL_SIZE SET	LEVEL_SIZE__019_R
      4  27b1					      ENDIF
     80  27b1
     81  27b1							;-----------------------------------------------------------
     82  27b1							; Stella 3E autodetect signature, can live anywhere
     83  27b1		       85 3e a9 00	      .byte.b	$85, $3E, $A9, $00
     84  27b5							;-----------------------------------------------------------
     85  27b5
      0  27b5					      CHECK_BANK_SIZE	"LEVELS1"
      1  27b5		       07 b5	   .TEMP      =	* - BANK_START
 LEVELS1 (2K) SIZE =  $7b5 , FREE= $4b
      2  27b5					      ECHO	"LEVELS1", "(2K) SIZE = ", .TEMP, ", FREE=", ROM_BANK_SIZE - .TEMP
      3  27b5				  -	      if	( .TEMP ) > ROM_BANK_SIZE
      4  27b5				  -	      ECHO	"BANK OVERFLOW @ ", * - ORIGIN
      5  27b5				  -	      ERR
      6  27b5					      endif
------- FILE ./sokoboo.asm
------- FILE BANK_LEVELS2.asm LEVEL 2 PASS 4
      0  27b5					      include	"BANK_LEVELS2.asm"
      1  27b5							;    Sokoboo - a Sokoban implementation
      2  27b5							;    using a generic tile-based display engine for the Atari 2600
      3  27b5							;    Sokoban (倉庫番)™ is © Falcon Co., Ltd.
      4  27b5							;
      5  27b5							;    Code related to this Sokoban™ implementation was developed by Andrew Davie.
      6  27b5							;
      7  27b5							;    Code related to the generic tile-based display engine was developed by
      8  27b5							;    Andrew Davie and Thomas Jentzsch during 2003-2011 and is
      9  27b5							;    Copyright(C)2003-2019 Thomas Jentzsch and Andrew Davie - contacts details:
     10  27b5							;    Andrew Davie (andrew@taswegian.com), Thomas Jentzsch (tjentzsch@yahoo.de).
     11  27b5							;
     12  27b5							;    Code related to music and sound effects uses the TIATracker music player
     13  27b5							;    Copyright 2016 Andre "Kylearan" Wichmann - see source code in the "sound"
     14  27b5							;    directory for Apache licensing details.
     15  27b5							;
     16  27b5							;    Some level data incorporated in this program were created by Lee J Haywood.
     17  27b5							;    See the copyright notices in the License directory for a list of level
     18  27b5							;    contributors.
     19  27b5							;
     20  27b5							;    Except where otherwise indicated, this software is released under the
     21  27b5							;    following licensing arrangement...
     22  27b5							;
     23  27b5							;    This program is free software: you can redistribute it and/or modify
     24  27b5							;    it under the terms of the GNU General Public License as published by
     25  27b5							;    the Free Software Foundation, either version 3 of the License, or
     26  27b5							;    (at your option) any later version.
     27  27b5							;    see https://www.gnu.org/licenses/gpl-3.0.en.html
     28  27b5
     29  27b5							;    This program is distributed in the hope that it will be useful,
     30  27b5							;    but WITHOUT ANY WARRANTY; without even the implied warranty of
     31  27b5							;    MERCHANTABILITY or FITNESS FOR A PARTICULAR PURPOSE.  See the
     32  27b5							;    GNU General Public License for more details.
     33  27b5
      0  27b5					      NEWBANK	LEVELS2
      1  2fbe ????				      SEG	LEVELS2
      2  2800					      ORG	ORIGIN
      3  2800					      RORG	$F000
      4  2800				   BANK_START SET	*
      5  2800				   LEVELS2    SET	ORIGIN / 2048
      6  2800				   ORIGIN     SET	ORIGIN + 2048
      7  2800				   _CURRENT_BANK SET	LEVELS2
     35  2800
      0  2800					      DEFL	_020_L, "-6#-|-#4-#-|-#-2$-#-|2#-.$3#|#@$.3-#|3#*.*$#|#4-2.#|#3-4#|5#3-"
      0  2800					      START_LEVEL	_020_L
      1  2800				   LEVEL_START SET	*
      2  2800		       00 05	   BANK_LEVEL__020_L =	_CURRENT_BANK
      3  2800				   LEVEL__020_L SUBROUTINE
      4  2800				   MAX_LEVEL_NUMBER SET	MAX_LEVEL_NUMBER + 1
      5  2800
      2  2800		       2d 36 23 2d*	      .byte.b	"-6#-|-#4-#-|-#-2$-#-|2#-.$3#|#@$.3-#|3#*.*$#|#4-2.#|#3-4#|5#3-",0
      0  283f					      END_LEVEL	_020_L
      1  283f		       00 3f	   LEVEL_SIZE__020_L =	* - LEVEL_START
      2  283f				  -	      IF	LEVEL_SIZE__020_L > MAX_LEVEL_SIZE
      3  283f				  -MAX_LEVEL_SIZE SET	LEVEL_SIZE__020_L
      4  283f					      ENDIF
      0  283f					      DEFL	_020_R, "5-4#|6#2-#|#3-#3-#|#-#$.*$-#|#2-3.-2#|#-2$*2-#-|2#@$.-2#-|-6#2-"
      0  283f					      START_LEVEL	_020_R
      1  283f				   LEVEL_START SET	*
      2  283f		       00 05	   BANK_LEVEL__020_R =	_CURRENT_BANK
      3  283f				   LEVEL__020_R SUBROUTINE
      4  283f				   MAX_LEVEL_NUMBER SET	MAX_LEVEL_NUMBER + 1
      5  283f
      2  283f		       35 2d 34 23*	      .byte.b	"5-4#|6#2-#|#3-#3-#|#-#$.*$-#|#2-3.-2#|#-2$*2-#-|2#@$.-2#-|-6#2-",0
      0  287f					      END_LEVEL	_020_R
      1  287f		       00 40	   LEVEL_SIZE__020_R =	* - LEVEL_START
      2  287f				  -	      IF	LEVEL_SIZE__020_R > MAX_LEVEL_SIZE
      3  287f				  -MAX_LEVEL_SIZE SET	LEVEL_SIZE__020_R
      4  287f					      ENDIF
      0  287f					      DEFL	_021_L, "4-4#3-|4-#2-#3-|5#-$2#2-|#@$3.*.#2-|2#-#-$2.3#|-#-#2$*-$-#|-#-$2-.3-#|-4#-*2-2#|4-6#-"
      0  287f					      START_LEVEL	_021_L
      1  287f				   LEVEL_START SET	*
      2  287f		       00 05	   BANK_LEVEL__021_L =	_CURRENT_BANK
      3  287f				   LEVEL__021_L SUBROUTINE
      4  287f				   MAX_LEVEL_NUMBER SET	MAX_LEVEL_NUMBER + 1
      5  287f
      2  287f		       34 2d 34 23*	      .byte.b	"4-4#3-|4-#2-#3-|5#-$2#2-|#@$3.*.#2-|2#-#-$2.3#|-#-#2$*-$-#|-#-$2-.3-#|-4#-*2-2#|4-6#-",0
      0  28d5					      END_LEVEL	_021_L
      1  28d5		       00 56	   LEVEL_SIZE__021_L =	* - LEVEL_START
      2  28d5					      IF	LEVEL_SIZE__021_L > MAX_LEVEL_SIZE
      3  28d5				   MAX_LEVEL_SIZE SET	LEVEL_SIZE__021_L
      4  28d5					      ENDIF
      0  28d5					      DEFL	_021_R, "-4#3-|2#@-4#|#-3$2-#|#.*.$2-#|#-.*2-2#|2#.3-#-|-6#-"
      0  28d5					      START_LEVEL	_021_R
      1  28d5				   LEVEL_START SET	*
      2  28d5		       00 05	   BANK_LEVEL__021_R =	_CURRENT_BANK
      3  28d5				   LEVEL__021_R SUBROUTINE
      4  28d5				   MAX_LEVEL_NUMBER SET	MAX_LEVEL_NUMBER + 1
      5  28d5
      2  28d5		       2d 34 23 33*	      .byte.b	"-4#3-|2#@-4#|#-3$2-#|#.*.$2-#|#-.*2-2#|2#.3-#-|-6#-",0
      0  2909					      END_LEVEL	_021_R
      1  2909		       00 34	   LEVEL_SIZE__021_R =	* - LEVEL_START
      2  2909				  -	      IF	LEVEL_SIZE__021_R > MAX_LEVEL_SIZE
      3  2909				  -MAX_LEVEL_SIZE SET	LEVEL_SIZE__021_R
      4  2909					      ENDIF
      0  2909					      DEFL	_022_L, "3-3#2-|3-#@2#-|2-2#$-2#|3#2.*-#|#2-2$.*#|#-#$-.-#|#3-$.-#|2#4-2#|-6#-"
      0  2909					      START_LEVEL	_022_L
      1  2909				   LEVEL_START SET	*
      2  2909		       00 05	   BANK_LEVEL__022_L =	_CURRENT_BANK
      3  2909				   LEVEL__022_L SUBROUTINE
      4  2909				   MAX_LEVEL_NUMBER SET	MAX_LEVEL_NUMBER + 1
      5  2909
      2  2909		       33 2d 33 23*	      .byte.b	"3-3#2-|3-#@2#-|2-2#$-2#|3#2.*-#|#2-2$.*#|#-#$-.-#|#3-$.-#|2#4-2#|-6#-",0
      0  294f					      END_LEVEL	_022_L
      1  294f		       00 46	   LEVEL_SIZE__022_L =	* - LEVEL_START
      2  294f				  -	      IF	LEVEL_SIZE__022_L > MAX_LEVEL_SIZE
      3  294f				  -MAX_LEVEL_SIZE SET	LEVEL_SIZE__022_L
      4  294f					      ENDIF
      0  294f					      DEFL	_022_R, "-3#4-|-#@2#3-|2#$-4#|#2-2$2-#|#-$.*$-#|#2-3.-#|4#.3#|3-3#2-"
      0  294f					      START_LEVEL	_022_R
      1  294f				   LEVEL_START SET	*
      2  294f		       00 05	   BANK_LEVEL__022_R =	_CURRENT_BANK
      3  294f				   LEVEL__022_R SUBROUTINE
      4  294f				   MAX_LEVEL_NUMBER SET	MAX_LEVEL_NUMBER + 1
      5  294f
      2  294f		       2d 33 23 34*	      .byte.b	"-3#4-|-#@2#3-|2#$-4#|#2-2$2-#|#-$.*$-#|#2-3.-#|4#.3#|3-3#2-",0
      0  298b					      END_LEVEL	_022_R
      1  298b		       00 3c	   LEVEL_SIZE__022_R =	* - LEVEL_START
      2  298b				  -	      IF	LEVEL_SIZE__022_R > MAX_LEVEL_SIZE
      3  298b				  -MAX_LEVEL_SIZE SET	LEVEL_SIZE__022_R
      4  298b					      ENDIF
      0  298b					      DEFL	_023_L, "6#3-|#4-2#2-|#-$-$-2#-|2#-$.$+2#|-#-2.*.-#|-2#$#-#-#|2-#5-#|2-7#"
      0  298b					      START_LEVEL	_023_L
      1  298b				   LEVEL_START SET	*
      2  298b		       00 05	   BANK_LEVEL__023_L =	_CURRENT_BANK
      3  298b				   LEVEL__023_L SUBROUTINE
      4  298b				   MAX_LEVEL_NUMBER SET	MAX_LEVEL_NUMBER + 1
      5  298b
      2  298b		       36 23 33 2d*	      .byte.b	"6#3-|#4-2#2-|#-$-$-2#-|2#-$.$+2#|-#-2.*.-#|-2#$#-#-#|2-#5-#|2-7#",0
      0  29cc					      END_LEVEL	_023_L
      1  29cc		       00 41	   LEVEL_SIZE__023_L =	* - LEVEL_START
      2  29cc				  -	      IF	LEVEL_SIZE__023_L > MAX_LEVEL_SIZE
      3  29cc				  -MAX_LEVEL_SIZE SET	LEVEL_SIZE__023_L
      4  29cc					      ENDIF
      0  29cc					      DEFL	_023_R, "7#2-|#5-#2-|#2-#2$#2-|#-$-$.3#|2#+2*.*.#|-2#3-3#|2-#2-2#2-|2-4#3-"
      0  29cc					      START_LEVEL	_023_R
      1  29cc				   LEVEL_START SET	*
      2  29cc		       00 05	   BANK_LEVEL__023_R =	_CURRENT_BANK
      3  29cc				   LEVEL__023_R SUBROUTINE
      4  29cc				   MAX_LEVEL_NUMBER SET	MAX_LEVEL_NUMBER + 1
      5  29cc
      2  29cc		       37 23 32 2d*	      .byte.b	"7#2-|#5-#2-|#2-#2$#2-|#-$-$.3#|2#+2*.*.#|-2#3-3#|2-#2-2#2-|2-4#3-",0
      0  2a0e					      END_LEVEL	_023_R
      1  2a0e		       00 42	   LEVEL_SIZE__023_R =	* - LEVEL_START
      2  2a0e				  -	      IF	LEVEL_SIZE__023_R > MAX_LEVEL_SIZE
      3  2a0e				  -MAX_LEVEL_SIZE SET	LEVEL_SIZE__023_R
      4  2a0e					      ENDIF
      0  2a0e					      DEFL	_024_L, "-9#|-#7-#|-#-#2-$#-#|-#-#.*.#-#|2#2-.*-#-#|#3-.2$2-#|#-$2#2-3#|2#@2#2-#2-|-7#2-"
      0  2a0e					      START_LEVEL	_024_L
      1  2a0e				   LEVEL_START SET	*
      2  2a0e		       00 05	   BANK_LEVEL__024_L =	_CURRENT_BANK
      3  2a0e				   LEVEL__024_L SUBROUTINE
      4  2a0e				   MAX_LEVEL_NUMBER SET	MAX_LEVEL_NUMBER + 1
      5  2a0e
      2  2a0e		       2d 39 23 7c*	      .byte.b	"-9#|-#7-#|-#-#2-$#-#|-#-#.*.#-#|2#2-.*-#-#|#3-.2$2-#|#-$2#2-3#|2#@2#2-#2-|-7#2-",0
      0  2a5e					      END_LEVEL	_024_L
      1  2a5e		       00 50	   LEVEL_SIZE__024_L =	* - LEVEL_START
      2  2a5e				  -	      IF	LEVEL_SIZE__024_L > MAX_LEVEL_SIZE
      3  2a5e				  -MAX_LEVEL_SIZE SET	LEVEL_SIZE__024_L
      4  2a5e					      ENDIF
      0  2a5e					      DEFL	_024_R, "-8#|2#6-#|#-$-*-#-#|#-3.*$-#|#2-*.*.2#|#2-#$-$-#|4#-$2-#|3-2#@3#|4-3#2-"
      0  2a5e					      START_LEVEL	_024_R
      1  2a5e				   LEVEL_START SET	*
      2  2a5e		       00 05	   BANK_LEVEL__024_R =	_CURRENT_BANK
      3  2a5e				   LEVEL__024_R SUBROUTINE
      4  2a5e				   MAX_LEVEL_NUMBER SET	MAX_LEVEL_NUMBER + 1
      5  2a5e
      2  2a5e		       2d 38 23 7c*	      .byte.b	"-8#|2#6-#|#-$-*-#-#|#-3.*$-#|#2-*.*.2#|#2-#$-$-#|4#-$2-#|3-2#@3#|4-3#2-",0
      0  2aa6					      END_LEVEL	_024_R
      1  2aa6		       00 48	   LEVEL_SIZE__024_R =	* - LEVEL_START
      2  2aa6				  -	      IF	LEVEL_SIZE__024_R > MAX_LEVEL_SIZE
      3  2aa6				  -MAX_LEVEL_SIZE SET	LEVEL_SIZE__024_R
      4  2aa6					      ENDIF
      0  2aa6					      DEFL	_025_L, "4-4#2-|5#@-2#-|#4-2$-2#|#-3#2-$-#|#-3.2*.-#|#-2$*$2.2#|2#6-#-|-8#-"
      0  2aa6					      START_LEVEL	_025_L
      1  2aa6				   LEVEL_START SET	*
      2  2aa6		       00 05	   BANK_LEVEL__025_L =	_CURRENT_BANK
      3  2aa6				   LEVEL__025_L SUBROUTINE
      4  2aa6				   MAX_LEVEL_NUMBER SET	MAX_LEVEL_NUMBER + 1
      5  2aa6
      2  2aa6		       34 2d 34 23*	      .byte.b	"4-4#2-|5#@-2#-|#4-2$-2#|#-3#2-$-#|#-3.2*.-#|#-2$*$2.2#|2#6-#-|-8#-",0
      0  2ae9					      END_LEVEL	_025_L
      1  2ae9		       00 43	   LEVEL_SIZE__025_L =	* - LEVEL_START
      2  2ae9				  -	      IF	LEVEL_SIZE__025_L > MAX_LEVEL_SIZE
      3  2ae9				  -MAX_LEVEL_SIZE SET	LEVEL_SIZE__025_L
      4  2ae9					      ENDIF
      0  2ae9					      DEFL	_025_R, "-6#-|2#.-$-#-|#.*$*-2#|#.*2.$-#|2#3-#@#|-#-$-$-#|-3#2-2#|3-4#-"
      0  2ae9					      START_LEVEL	_025_R
      1  2ae9				   LEVEL_START SET	*
      2  2ae9		       00 05	   BANK_LEVEL__025_R =	_CURRENT_BANK
      3  2ae9				   LEVEL__025_R SUBROUTINE
      4  2ae9				   MAX_LEVEL_NUMBER SET	MAX_LEVEL_NUMBER + 1
      5  2ae9
      2  2ae9		       2d 36 23 2d*	      .byte.b	"-6#-|2#.-$-#-|#.*$*-2#|#.*2.$-#|2#3-#@#|-#-$-$-#|-3#2-2#|3-4#-",0
      0  2b28					      END_LEVEL	_025_R
      1  2b28		       00 3f	   LEVEL_SIZE__025_R =	* - LEVEL_START
      2  2b28				  -	      IF	LEVEL_SIZE__025_R > MAX_LEVEL_SIZE
      3  2b28				  -MAX_LEVEL_SIZE SET	LEVEL_SIZE__025_R
      4  2b28					      ENDIF
      0  2b28					      DEFL	_026_L, "-6#2-|2#-3.3#|#-$-2*.-#|#2-$-2*-#|#-$-$.$-#|#2-#-@2-#|9#"
      0  2b28					      START_LEVEL	_026_L
      1  2b28				   LEVEL_START SET	*
      2  2b28		       00 05	   BANK_LEVEL__026_L =	_CURRENT_BANK
      3  2b28				   LEVEL__026_L SUBROUTINE
      4  2b28				   MAX_LEVEL_NUMBER SET	MAX_LEVEL_NUMBER + 1
      5  2b28
      2  2b28		       2d 36 23 32*	      .byte.b	"-6#2-|2#-3.3#|#-$-2*.-#|#2-$-2*-#|#-$-$.$-#|#2-#-@2-#|9#",0
      0  2b61					      END_LEVEL	_026_L
      1  2b61		       00 39	   LEVEL_SIZE__026_L =	* - LEVEL_START
      2  2b61				  -	      IF	LEVEL_SIZE__026_L > MAX_LEVEL_SIZE
      3  2b61				  -MAX_LEVEL_SIZE SET	LEVEL_SIZE__026_L
      4  2b61					      ENDIF
      0  2b61					      DEFL	_026_R, "5-4#|4-2#2-#|-4#3-#|2#2.-$2-#|#.3*$-2#|2#.$-$-#-|-3#-@2#-|3-4#2-"
      0  2b61					      START_LEVEL	_026_R
      1  2b61				   LEVEL_START SET	*
      2  2b61		       00 05	   BANK_LEVEL__026_R =	_CURRENT_BANK
      3  2b61				   LEVEL__026_R SUBROUTINE
      4  2b61				   MAX_LEVEL_NUMBER SET	MAX_LEVEL_NUMBER + 1
      5  2b61
      2  2b61		       35 2d 34 23*	      .byte.b	"5-4#|4-2#2-#|-4#3-#|2#2.-$2-#|#.3*$-2#|2#.$-$-#-|-3#-@2#-|3-4#2-",0
      0  2ba2					      END_LEVEL	_026_R
      1  2ba2		       00 41	   LEVEL_SIZE__026_R =	* - LEVEL_START
      2  2ba2				  -	      IF	LEVEL_SIZE__026_R > MAX_LEVEL_SIZE
      3  2ba2				  -MAX_LEVEL_SIZE SET	LEVEL_SIZE__026_R
      4  2ba2					      ENDIF
      0  2ba2					      DEFL	_027_L, "8#-|#3-@2-#-|#-*4$2#|2#*.#3-#|-#3.$2-#|-3#*.$-#|3-#.4#|3-3#3-"
      0  2ba2					      START_LEVEL	_027_L
      1  2ba2				   LEVEL_START SET	*
      2  2ba2		       00 05	   BANK_LEVEL__027_L =	_CURRENT_BANK
      3  2ba2				   LEVEL__027_L SUBROUTINE
      4  2ba2				   MAX_LEVEL_NUMBER SET	MAX_LEVEL_NUMBER + 1
      5  2ba2
      2  2ba2		       38 23 2d 7c*	      .byte.b	"8#-|#3-@2-#-|#-*4$2#|2#*.#3-#|-#3.$2-#|-3#*.$-#|3-#.4#|3-3#3-",0
      0  2be0					      END_LEVEL	_027_L
      1  2be0		       00 3e	   LEVEL_SIZE__027_L =	* - LEVEL_START
      2  2be0				  -	      IF	LEVEL_SIZE__027_L > MAX_LEVEL_SIZE
      3  2be0				  -MAX_LEVEL_SIZE SET	LEVEL_SIZE__027_L
      4  2be0					      ENDIF
      0  2be0					      DEFL	_027_R, "7#2-|#5-2#-|#$2*-$-#-|#-*2.2-2#|#2.*3$-#|3#.#3-#|2-4#-@#|5-4#"
      0  2be0					      START_LEVEL	_027_R
      1  2be0				   LEVEL_START SET	*
      2  2be0		       00 05	   BANK_LEVEL__027_R =	_CURRENT_BANK
      3  2be0				   LEVEL__027_R SUBROUTINE
      4  2be0				   MAX_LEVEL_NUMBER SET	MAX_LEVEL_NUMBER + 1
      5  2be0
      2  2be0		       37 23 32 2d*	      .byte.b	"7#2-|#5-2#-|#$2*-$-#-|#-*2.2-2#|#2.*3$-#|3#.#3-#|2-4#-@#|5-4#",0
      0  2c1e					      END_LEVEL	_027_R
      1  2c1e		       00 3e	   LEVEL_SIZE__027_R =	* - LEVEL_START
      2  2c1e				  -	      IF	LEVEL_SIZE__027_R > MAX_LEVEL_SIZE
      3  2c1e				  -MAX_LEVEL_SIZE SET	LEVEL_SIZE__027_R
      4  2c1e					      ENDIF
      0  2c1e					      DEFL	_028_L, "3-3#4-|4#.#4-|#-$-.#4-|#@#.*5#|#-$.*.3-#|#-2$-*$#-#|#2-#-.$2-#|4#4-2#|3-6#-"
      0  2c1e					      START_LEVEL	_028_L
      1  2c1e				   LEVEL_START SET	*
      2  2c1e		       00 05	   BANK_LEVEL__028_L =	_CURRENT_BANK
      3  2c1e				   LEVEL__028_L SUBROUTINE
      4  2c1e				   MAX_LEVEL_NUMBER SET	MAX_LEVEL_NUMBER + 1
      5  2c1e
      2  2c1e		       33 2d 33 23*	      .byte.b	"3-3#4-|4#.#4-|#-$-.#4-|#@#.*5#|#-$.*.3-#|#-2$-*$#-#|#2-#-.$2-#|4#4-2#|3-6#-",0
      0  2c6a					      END_LEVEL	_028_L
      1  2c6a		       00 4c	   LEVEL_SIZE__028_L =	* - LEVEL_START
      2  2c6a				  -	      IF	LEVEL_SIZE__028_L > MAX_LEVEL_SIZE
      3  2c6a				  -MAX_LEVEL_SIZE SET	LEVEL_SIZE__028_L
      4  2c6a					      ENDIF
      0  2c6a					      DEFL	_028_R, "9#-|#4-2#@#-|#-2#$#-$2#|#-.-.2$2-#|#-.*.2-#-#|#-#.#$3-#|#-#2*3-2#|#4-4#-|6#4-"
      0  2c6a					      START_LEVEL	_028_R
      1  2c6a				   LEVEL_START SET	*
      2  2c6a		       00 05	   BANK_LEVEL__028_R =	_CURRENT_BANK
      3  2c6a				   LEVEL__028_R SUBROUTINE
      4  2c6a				   MAX_LEVEL_NUMBER SET	MAX_LEVEL_NUMBER + 1
      5  2c6a
      2  2c6a		       39 23 2d 7c*	      .byte.b	"9#-|#4-2#@#-|#-2#$#-$2#|#-.-.2$2-#|#-.*.2-#-#|#-#.#$3-#|#-#2*3-2#|#4-4#-|6#4-",0
      0  2cb8					      END_LEVEL	_028_R
      1  2cb8		       00 4e	   LEVEL_SIZE__028_R =	* - LEVEL_START
      2  2cb8				  -	      IF	LEVEL_SIZE__028_R > MAX_LEVEL_SIZE
      3  2cb8				  -MAX_LEVEL_SIZE SET	LEVEL_SIZE__028_R
      4  2cb8					      ENDIF
      0  2cb8					      DEFL	_029_L, "-5#3-|-#-@-2#2-|2#$*$-3#|#2.*.$2-#|#.*.$3-#|2#2-$-3#|-3#2-#2-|3-4#2-"
      0  2cb8					      START_LEVEL	_029_L
      1  2cb8				   LEVEL_START SET	*
      2  2cb8		       00 05	   BANK_LEVEL__029_L =	_CURRENT_BANK
      3  2cb8				   LEVEL__029_L SUBROUTINE
      4  2cb8				   MAX_LEVEL_NUMBER SET	MAX_LEVEL_NUMBER + 1
      5  2cb8
      2  2cb8		       2d 35 23 33*	      .byte.b	"-5#3-|-#-@-2#2-|2#$*$-3#|#2.*.$2-#|#.*.$3-#|2#2-$-3#|-3#2-#2-|3-4#2-",0
      0  2cfd					      END_LEVEL	_029_L
      1  2cfd		       00 45	   LEVEL_SIZE__029_L =	* - LEVEL_START
      2  2cfd				  -	      IF	LEVEL_SIZE__029_L > MAX_LEVEL_SIZE
      3  2cfd				  -MAX_LEVEL_SIZE SET	LEVEL_SIZE__029_L
      4  2cfd					      ENDIF
      0  2cfd					      DEFL	_029_R, "-4#4-|-#@-4#-|2#$-$2-2#|#2.3$2-#|#.2*.*$-#|3#2-2.-#|2-#2-$.2#|2-6#-"
      0  2cfd					      START_LEVEL	_029_R
      1  2cfd				   LEVEL_START SET	*
      2  2cfd		       00 05	   BANK_LEVEL__029_R =	_CURRENT_BANK
      3  2cfd				   LEVEL__029_R SUBROUTINE
      4  2cfd				   MAX_LEVEL_NUMBER SET	MAX_LEVEL_NUMBER + 1
      5  2cfd
      2  2cfd		       2d 34 23 34*	      .byte.b	"-4#4-|-#@-4#-|2#$-$2-2#|#2.3$2-#|#.2*.*$-#|3#2-2.-#|2-#2-$.2#|2-6#-",0
      0  2d41					      END_LEVEL	_029_R
      1  2d41		       00 44	   LEVEL_SIZE__029_R =	* - LEVEL_START
      2  2d41				  -	      IF	LEVEL_SIZE__029_R > MAX_LEVEL_SIZE
      3  2d41				  -MAX_LEVEL_SIZE SET	LEVEL_SIZE__029_R
      4  2d41					      ENDIF
      0  2d41					      DEFL	_030_L, "6-5#|5#-#2-@#|#3-3#2$-#|#2-$-2.-$2#|3#-.*.*-2#|2-3#-.$2-#|4-#3-#-#|4-2#4-#|5-6#"
      0  2d41					      START_LEVEL	_030_L
      1  2d41				   LEVEL_START SET	*
      2  2d41		       00 05	   BANK_LEVEL__030_L =	_CURRENT_BANK
      3  2d41				   LEVEL__030_L SUBROUTINE
      4  2d41				   MAX_LEVEL_NUMBER SET	MAX_LEVEL_NUMBER + 1
      5  2d41
      2  2d41		       36 2d 35 23*	      .byte.b	"6-5#|5#-#2-@#|#3-3#2$-#|#2-$-2.-$2#|3#-.*.*-2#|2-3#-.$2-#|4-#3-#-#|4-2#4-#|5-6#",0
      0  2d91					      END_LEVEL	_030_L
      1  2d91		       00 50	   LEVEL_SIZE__030_L =	* - LEVEL_START
      2  2d91				  -	      IF	LEVEL_SIZE__030_L > MAX_LEVEL_SIZE
      3  2d91				  -MAX_LEVEL_SIZE SET	LEVEL_SIZE__030_L
      4  2d91					      ENDIF
      0  2d91					      DEFL	_030_R, "-7#2-|2#-$2-.#2-|#-$-$#.#2-|#-#.$2.#2-|#-#3.$2#-|#2-$#*2-2#|3#2-*2$-#|2-#@5-#|2-8#"
      0  2d91					      START_LEVEL	_030_R
      1  2d91				   LEVEL_START SET	*
      2  2d91		       00 05	   BANK_LEVEL__030_R =	_CURRENT_BANK
      3  2d91				   LEVEL__030_R SUBROUTINE
      4  2d91				   MAX_LEVEL_NUMBER SET	MAX_LEVEL_NUMBER + 1
      5  2d91
      2  2d91		       2d 37 23 32*	      .byte.b	"-7#2-|2#-$2-.#2-|#-$-$#.#2-|#-#.$2.#2-|#-#3.$2#-|#2-$#*2-2#|3#2-*2$-#|2-#@5-#|2-8#",0
      0  2de4					      END_LEVEL	_030_R
      1  2de4		       00 53	   LEVEL_SIZE__030_R =	* - LEVEL_START
      2  2de4				  -	      IF	LEVEL_SIZE__030_R > MAX_LEVEL_SIZE
      3  2de4				  -MAX_LEVEL_SIZE SET	LEVEL_SIZE__030_R
      4  2de4					      ENDIF
      0  2de4					      DEFL	_031_L, "-7#2-|-#3-@-3#|-#-2$*2$-#|3#2-*.2-#|#2.2*.*2-#|#$#2-.2-2#|#3-5#-|5#5-"
      0  2de4					      START_LEVEL	_031_L
      1  2de4				   LEVEL_START SET	*
      2  2de4		       00 05	   BANK_LEVEL__031_L =	_CURRENT_BANK
      3  2de4				   LEVEL__031_L SUBROUTINE
      4  2de4				   MAX_LEVEL_NUMBER SET	MAX_LEVEL_NUMBER + 1
      5  2de4
      2  2de4		       2d 37 23 32*	      .byte.b	"-7#2-|-#3-@-3#|-#-2$*2$-#|3#2-*.2-#|#2.2*.*2-#|#$#2-.2-2#|#3-5#-|5#5-",0
      0  2e2a					      END_LEVEL	_031_L
      1  2e2a		       00 46	   LEVEL_SIZE__031_L =	* - LEVEL_START
      2  2e2a				  -	      IF	LEVEL_SIZE__031_L > MAX_LEVEL_SIZE
      3  2e2a				  -MAX_LEVEL_SIZE SET	LEVEL_SIZE__031_L
      4  2e2a					      ENDIF
      0  2e2a					      DEFL	_031_R, "6#-|#2-#+#-|#2-$.2#|#2-2*.#|#-$-.$#|#-$-*.#|#-2$.-#|#-$-.-#|7#"
      0  2e2a					      START_LEVEL	_031_R
      1  2e2a				   LEVEL_START SET	*
      2  2e2a		       00 05	   BANK_LEVEL__031_R =	_CURRENT_BANK
      3  2e2a				   LEVEL__031_R SUBROUTINE
      4  2e2a				   MAX_LEVEL_NUMBER SET	MAX_LEVEL_NUMBER + 1
      5  2e2a
      2  2e2a		       36 23 2d 7c*	      .byte.b	"6#-|#2-#+#-|#2-$.2#|#2-2*.#|#-$-.$#|#-$-*.#|#-2$.-#|#-$-.-#|7#",0
      0  2e69					      END_LEVEL	_031_R
      1  2e69		       00 3f	   LEVEL_SIZE__031_R =	* - LEVEL_START
      2  2e69				  -	      IF	LEVEL_SIZE__031_R > MAX_LEVEL_SIZE
      3  2e69				  -MAX_LEVEL_SIZE SET	LEVEL_SIZE__031_R
      4  2e69					      ENDIF
      0  2e69					      DEFL	_032_L, "-4#2-|-#2-3#|2#2-2.#|#@2$*.#|#-$2-.#|#-$-#*#|3#3-#|2-5#"
      0  2e69					      START_LEVEL	_032_L
      1  2e69				   LEVEL_START SET	*
      2  2e69		       00 05	   BANK_LEVEL__032_L =	_CURRENT_BANK
      3  2e69				   LEVEL__032_L SUBROUTINE
      4  2e69				   MAX_LEVEL_NUMBER SET	MAX_LEVEL_NUMBER + 1
      5  2e69
      2  2e69		       2d 34 23 32*	      .byte.b	"-4#2-|-#2-3#|2#2-2.#|#@2$*.#|#-$2-.#|#-$-#*#|3#3-#|2-5#",0
      0  2ea1					      END_LEVEL	_032_L
      1  2ea1		       00 38	   LEVEL_SIZE__032_L =	* - LEVEL_START
      2  2ea1				  -	      IF	LEVEL_SIZE__032_L > MAX_LEVEL_SIZE
      3  2ea1				  -MAX_LEVEL_SIZE SET	LEVEL_SIZE__032_L
      4  2ea1					      ENDIF
      0  2ea1					      DEFL	_032_R, "9#-|#7-2#|#-$3#-$@#|#2-2.#.$-#|#-.*.2*$-#|#-$.*2-$-#|#2-#.$-3#|8#2-"
      0  2ea1					      START_LEVEL	_032_R
      1  2ea1				   LEVEL_START SET	*
      2  2ea1		       00 05	   BANK_LEVEL__032_R =	_CURRENT_BANK
      3  2ea1				   LEVEL__032_R SUBROUTINE
      4  2ea1				   MAX_LEVEL_NUMBER SET	MAX_LEVEL_NUMBER + 1
      5  2ea1
      2  2ea1		       39 23 2d 7c*	      .byte.b	"9#-|#7-2#|#-$3#-$@#|#2-2.#.$-#|#-.*.2*$-#|#-$.*2-$-#|#2-#.$-3#|8#2-",0
      0  2ee5					      END_LEVEL	_032_R
      1  2ee5		       00 44	   LEVEL_SIZE__032_R =	* - LEVEL_START
      2  2ee5				  -	      IF	LEVEL_SIZE__032_R > MAX_LEVEL_SIZE
      3  2ee5				  -MAX_LEVEL_SIZE SET	LEVEL_SIZE__032_R
      4  2ee5					      ENDIF
      0  2ee5					      DEFL	_033_L, "2-7#-|-2#2-#2-2#|-#2-.*-$-#|-#-$.$-$@#|2#$-2*-3#|#2-$*.*.#-|#3-2.3#-|7#3-"
      0  2ee5					      START_LEVEL	_033_L
      1  2ee5				   LEVEL_START SET	*
      2  2ee5		       00 05	   BANK_LEVEL__033_L =	_CURRENT_BANK
      3  2ee5				   LEVEL__033_L SUBROUTINE
      4  2ee5				   MAX_LEVEL_NUMBER SET	MAX_LEVEL_NUMBER + 1
      5  2ee5
      2  2ee5		       32 2d 37 23*	      .byte.b	"2-7#-|-2#2-#2-2#|-#2-.*-$-#|-#-$.$-$@#|2#$-2*-3#|#2-$*.*.#-|#3-2.3#-|7#3-",0
      0  2f2f					      END_LEVEL	_033_L
      1  2f2f		       00 4a	   LEVEL_SIZE__033_L =	* - LEVEL_START
      2  2f2f				  -	      IF	LEVEL_SIZE__033_L > MAX_LEVEL_SIZE
      3  2f2f				  -MAX_LEVEL_SIZE SET	LEVEL_SIZE__033_L
      4  2f2f					      ENDIF
      0  2f2f					      DEFL	_033_R, "-7#2-|2#2-#@-2#-|#-$-#3-2#|#-$2-$*$-#|#2-*.*.2-#|2#.*2.-$-#|-9#"
      0  2f2f					      START_LEVEL	_033_R
      1  2f2f				   LEVEL_START SET	*
      2  2f2f		       00 05	   BANK_LEVEL__033_R =	_CURRENT_BANK
      3  2f2f				   LEVEL__033_R SUBROUTINE
      4  2f2f				   MAX_LEVEL_NUMBER SET	MAX_LEVEL_NUMBER + 1
      5  2f2f
      2  2f2f		       2d 37 23 32*	      .byte.b	"-7#2-|2#2-#@-2#-|#-$-#3-2#|#-$2-$*$-#|#2-*.*.2-#|2#.*2.-$-#|-9#",0
      0  2f6f					      END_LEVEL	_033_R
      1  2f6f		       00 40	   LEVEL_SIZE__033_R =	* - LEVEL_START
      2  2f6f				  -	      IF	LEVEL_SIZE__033_R > MAX_LEVEL_SIZE
      3  2f6f				  -MAX_LEVEL_SIZE SET	LEVEL_SIZE__033_R
      4  2f6f					      ENDIF
      0  2f6f					      DEFL	_034_L, "5-4#-|-5#2-#-|-#-$@$2-#-|2#-#*$.*2#|#3-.2*2.#|#2-$2-4#|4#2-#3-|3-#2-#3-|3-4#3-"
      0  2f6f					      START_LEVEL	_034_L
      1  2f6f				   LEVEL_START SET	*
      2  2f6f		       00 05	   BANK_LEVEL__034_L =	_CURRENT_BANK
      3  2f6f				   LEVEL__034_L SUBROUTINE
      4  2f6f				   MAX_LEVEL_NUMBER SET	MAX_LEVEL_NUMBER + 1
      5  2f6f
      2  2f6f		       35 2d 34 23*	      .byte.b	"5-4#-|-5#2-#-|-#-$@$2-#-|2#-#*$.*2#|#3-.2*2.#|#2-$2-4#|4#2-#3-|3-#2-#3-|3-4#3-",0
      0  2fbe					      END_LEVEL	_034_L
      1  2fbe		       00 4f	   LEVEL_SIZE__034_L =	* - LEVEL_START
      2  2fbe				  -	      IF	LEVEL_SIZE__034_L > MAX_LEVEL_SIZE
      3  2fbe				  -MAX_LEVEL_SIZE SET	LEVEL_SIZE__034_L
      4  2fbe					      ENDIF
     65  2fbe
      0  2fbe					      CHECK_BANK_SIZE	"LEVELS2"
      1  2fbe		       07 be	   .TEMP      =	* - BANK_START
 LEVELS2 (2K) SIZE =  $7be , FREE= $42
      2  2fbe					      ECHO	"LEVELS2", "(2K) SIZE = ", .TEMP, ", FREE=", ROM_BANK_SIZE - .TEMP
      3  2fbe				  -	      if	( .TEMP ) > ROM_BANK_SIZE
      4  2fbe				  -	      ECHO	"BANK OVERFLOW @ ", * - ORIGIN
      5  2fbe				  -	      ERR
      6  2fbe					      endif
------- FILE ./sokoboo.asm
------- FILE BANK_LEVELS3.asm LEVEL 2 PASS 4
      0  2fbe					      include	"BANK_LEVELS3.asm"
      1  2fbe							;    Sokoboo - a Sokoban implementation
      2  2fbe							;    using a generic tile-based display engine for the Atari 2600
      3  2fbe							;    Sokoban (倉庫番)™ is © Falcon Co., Ltd.
      4  2fbe							;
      5  2fbe							;    Code related to this Sokoban™ implementation was developed by Andrew Davie.
      6  2fbe							;
      7  2fbe							;    Code related to the generic tile-based display engine was developed by
      8  2fbe							;    Andrew Davie and Thomas Jentzsch during 2003-2011 and is
      9  2fbe							;    Copyright(C)2003-2019 Thomas Jentzsch and Andrew Davie - contacts details:
     10  2fbe							;    Andrew Davie (andrew@taswegian.com), Thomas Jentzsch (tjentzsch@yahoo.de).
     11  2fbe							;
     12  2fbe							;    Code related to music and sound effects uses the TIATracker music player
     13  2fbe							;    Copyright 2016 Andre "Kylearan" Wichmann - see source code in the "sound"
     14  2fbe							;    directory for Apache licensing details.
     15  2fbe							;
     16  2fbe							;    Some level data incorporated in this program were created by Lee J Haywood.
     17  2fbe							;    See the copyright notices in the License directory for a list of level
     18  2fbe							;    contributors.
     19  2fbe							;
     20  2fbe							;    Except where otherwise indicated, this software is released under the
     21  2fbe							;    following licensing arrangement...
     22  2fbe							;
     23  2fbe							;    This program is free software: you can redistribute it and/or modify
     24  2fbe							;    it under the terms of the GNU General Public License as published by
     25  2fbe							;    the Free Software Foundation, either version 3 of the License, or
     26  2fbe							;    (at your option) any later version.
     27  2fbe							;    see https://www.gnu.org/licenses/gpl-3.0.en.html
     28  2fbe
     29  2fbe							;    This program is distributed in the hope that it will be useful,
     30  2fbe							;    but WITHOUT ANY WARRANTY; without even the implied warranty of
     31  2fbe							;    MERCHANTABILITY or FITNESS FOR A PARTICULAR PURPOSE.  See the
     32  2fbe							;    GNU General Public License for more details.
     33  2fbe
      0  2fbe					      NEWBANK	LEVELS3
      1  37c7 ????				      SEG	LEVELS3
      2  3000					      ORG	ORIGIN
      3  3000					      RORG	$F000
      4  3000				   BANK_START SET	*
      5  3000				   LEVELS3    SET	ORIGIN / 2048
      6  3000				   ORIGIN     SET	ORIGIN + 2048
      7  3000				   _CURRENT_BANK SET	LEVELS3
     35  3000
      0  3000					      DEFL	_034_R, "-6#3-|-#4-#3-|2#-$.-3#-|#-2$*.$@#-|#-3.#2$2#|4#.4-#|3-3#-#-#|5-#3-#|5-5#"
      0  3000					      START_LEVEL	_034_R
      1  3000				   LEVEL_START SET	*
      2  3000		       00 06	   BANK_LEVEL__034_R =	_CURRENT_BANK
      3  3000				   LEVEL__034_R SUBROUTINE
      4  3000				   MAX_LEVEL_NUMBER SET	MAX_LEVEL_NUMBER + 1
      5  3000
      2  3000		       2d 36 23 33*	      .byte.b	"-6#3-|-#4-#3-|2#-$.-3#-|#-2$*.$@#-|#-3.#2$2#|4#.4-#|3-3#-#-#|5-#3-#|5-5#",0
      0  3049					      END_LEVEL	_034_R
      1  3049		       00 49	   LEVEL_SIZE__034_R =	* - LEVEL_START
      2  3049				  -	      IF	LEVEL_SIZE__034_R > MAX_LEVEL_SIZE
      3  3049				  -MAX_LEVEL_SIZE SET	LEVEL_SIZE__034_R
      4  3049					      ENDIF
      0  3049					      DEFL	_035_L, "5-3#2-|6#.2#-|#@2-2#*.#-|#-3$2.-#-|2#2-$*.$2#|-#-$2-.2-#|-5#3-#|5-5#"
      0  3049					      START_LEVEL	_035_L
      1  3049				   LEVEL_START SET	*
      2  3049		       00 06	   BANK_LEVEL__035_L =	_CURRENT_BANK
      3  3049				   LEVEL__035_L SUBROUTINE
      4  3049				   MAX_LEVEL_NUMBER SET	MAX_LEVEL_NUMBER + 1
      5  3049
      2  3049		       35 2d 33 23*	      .byte.b	"5-3#2-|6#.2#-|#@2-2#*.#-|#-3$2.-#-|2#2-$*.$2#|-#-$2-.2-#|-5#3-#|5-5#",0
      0  308e					      END_LEVEL	_035_L
      1  308e		       00 45	   LEVEL_SIZE__035_L =	* - LEVEL_START
      2  308e				  -	      IF	LEVEL_SIZE__035_L > MAX_LEVEL_SIZE
      3  308e				  -MAX_LEVEL_SIZE SET	LEVEL_SIZE__035_L
      4  308e					      ENDIF
      0  308e					      DEFL	_035_R, "-11#|-#4-@4-#|-#-2$3*$#-#|3#-*.$.-$-#|#3-.*.-4#|#3-2#.2#3-|8#4-"
      0  308e					      START_LEVEL	_035_R
      1  308e				   LEVEL_START SET	*
      2  308e		       00 06	   BANK_LEVEL__035_R =	_CURRENT_BANK
      3  308e				   LEVEL__035_R SUBROUTINE
      4  308e				   MAX_LEVEL_NUMBER SET	MAX_LEVEL_NUMBER + 1
      5  308e
      2  308e		       2d 31 31 23*	      .byte.b	"-11#|-#4-@4-#|-#-2$3*$#-#|3#-*.$.-$-#|#3-.*.-4#|#3-2#.2#3-|8#4-",0
      0  30ce					      END_LEVEL	_035_R
      1  30ce		       00 40	   LEVEL_SIZE__035_R =	* - LEVEL_START
      2  30ce				  -	      IF	LEVEL_SIZE__035_R > MAX_LEVEL_SIZE
      3  30ce				  -MAX_LEVEL_SIZE SET	LEVEL_SIZE__035_R
      4  30ce					      ENDIF
      0  30ce					      DEFL	_036_L, "5#2-|#3-3#|#*#-$@#|#.2-$-#|#.*2$-#|#2.#2-#|4#2-#|3-4#"
      0  30ce					      START_LEVEL	_036_L
      1  30ce				   LEVEL_START SET	*
      2  30ce		       00 06	   BANK_LEVEL__036_L =	_CURRENT_BANK
      3  30ce				   LEVEL__036_L SUBROUTINE
      4  30ce				   MAX_LEVEL_NUMBER SET	MAX_LEVEL_NUMBER + 1
      5  30ce
      2  30ce		       35 23 32 2d*	      .byte.b	"5#2-|#3-3#|#*#-$@#|#.2-$-#|#.*2$-#|#2.#2-#|4#2-#|3-4#",0
      0  3104					      END_LEVEL	_036_L
      1  3104		       00 36	   LEVEL_SIZE__036_L =	* - LEVEL_START
      2  3104				  -	      IF	LEVEL_SIZE__036_L > MAX_LEVEL_SIZE
      3  3104				  -MAX_LEVEL_SIZE SET	LEVEL_SIZE__036_L
      4  3104					      ENDIF
      0  3104					      DEFL	_036_R, "2-5#2-|-2#.2-2#-|-#.*-$-2#|2#2.$-$-#|#.2*.-$@#|#2-$2-$2#|3#4-#-|2-6#-"
      0  3104					      START_LEVEL	_036_R
      1  3104				   LEVEL_START SET	*
      2  3104		       00 06	   BANK_LEVEL__036_R =	_CURRENT_BANK
      3  3104				   LEVEL__036_R SUBROUTINE
      4  3104				   MAX_LEVEL_NUMBER SET	MAX_LEVEL_NUMBER + 1
      5  3104
      2  3104		       32 2d 35 23*	      .byte.b	"2-5#2-|-2#.2-2#-|-#.*-$-2#|2#2.$-$-#|#.2*.-$@#|#2-$2-$2#|3#4-#-|2-6#-",0
      0  314a					      END_LEVEL	_036_R
      1  314a		       00 46	   LEVEL_SIZE__036_R =	* - LEVEL_START
      2  314a				  -	      IF	LEVEL_SIZE__036_R > MAX_LEVEL_SIZE
      3  314a				  -MAX_LEVEL_SIZE SET	LEVEL_SIZE__036_R
      4  314a					      ENDIF
      0  314a					      DEFL	_037_L, "5-6#|6#4-#|#2-#@2.2$-#|#2-$.3*.-#|#3-$.$-$-#|2#2-#.3-2#|-9#-"
      0  314a					      START_LEVEL	_037_L
      1  314a				   LEVEL_START SET	*
      2  314a		       00 06	   BANK_LEVEL__037_L =	_CURRENT_BANK
      3  314a				   LEVEL__037_L SUBROUTINE
      4  314a				   MAX_LEVEL_NUMBER SET	MAX_LEVEL_NUMBER + 1
      5  314a
      2  314a		       35 2d 36 23*	      .byte.b	"5-6#|6#4-#|#2-#@2.2$-#|#2-$.3*.-#|#3-$.$-$-#|2#2-#.3-2#|-9#-",0
      0  3187					      END_LEVEL	_037_L
      1  3187		       00 3d	   LEVEL_SIZE__037_L =	* - LEVEL_START
      2  3187				  -	      IF	LEVEL_SIZE__037_L > MAX_LEVEL_SIZE
      3  3187				  -MAX_LEVEL_SIZE SET	LEVEL_SIZE__037_L
      4  3187					      ENDIF
      0  3187					      DEFL	_037_R, "9#2-|#7-3#|#-$2-.2*.-#|2#-*.*$3-#|-2#-2*.#2-#|2-2#@$-$-2#|3-3#3-#-|5-5#-"
      0  3187					      START_LEVEL	_037_R
      1  3187				   LEVEL_START SET	*
      2  3187		       00 06	   BANK_LEVEL__037_R =	_CURRENT_BANK
      3  3187				   LEVEL__037_R SUBROUTINE
      4  3187				   MAX_LEVEL_NUMBER SET	MAX_LEVEL_NUMBER + 1
      5  3187
      2  3187		       39 23 32 2d*	      .byte.b	"9#2-|#7-3#|#-$2-.2*.-#|2#-*.*$3-#|-2#-2*.#2-#|2-2#@$-$-2#|3-3#3-#-|5-5#-",0
      0  31d0					      END_LEVEL	_037_R
      1  31d0		       00 49	   LEVEL_SIZE__037_R =	* - LEVEL_START
      2  31d0				  -	      IF	LEVEL_SIZE__037_R > MAX_LEVEL_SIZE
      3  31d0				  -MAX_LEVEL_SIZE SET	LEVEL_SIZE__037_R
      4  31d0					      ENDIF
      0  31d0					      DEFL	_038_L, "6-4#2-|4-3#@-3#|3-2#2.*$2-#|4#.*.*3-#|#2-2$3-$2-#|#5-6#|3#2-2#5-|2-4#6-"
      0  31d0					      START_LEVEL	_038_L
      1  31d0				   LEVEL_START SET	*
      2  31d0		       00 06	   BANK_LEVEL__038_L =	_CURRENT_BANK
      3  31d0				   LEVEL__038_L SUBROUTINE
      4  31d0				   MAX_LEVEL_NUMBER SET	MAX_LEVEL_NUMBER + 1
      5  31d0
      2  31d0		       36 2d 34 23*	      .byte.b	"6-4#2-|4-3#@-3#|3-2#2.*$2-#|4#.*.*3-#|#2-2$3-$2-#|#5-6#|3#2-2#5-|2-4#6-",0
      0  3218					      END_LEVEL	_038_L
      1  3218		       00 48	   LEVEL_SIZE__038_L =	* - LEVEL_START
      2  3218				  -	      IF	LEVEL_SIZE__038_L > MAX_LEVEL_SIZE
      3  3218				  -MAX_LEVEL_SIZE SET	LEVEL_SIZE__038_L
      4  3218					      ENDIF
      0  3218					      DEFL	_038_R, "6-6#|4-3#.#-@#|2-3#2.*#$-#|3#-.*2.-$-#|#2-2$2-#-3#|#-$2-#-$-#2-|2#5-3#2-|-7#4-"
      0  3218					      START_LEVEL	_038_R
      1  3218				   LEVEL_START SET	*
      2  3218		       00 06	   BANK_LEVEL__038_R =	_CURRENT_BANK
      3  3218				   LEVEL__038_R SUBROUTINE
      4  3218				   MAX_LEVEL_NUMBER SET	MAX_LEVEL_NUMBER + 1
      5  3218
      2  3218		       36 2d 36 23*	      .byte.b	"6-6#|4-3#.#-@#|2-3#2.*#$-#|3#-.*2.-$-#|#2-2$2-#-3#|#-$2-#-$-#2-|2#5-3#2-|-7#4-",0
      0  3267					      END_LEVEL	_038_R
      1  3267		       00 4f	   LEVEL_SIZE__038_R =	* - LEVEL_START
      2  3267				  -	      IF	LEVEL_SIZE__038_R > MAX_LEVEL_SIZE
      3  3267				  -MAX_LEVEL_SIZE SET	LEVEL_SIZE__038_R
      4  3267					      ENDIF
      0  3267					      DEFL	_039_L, "-7#2-|-#5-#2-|2#-#-$-#2-|#.2*.-3#-|2#@3*2-2#|-2#-2.$2-#|2-2#$#-$-#|3-#5-#|3-7#"
      0  3267					      START_LEVEL	_039_L
      1  3267				   LEVEL_START SET	*
      2  3267		       00 06	   BANK_LEVEL__039_L =	_CURRENT_BANK
      3  3267				   LEVEL__039_L SUBROUTINE
      4  3267				   MAX_LEVEL_NUMBER SET	MAX_LEVEL_NUMBER + 1
      5  3267
      2  3267		       2d 37 23 32*	      .byte.b	"-7#2-|-#5-#2-|2#-#-$-#2-|#.2*.-3#-|2#@3*2-2#|-2#-2.$2-#|2-2#$#-$-#|3-#5-#|3-7#",0
      0  32b6					      END_LEVEL	_039_L
      1  32b6		       00 4f	   LEVEL_SIZE__039_L =	* - LEVEL_START
      2  32b6				  -	      IF	LEVEL_SIZE__039_L > MAX_LEVEL_SIZE
      3  32b6				  -MAX_LEVEL_SIZE SET	LEVEL_SIZE__039_L
      4  32b6					      ENDIF
      0  32b6					      DEFL	_039_R, "4-4#4-|3-2#2-3#2-|2-2#-$.2-#2-|3#-.2*-$3#|#-$-4.3-#|#@$3#-#-#-#|2#4-$2-$-#|-5#3-3#|5-5#2-"
      0  32b6					      START_LEVEL	_039_R
      1  32b6				   LEVEL_START SET	*
      2  32b6		       00 06	   BANK_LEVEL__039_R =	_CURRENT_BANK
      3  32b6				   LEVEL__039_R SUBROUTINE
      4  32b6				   MAX_LEVEL_NUMBER SET	MAX_LEVEL_NUMBER + 1
      5  32b6
      2  32b6		       34 2d 34 23*	      .byte.b	"4-4#4-|3-2#2-3#2-|2-2#-$.2-#2-|3#-.2*-$3#|#-$-4.3-#|#@$3#-#-#-#|2#4-$2-$-#|-5#3-3#|5-5#2-",0
      0  3310					      END_LEVEL	_039_R
      1  3310		       00 5a	   LEVEL_SIZE__039_R =	* - LEVEL_START
      2  3310					      IF	LEVEL_SIZE__039_R > MAX_LEVEL_SIZE
      3  3310				   MAX_LEVEL_SIZE SET	LEVEL_SIZE__039_R
      4  3310					      ENDIF
      0  3310					      DEFL	_040_L, "6#3-|#3-@#3-|#2-$.3#-|3#$*$.2#|3#-.2*.#|#2-$-.3#|#2-$3-#-|4#3-#-|3-5#-"
      0  3310					      START_LEVEL	_040_L
      1  3310				   LEVEL_START SET	*
      2  3310		       00 06	   BANK_LEVEL__040_L =	_CURRENT_BANK
      3  3310				   LEVEL__040_L SUBROUTINE
      4  3310				   MAX_LEVEL_NUMBER SET	MAX_LEVEL_NUMBER + 1
      5  3310
      2  3310		       36 23 33 2d*	      .byte.b	"6#3-|#3-@#3-|#2-$.3#-|3#$*$.2#|3#-.2*.#|#2-$-.3#|#2-$3-#-|4#3-#-|3-5#-",0
      0  3357					      END_LEVEL	_040_L
      1  3357		       00 47	   LEVEL_SIZE__040_L =	* - LEVEL_START
      2  3357				  -	      IF	LEVEL_SIZE__040_L > MAX_LEVEL_SIZE
      3  3357				  -MAX_LEVEL_SIZE SET	LEVEL_SIZE__040_L
      4  3357					      ENDIF
      0  3357					      DEFL	_040_R, "5-4#-|-5#2-2#|2#.-$2-$-#|#-2.*.$#@#|#-*-.2-$-#|2#-$*-4#|-#3-2#3-|-5#4-"
      0  3357					      START_LEVEL	_040_R
      1  3357				   LEVEL_START SET	*
      2  3357		       00 06	   BANK_LEVEL__040_R =	_CURRENT_BANK
      3  3357				   LEVEL__040_R SUBROUTINE
      4  3357				   MAX_LEVEL_NUMBER SET	MAX_LEVEL_NUMBER + 1
      5  3357
      2  3357		       35 2d 34 23*	      .byte.b	"5-4#-|-5#2-2#|2#.-$2-$-#|#-2.*.$#@#|#-*-.2-$-#|2#-$*-4#|-#3-2#3-|-5#4-",0
      0  339e					      END_LEVEL	_040_R
      1  339e		       00 47	   LEVEL_SIZE__040_R =	* - LEVEL_START
      2  339e				  -	      IF	LEVEL_SIZE__040_R > MAX_LEVEL_SIZE
      3  339e				  -MAX_LEVEL_SIZE SET	LEVEL_SIZE__040_R
      4  339e					      ENDIF
     49  339e
      0  339e					      DEFL	_041_L, "4-3#5-|4-#.4#2-|5#*.$-#2-|#4-3.-3#|#-3$-*.$2-#|2#-@2#.$-$-#|-5#4-2#|5-6#-"
      0  339e					      START_LEVEL	_041_L
      1  339e				   LEVEL_START SET	*
      2  339e		       00 06	   BANK_LEVEL__041_L =	_CURRENT_BANK
      3  339e				   LEVEL__041_L SUBROUTINE
      4  339e				   MAX_LEVEL_NUMBER SET	MAX_LEVEL_NUMBER + 1
      5  339e
      2  339e		       34 2d 33 23*	      .byte.b	"4-3#5-|4-#.4#2-|5#*.$-#2-|#4-3.-3#|#-3$-*.$2-#|2#-@2#.$-$-#|-5#4-2#|5-6#-",0
      0  33e8					      END_LEVEL	_041_L
      1  33e8		       00 4a	   LEVEL_SIZE__041_L =	* - LEVEL_START
      2  33e8				  -	      IF	LEVEL_SIZE__041_L > MAX_LEVEL_SIZE
      3  33e8				  -MAX_LEVEL_SIZE SET	LEVEL_SIZE__041_L
      4  33e8					      ENDIF
      0  33e8					      DEFL	_041_R, "-4#3-|2#2-3#-|#-@2$-#-|#-$-#.#-|2#$-2.2#|#2-$*2.#|#2-$-*2#|#3-#.#-|7#-"
      0  33e8					      START_LEVEL	_041_R
      1  33e8				   LEVEL_START SET	*
      2  33e8		       00 06	   BANK_LEVEL__041_R =	_CURRENT_BANK
      3  33e8				   LEVEL__041_R SUBROUTINE
      4  33e8				   MAX_LEVEL_NUMBER SET	MAX_LEVEL_NUMBER + 1
      5  33e8
      2  33e8		       2d 34 23 33*	      .byte.b	"-4#3-|2#2-3#-|#-@2$-#-|#-$-#.#-|2#$-2.2#|#2-$*2.#|#2-$-*2#|#3-#.#-|7#-",0
      0  342f					      END_LEVEL	_041_R
      1  342f		       00 47	   LEVEL_SIZE__041_R =	* - LEVEL_START
      2  342f				  -	      IF	LEVEL_SIZE__041_R > MAX_LEVEL_SIZE
      3  342f				  -MAX_LEVEL_SIZE SET	LEVEL_SIZE__041_R
      4  342f					      ENDIF
      0  342f					      DEFL	_042_L, "8#4-|#6-#4-|#-#-$*-#4-|#-#-#.3#3-|#3-#2.-3#-|#3-2*4-2#|5#.-3$-#|4-4#2-@#|7-5#"
      0  342f					      START_LEVEL	_042_L
      1  342f				   LEVEL_START SET	*
      2  342f		       00 06	   BANK_LEVEL__042_L =	_CURRENT_BANK
      3  342f				   LEVEL__042_L SUBROUTINE
      4  342f				   MAX_LEVEL_NUMBER SET	MAX_LEVEL_NUMBER + 1
      5  342f
      2  342f		       38 23 34 2d*	      .byte.b	"8#4-|#6-#4-|#-#-$*-#4-|#-#-#.3#3-|#3-#2.-3#-|#3-2*4-2#|5#.-3$-#|4-4#2-@#|7-5#",0
      0  347d					      END_LEVEL	_042_L
      1  347d		       00 4e	   LEVEL_SIZE__042_L =	* - LEVEL_START
      2  347d				  -	      IF	LEVEL_SIZE__042_L > MAX_LEVEL_SIZE
      3  347d				  -MAX_LEVEL_SIZE SET	LEVEL_SIZE__042_L
      4  347d					      ENDIF
      0  347d					      DEFL	_042_R, "3-5#4-|2-2#3-#4-|2-#-$-$#4-|3#-*.-2#3-|#@$-#.$-2#2-|#-$2-.*.-3#|3#2.*-$3-#|2-6#3-#|7-5#"
      0  347d					      START_LEVEL	_042_R
      1  347d				   LEVEL_START SET	*
      2  347d		       00 06	   BANK_LEVEL__042_R =	_CURRENT_BANK
      3  347d				   LEVEL__042_R SUBROUTINE
      4  347d				   MAX_LEVEL_NUMBER SET	MAX_LEVEL_NUMBER + 1
      5  347d
      2  347d		       33 2d 35 23*	      .byte.b	"3-5#4-|2-2#3-#4-|2-#-$-$#4-|3#-*.-2#3-|#@$-#.$-2#2-|#-$2-.*.-3#|3#2.*-$3-#|2-6#3-#|7-5#",0
      0  34d5					      END_LEVEL	_042_R
      1  34d5		       00 58	   LEVEL_SIZE__042_R =	* - LEVEL_START
      2  34d5				  -	      IF	LEVEL_SIZE__042_R > MAX_LEVEL_SIZE
      3  34d5				  -MAX_LEVEL_SIZE SET	LEVEL_SIZE__042_R
      4  34d5					      ENDIF
      0  34d5					      DEFL	_043_L, "-8#4-|-#@$.-.-5#|-#2$*.2*.3-#|2#2-$-.2-#$-#|#-$-2#.#3-2#|#3-8#-|#2-2#8-|4#9-"
      0  34d5					      START_LEVEL	_043_L
      1  34d5				   LEVEL_START SET	*
      2  34d5		       00 06	   BANK_LEVEL__043_L =	_CURRENT_BANK
      3  34d5				   LEVEL__043_L SUBROUTINE
      4  34d5				   MAX_LEVEL_NUMBER SET	MAX_LEVEL_NUMBER + 1
      5  34d5
      2  34d5		       2d 38 23 34*	      .byte.b	"-8#4-|-#@$.-.-5#|-#2$*.2*.3-#|2#2-$-.2-#$-#|#-$-2#.#3-2#|#3-8#-|#2-2#8-|4#9-",0
      0  3522					      END_LEVEL	_043_L
      1  3522		       00 4d	   LEVEL_SIZE__043_L =	* - LEVEL_START
      2  3522				  -	      IF	LEVEL_SIZE__043_L > MAX_LEVEL_SIZE
      3  3522				  -MAX_LEVEL_SIZE SET	LEVEL_SIZE__043_L
      4  3522					      ENDIF
      0  3522					      DEFL	_043_R, "2-6#-|-2#4-#-|2#@$-#-#-|#-$#$2.#-|#*.*2.*2#|#-$2-$2.#|#-$-$2-2#|#4-3#-|6#3-"
      0  3522					      START_LEVEL	_043_R
      1  3522				   LEVEL_START SET	*
      2  3522		       00 06	   BANK_LEVEL__043_R =	_CURRENT_BANK
      3  3522				   LEVEL__043_R SUBROUTINE
      4  3522				   MAX_LEVEL_NUMBER SET	MAX_LEVEL_NUMBER + 1
      5  3522
      2  3522		       32 2d 36 23*	      .byte.b	"2-6#-|-2#4-#-|2#@$-#-#-|#-$#$2.#-|#*.*2.*2#|#-$2-$2.#|#-$-$2-2#|#4-3#-|6#3-",0
      0  356e					      END_LEVEL	_043_R
      1  356e		       00 4c	   LEVEL_SIZE__043_R =	* - LEVEL_START
      2  356e				  -	      IF	LEVEL_SIZE__043_R > MAX_LEVEL_SIZE
      3  356e				  -MAX_LEVEL_SIZE SET	LEVEL_SIZE__043_R
      4  356e					      ENDIF
      0  356e					      DEFL	_044_L, "7#-|#@4-#-|#$-.2$#-|#3.*-2#|#*$2*2-#|#3-#2-#|#3-#2-#|8#"
      0  356e					      START_LEVEL	_044_L
      1  356e				   LEVEL_START SET	*
      2  356e		       00 06	   BANK_LEVEL__044_L =	_CURRENT_BANK
      3  356e				   LEVEL__044_L SUBROUTINE
      4  356e				   MAX_LEVEL_NUMBER SET	MAX_LEVEL_NUMBER + 1
      5  356e
      2  356e		       37 23 2d 7c*	      .byte.b	"7#-|#@4-#-|#$-.2$#-|#3.*-2#|#*$2*2-#|#3-#2-#|#3-#2-#|8#",0
      0  35a6					      END_LEVEL	_044_L
      1  35a6		       00 38	   LEVEL_SIZE__044_L =	* - LEVEL_START
      2  35a6				  -	      IF	LEVEL_SIZE__044_L > MAX_LEVEL_SIZE
      3  35a6				  -MAX_LEVEL_SIZE SET	LEVEL_SIZE__044_L
      4  35a6					      ENDIF
      0  35a6					      DEFL	_044_R, "4#-4#-|#2-3#2-#-|#@$2-#-$2#|#$*$5-#|#-*2.$2#-#|#3.#4-#|2#-.-$4#|-3#2-#3-|3-4#3-"
      0  35a6					      START_LEVEL	_044_R
      1  35a6				   LEVEL_START SET	*
      2  35a6		       00 06	   BANK_LEVEL__044_R =	_CURRENT_BANK
      3  35a6				   LEVEL__044_R SUBROUTINE
      4  35a6				   MAX_LEVEL_NUMBER SET	MAX_LEVEL_NUMBER + 1
      5  35a6
      2  35a6		       34 23 2d 34*	      .byte.b	"4#-4#-|#2-3#2-#-|#@$2-#-$2#|#$*$5-#|#-*2.$2#-#|#3.#4-#|2#-.-$4#|-3#2-#3-|3-4#3-",0
      0  35f6					      END_LEVEL	_044_R
      1  35f6		       00 50	   LEVEL_SIZE__044_R =	* - LEVEL_START
      2  35f6				  -	      IF	LEVEL_SIZE__044_R > MAX_LEVEL_SIZE
      3  35f6				  -MAX_LEVEL_SIZE SET	LEVEL_SIZE__044_R
      4  35f6					      ENDIF
      0  35f6					      DEFL	_045_L, "3-4#2-|3-#2.3#|4#$.$-#|#@-#-.*-#|#-$2-2*.#|2#-$-*2-#|-2#-$3-#|2-2#2-3#|3-4#2-"
      0  35f6					      START_LEVEL	_045_L
      1  35f6				   LEVEL_START SET	*
      2  35f6		       00 06	   BANK_LEVEL__045_L =	_CURRENT_BANK
      3  35f6				   LEVEL__045_L SUBROUTINE
      4  35f6				   MAX_LEVEL_NUMBER SET	MAX_LEVEL_NUMBER + 1
      5  35f6
      2  35f6		       33 2d 34 23*	      .byte.b	"3-4#2-|3-#2.3#|4#$.$-#|#@-#-.*-#|#-$2-2*.#|2#-$-*2-#|-2#-$3-#|2-2#2-3#|3-4#2-",0
      0  3644					      END_LEVEL	_045_L
      1  3644		       00 4e	   LEVEL_SIZE__045_L =	* - LEVEL_START
      2  3644				  -	      IF	LEVEL_SIZE__045_L > MAX_LEVEL_SIZE
      3  3644				  -MAX_LEVEL_SIZE SET	LEVEL_SIZE__045_L
      4  3644					      ENDIF
      0  3644					      DEFL	_045_R, "3-6#2-|4#4-#2-|#-$-$2#-3#|#-2$-$-$2-#|#-5.#$-#|#-.*#$2.2-#|2#.-$@5#|-6#4-"
      0  3644					      START_LEVEL	_045_R
      1  3644				   LEVEL_START SET	*
      2  3644		       00 06	   BANK_LEVEL__045_R =	_CURRENT_BANK
      3  3644				   LEVEL__045_R SUBROUTINE
      4  3644				   MAX_LEVEL_NUMBER SET	MAX_LEVEL_NUMBER + 1
      5  3644
      2  3644		       33 2d 36 23*	      .byte.b	"3-6#2-|4#4-#2-|#-$-$2#-3#|#-2$-$-$2-#|#-5.#$-#|#-.*#$2.2-#|2#.-$@5#|-6#4-",0
      0  368e					      END_LEVEL	_045_R
      1  368e		       00 4a	   LEVEL_SIZE__045_R =	* - LEVEL_START
      2  368e				  -	      IF	LEVEL_SIZE__045_R > MAX_LEVEL_SIZE
      3  368e				  -MAX_LEVEL_SIZE SET	LEVEL_SIZE__045_R
      4  368e					      ENDIF
      0  368e					      DEFL	_046_L, "10#-|#@3-#3-2#|#-#*$2-2$-#|#-*.$-$3-#|3#.*$-#2-#|2-#.*.-4#|2-#2.-2#3-|2-5#4-"
      0  368e					      START_LEVEL	_046_L
      1  368e				   LEVEL_START SET	*
      2  368e		       00 06	   BANK_LEVEL__046_L =	_CURRENT_BANK
      3  368e				   LEVEL__046_L SUBROUTINE
      4  368e				   MAX_LEVEL_NUMBER SET	MAX_LEVEL_NUMBER + 1
      5  368e
      2  368e		       31 30 23 2d*	      .byte.b	"10#-|#@3-#3-2#|#-#*$2-2$-#|#-*.$-$3-#|3#.*$-#2-#|2-#.*.-4#|2-#2.-2#3-|2-5#4-",0
      0  36db					      END_LEVEL	_046_L
      1  36db		       00 4d	   LEVEL_SIZE__046_L =	* - LEVEL_START
      2  36db				  -	      IF	LEVEL_SIZE__046_L > MAX_LEVEL_SIZE
      3  36db				  -MAX_LEVEL_SIZE SET	LEVEL_SIZE__046_L
      4  36db					      ENDIF
      0  36db					      DEFL	_046_R, "8#3-|#3-4#3-|#-$2-$@3#-|#2-5$-#-|3#3.*2.2#|2-2#2-$3.#|3-#2-5#|3-4#4-"
      0  36db					      START_LEVEL	_046_R
      1  36db				   LEVEL_START SET	*
      2  36db		       00 06	   BANK_LEVEL__046_R =	_CURRENT_BANK
      3  36db				   LEVEL__046_R SUBROUTINE
      4  36db				   MAX_LEVEL_NUMBER SET	MAX_LEVEL_NUMBER + 1
      5  36db
      2  36db		       38 23 33 2d*	      .byte.b	"8#3-|#3-4#3-|#-$2-$@3#-|#2-5$-#-|3#3.*2.2#|2-2#2-$3.#|3-#2-5#|3-4#4-",0
      0  3720					      END_LEVEL	_046_R
      1  3720		       00 45	   LEVEL_SIZE__046_R =	* - LEVEL_START
      2  3720				  -	      IF	LEVEL_SIZE__046_R > MAX_LEVEL_SIZE
      3  3720				  -MAX_LEVEL_SIZE SET	LEVEL_SIZE__046_R
      4  3720					      ENDIF
      0  3720					      DEFL	_047_L, "5-3#5-|3-3#.#5-|2-2#2-.#5-|2-#-$#.6#|3#3-.2#3-#|#-$@2*.$-$#-#|#4-2#-$3-#|8#3-2#|7-5#-"
      0  3720					      START_LEVEL	_047_L
      1  3720				   LEVEL_START SET	*
      2  3720		       00 06	   BANK_LEVEL__047_L =	_CURRENT_BANK
      3  3720				   LEVEL__047_L SUBROUTINE
      4  3720				   MAX_LEVEL_NUMBER SET	MAX_LEVEL_NUMBER + 1
      5  3720
      2  3720		       35 2d 33 23*	      .byte.b	"5-3#5-|3-3#.#5-|2-2#2-.#5-|2-#-$#.6#|3#3-.2#3-#|#-$@2*.$-$#-#|#4-2#-$3-#|8#3-2#|7-5#-",0
      0  3776					      END_LEVEL	_047_L
      1  3776		       00 56	   LEVEL_SIZE__047_L =	* - LEVEL_START
      2  3776				  -	      IF	LEVEL_SIZE__047_L > MAX_LEVEL_SIZE
      3  3776				  -MAX_LEVEL_SIZE SET	LEVEL_SIZE__047_L
      4  3776					      ENDIF
      0  3776					      DEFL	_047_R, "4-6#|3-2#3-@#|-3#-3$-#|-#.2-#-$-#|2#.*2-$2-#|#2.-2$#-2#|2#2.#-3#-|-#.3-#3-|-6#3-"
      0  3776					      START_LEVEL	_047_R
      1  3776				   LEVEL_START SET	*
      2  3776		       00 06	   BANK_LEVEL__047_R =	_CURRENT_BANK
      3  3776				   LEVEL__047_R SUBROUTINE
      4  3776				   MAX_LEVEL_NUMBER SET	MAX_LEVEL_NUMBER + 1
      5  3776
      2  3776		       34 2d 36 23*	      .byte.b	"4-6#|3-2#3-@#|-3#-3$-#|-#.2-#-$-#|2#.*2-$2-#|#2.-2$#-2#|2#2.#-3#-|-#.3-#3-|-6#3-",0
      0  37c7					      END_LEVEL	_047_R
      1  37c7		       00 51	   LEVEL_SIZE__047_R =	* - LEVEL_START
      2  37c7				  -	      IF	LEVEL_SIZE__047_R > MAX_LEVEL_SIZE
      3  37c7				  -MAX_LEVEL_SIZE SET	LEVEL_SIZE__047_R
      4  37c7					      ENDIF
     64  37c7
     65  37c7
     66  37c7
      0  37c7					      CHECK_BANK_SIZE	"LEVELS3 -- full 2K"
      1  37c7		       07 c7	   .TEMP      =	* - BANK_START
 LEVELS3 -- full 2K (2K) SIZE =  $7c7 , FREE= $39
      2  37c7					      ECHO	"LEVELS3 -- full 2K", "(2K) SIZE = ", .TEMP, ", FREE=", ROM_BANK_SIZE - .TEMP
      3  37c7				  -	      if	( .TEMP ) > ROM_BANK_SIZE
      4  37c7				  -	      ECHO	"BANK OVERFLOW @ ", * - ORIGIN
      5  37c7				  -	      ERR
      6  37c7					      endif
------- FILE ./sokoboo.asm
------- FILE BANK_LEVELS4.asm LEVEL 2 PASS 4
      0  37c7					      include	"BANK_LEVELS4.asm"
      1  37c7							;    Sokoboo - a Sokoban implementation
      2  37c7							;    using a generic tile-based display engine for the Atari 2600
      3  37c7							;    Sokoban (倉庫番)™ is © Falcon Co., Ltd.
      4  37c7							;
      5  37c7							;    Code related to this Sokoban™ implementation was developed by Andrew Davie.
      6  37c7							;
      7  37c7							;    Code related to the generic tile-based display engine was developed by
      8  37c7							;    Andrew Davie and Thomas Jentzsch during 2003-2011 and is
      9  37c7							;    Copyright(C)2003-2019 Thomas Jentzsch and Andrew Davie - contacts details:
     10  37c7							;    Andrew Davie (andrew@taswegian.com), Thomas Jentzsch (tjentzsch@yahoo.de).
     11  37c7							;
     12  37c7							;    Code related to music and sound effects uses the TIATracker music player
     13  37c7							;    Copyright 2016 Andre "Kylearan" Wichmann - see source code in the "sound"
     14  37c7							;    directory for Apache licensing details.
     15  37c7							;
     16  37c7							;    Some level data incorporated in this program were created by Lee J Haywood.
     17  37c7							;    See the copyright notices in the License directory for a list of level
     18  37c7							;    contributors.
     19  37c7							;
     20  37c7							;    Except where otherwise indicated, this software is released under the
     21  37c7							;    following licensing arrangement...
     22  37c7							;
     23  37c7							;    This program is free software: you can redistribute it and/or modify
     24  37c7							;    it under the terms of the GNU General Public License as published by
     25  37c7							;    the Free Software Foundation, either version 3 of the License, or
     26  37c7							;    (at your option) any later version.
     27  37c7							;    see https://www.gnu.org/licenses/gpl-3.0.en.html
     28  37c7
     29  37c7							;    This program is distributed in the hope that it will be useful,
     30  37c7							;    but WITHOUT ANY WARRANTY; without even the implied warranty of
     31  37c7							;    MERCHANTABILITY or FITNESS FOR A PARTICULAR PURPOSE.  See the
     32  37c7							;    GNU General Public License for more details.
     33  37c7
     34  37c7							; level definitions
     35  37c7							; Sample level definitions.
     36  37c7							; Any level can be in any bank.  System auto-calculates required bank buffer size in RAM.
     37  37c7							; have as many banks as you like.
     38  37c7
      0  37c7					      NEWBANK	LEVELS4
      1  3f4a ????				      SEG	LEVELS4
      2  3800					      ORG	ORIGIN
      3  3800					      RORG	$F000
      4  3800				   BANK_START SET	*
      5  3800				   LEVELS4    SET	ORIGIN / 2048
      6  3800				   ORIGIN     SET	ORIGIN + 2048
      7  3800				   _CURRENT_BANK SET	LEVELS4
     40  3800
      0  3800					      DEFL	_048_L, "2-7#-|2-#5-2#|3#$2-#2-#|#-$.3-$-#|#.2*2-4#|#+.#-2#3-|2#$3-#3-|-#4-#3-|-6#3-"
      0  3800					      START_LEVEL	_048_L
      1  3800				   LEVEL_START SET	*
      2  3800		       00 07	   BANK_LEVEL__048_L =	_CURRENT_BANK
      3  3800				   LEVEL__048_L SUBROUTINE
      4  3800				   MAX_LEVEL_NUMBER SET	MAX_LEVEL_NUMBER + 1
      5  3800
      2  3800		       32 2d 37 23*	      .byte.b	"2-7#-|2-#5-2#|3#$2-#2-#|#-$.3-$-#|#.2*2-4#|#+.#-2#3-|2#$3-#3-|-#4-#3-|-6#3-",0
      0  384c					      END_LEVEL	_048_L
      1  384c		       00 4c	   LEVEL_SIZE__048_L =	* - LEVEL_START
      2  384c				  -	      IF	LEVEL_SIZE__048_L > MAX_LEVEL_SIZE
      3  384c				  -MAX_LEVEL_SIZE SET	LEVEL_SIZE__048_L
      4  384c					      ENDIF
      0  384c					      DEFL	_048_R, "5-5#|2-4#3-#|3#-.$-$-#|#2-*3.3#|#2-*.-4#|2#2$*$3-#|-#@$.4-#|-4#2-3#|4-4#2-"
      0  384c					      START_LEVEL	_048_R
      1  384c				   LEVEL_START SET	*
      2  384c		       00 07	   BANK_LEVEL__048_R =	_CURRENT_BANK
      3  384c				   LEVEL__048_R SUBROUTINE
      4  384c				   MAX_LEVEL_NUMBER SET	MAX_LEVEL_NUMBER + 1
      5  384c
      2  384c		       35 2d 35 23*	      .byte.b	"5-5#|2-4#3-#|3#-.$-$-#|#2-*3.3#|#2-*.-4#|2#2$*$3-#|-#@$.4-#|-4#2-3#|4-4#2-",0
      0  3897					      END_LEVEL	_048_R
      1  3897		       00 4b	   LEVEL_SIZE__048_R =	* - LEVEL_START
      2  3897				  -	      IF	LEVEL_SIZE__048_R > MAX_LEVEL_SIZE
      3  3897				  -MAX_LEVEL_SIZE SET	LEVEL_SIZE__048_R
      4  3897					      ENDIF
      0  3897					      DEFL	_049_L, "4#7-|#2-4#4-|#2-$2-5#|#-$-#-4.#|2#-2$-.-.2#|-#$-#-*#-#-|-#-@#$-#-#-|-4#4-#-|4-6#-"
      0  3897					      START_LEVEL	_049_L
      1  3897				   LEVEL_START SET	*
      2  3897		       00 07	   BANK_LEVEL__049_L =	_CURRENT_BANK
      3  3897				   LEVEL__049_L SUBROUTINE
      4  3897				   MAX_LEVEL_NUMBER SET	MAX_LEVEL_NUMBER + 1
      5  3897
      2  3897		       34 23 37 2d*	      .byte.b	"4#7-|#2-4#4-|#2-$2-5#|#-$-#-4.#|2#-2$-.-.2#|-#$-#-*#-#-|-#-@#$-#-#-|-4#4-#-|4-6#-",0
      0  38e9					      END_LEVEL	_049_L
      1  38e9		       00 52	   LEVEL_SIZE__049_L =	* - LEVEL_START
      2  38e9				  -	      IF	LEVEL_SIZE__049_L > MAX_LEVEL_SIZE
      3  38e9				  -MAX_LEVEL_SIZE SET	LEVEL_SIZE__049_L
      4  38e9					      ENDIF
      0  38e9					      DEFL	_049_R, "8#2-|#6-3#|#-$2#$.*-#|#-$-$2.*+#|#3-#2.$-#|#-2$#-.3#|2#5-#2-|-7#2-"
      0  38e9					      START_LEVEL	_049_R
      1  38e9				   LEVEL_START SET	*
      2  38e9		       00 07	   BANK_LEVEL__049_R =	_CURRENT_BANK
      3  38e9				   LEVEL__049_R SUBROUTINE
      4  38e9				   MAX_LEVEL_NUMBER SET	MAX_LEVEL_NUMBER + 1
      5  38e9
      2  38e9		       38 23 32 2d*	      .byte.b	"8#2-|#6-3#|#-$2#$.*-#|#-$-$2.*+#|#3-#2.$-#|#-2$#-.3#|2#5-#2-|-7#2-",0
      0  392c					      END_LEVEL	_049_R
      1  392c		       00 43	   LEVEL_SIZE__049_R =	* - LEVEL_START
      2  392c				  -	      IF	LEVEL_SIZE__049_R > MAX_LEVEL_SIZE
      3  392c				  -MAX_LEVEL_SIZE SET	LEVEL_SIZE__049_R
      4  392c					      ENDIF
     45  392c
      0  392c					      DEFL	_050_L, "4-5#3-|4-#-@-#3-|4-#$.$2#2-|-4#-*2-#2-|2#4-*.*3#|#2-$-#2.-$-#|#3-3#4-#|5#-6#"
      0  392c					      START_LEVEL	_050_L
      1  392c				   LEVEL_START SET	*
      2  392c		       00 07	   BANK_LEVEL__050_L =	_CURRENT_BANK
      3  392c				   LEVEL__050_L SUBROUTINE
      4  392c				   MAX_LEVEL_NUMBER SET	MAX_LEVEL_NUMBER + 1
      5  392c
      2  392c		       34 2d 35 23*	      .byte.b	"4-5#3-|4-#-@-#3-|4-#$.$2#2-|-4#-*2-#2-|2#4-*.*3#|#2-$-#2.-$-#|#3-3#4-#|5#-6#",0
      0  3979					      END_LEVEL	_050_L
      1  3979		       00 4d	   LEVEL_SIZE__050_L =	* - LEVEL_START
      2  3979				  -	      IF	LEVEL_SIZE__050_L > MAX_LEVEL_SIZE
      3  3979				  -MAX_LEVEL_SIZE SET	LEVEL_SIZE__050_L
      4  3979					      ENDIF
      0  3979					      DEFL	_050_R, "8#|#4-@-#|#2-$*2$#|#-$*2.-#|#*2.$*.#|#2-*#2-#|#-$.3-#|8#"
      0  3979					      START_LEVEL	_050_R
      1  3979				   LEVEL_START SET	*
      2  3979		       00 07	   BANK_LEVEL__050_R =	_CURRENT_BANK
      3  3979				   LEVEL__050_R SUBROUTINE
      4  3979				   MAX_LEVEL_NUMBER SET	MAX_LEVEL_NUMBER + 1
      5  3979
      2  3979		       38 23 7c 23*	      .byte.b	"8#|#4-@-#|#2-$*2$#|#-$*2.-#|#*2.$*.#|#2-*#2-#|#-$.3-#|8#",0
      0  39b2					      END_LEVEL	_050_R
      1  39b2		       00 39	   LEVEL_SIZE__050_R =	* - LEVEL_START
      2  39b2				  -	      IF	LEVEL_SIZE__050_R > MAX_LEVEL_SIZE
      3  39b2				  -MAX_LEVEL_SIZE SET	LEVEL_SIZE__050_R
      4  39b2					      ENDIF
      0  39b2					      DEFL	_051_L, "-6#4-|-#2-@-#4-|-#$-*-2#3-|2#-3*.#3-|#2-.*.-#3-|#-#2$2.4#|#4-$-$2-#|3#2-2#3-#|2-9#"
      0  39b2					      START_LEVEL	_051_L
      1  39b2				   LEVEL_START SET	*
      2  39b2		       00 07	   BANK_LEVEL__051_L =	_CURRENT_BANK
      3  39b2				   LEVEL__051_L SUBROUTINE
      4  39b2				   MAX_LEVEL_NUMBER SET	MAX_LEVEL_NUMBER + 1
      5  39b2
      2  39b2		       2d 36 23 34*	      .byte.b	"-6#4-|-#2-@-#4-|-#$-*-2#3-|2#-3*.#3-|#2-.*.-#3-|#-#2$2.4#|#4-$-$2-#|3#2-2#3-#|2-9#",0
      0  3a05					      END_LEVEL	_051_L
      1  3a05		       00 53	   LEVEL_SIZE__051_L =	* - LEVEL_START
      2  3a05				  -	      IF	LEVEL_SIZE__051_L > MAX_LEVEL_SIZE
      3  3a05				  -MAX_LEVEL_SIZE SET	LEVEL_SIZE__051_L
      4  3a05					      ENDIF
      0  3a05					      DEFL	_051_R, "-8#-|-#3-#2-#-|2#$-.$2-2#|#-$.*#$2-#|#-*.3-#-#|#3.#$3-#|3#-$@4#|2-#2-2#3-|2-4#4-"
      0  3a05					      START_LEVEL	_051_R
      1  3a05				   LEVEL_START SET	*
      2  3a05		       00 07	   BANK_LEVEL__051_R =	_CURRENT_BANK
      3  3a05				   LEVEL__051_R SUBROUTINE
      4  3a05				   MAX_LEVEL_NUMBER SET	MAX_LEVEL_NUMBER + 1
      5  3a05
      2  3a05		       2d 38 23 2d*	      .byte.b	"-8#-|-#3-#2-#-|2#$-.$2-2#|#-$.*#$2-#|#-*.3-#-#|#3.#$3-#|3#-$@4#|2-#2-2#3-|2-4#4-",0
      0  3a56					      END_LEVEL	_051_R
      1  3a56		       00 51	   LEVEL_SIZE__051_R =	* - LEVEL_START
      2  3a56				  -	      IF	LEVEL_SIZE__051_R > MAX_LEVEL_SIZE
      3  3a56				  -MAX_LEVEL_SIZE SET	LEVEL_SIZE__051_R
      4  3a56					      ENDIF
      0  3a56					      DEFL	_052_L, "5#6-|#.*.2#5-|#@*2.6#|#-*-2$4-#|2#-$3-$2-#|-3#2-5#|3-4#4-"
      0  3a56					      START_LEVEL	_052_L
      1  3a56				   LEVEL_START SET	*
      2  3a56		       00 07	   BANK_LEVEL__052_L =	_CURRENT_BANK
      3  3a56				   LEVEL__052_L SUBROUTINE
      4  3a56				   MAX_LEVEL_NUMBER SET	MAX_LEVEL_NUMBER + 1
      5  3a56
      2  3a56		       35 23 36 2d*	      .byte.b	"5#6-|#.*.2#5-|#@*2.6#|#-*-2$4-#|2#-$3-$2-#|-3#2-5#|3-4#4-",0
      0  3a90					      END_LEVEL	_052_L
      1  3a90		       00 3a	   LEVEL_SIZE__052_L =	* - LEVEL_START
      2  3a90				  -	      IF	LEVEL_SIZE__052_L > MAX_LEVEL_SIZE
      3  3a90				  -MAX_LEVEL_SIZE SET	LEVEL_SIZE__052_L
      4  3a90					      ENDIF
      0  3a90					      DEFL	_052_R, "2-7#|2-#4-@#|2-#-2$2-#|4#*.$-#|#3.*.$2#|#-#-#2-#-|#2-$3-#-|5#2-#-|4-4#-"
      0  3a90					      START_LEVEL	_052_R
      1  3a90				   LEVEL_START SET	*
      2  3a90		       00 07	   BANK_LEVEL__052_R =	_CURRENT_BANK
      3  3a90				   LEVEL__052_R SUBROUTINE
      4  3a90				   MAX_LEVEL_NUMBER SET	MAX_LEVEL_NUMBER + 1
      5  3a90
      2  3a90		       32 2d 37 23*	      .byte.b	"2-7#|2-#4-@#|2-#-2$2-#|4#*.$-#|#3.*.$2#|#-#-#2-#-|#2-$3-#-|5#2-#-|4-4#-",0
      0  3ad8					      END_LEVEL	_052_R
      1  3ad8		       00 48	   LEVEL_SIZE__052_R =	* - LEVEL_START
      2  3ad8				  -	      IF	LEVEL_SIZE__052_R > MAX_LEVEL_SIZE
      3  3ad8				  -MAX_LEVEL_SIZE SET	LEVEL_SIZE__052_R
      4  3ad8					      ENDIF
      0  3ad8					      DEFL	_053_L, "6#6-|#4-4#3-|#2-2$-$-#3-|#2-#-#.-2#2-|2#$#-$.*.3#|-#@$2-.#2.-#|-4#6-#|4-4#2-2#|7-4#-"
      0  3ad8					      START_LEVEL	_053_L
      1  3ad8				   LEVEL_START SET	*
      2  3ad8		       00 07	   BANK_LEVEL__053_L =	_CURRENT_BANK
      3  3ad8				   LEVEL__053_L SUBROUTINE
      4  3ad8				   MAX_LEVEL_NUMBER SET	MAX_LEVEL_NUMBER + 1
      5  3ad8
      2  3ad8		       36 23 36 2d*	      .byte.b	"6#6-|#4-4#3-|#2-2$-$-#3-|#2-#-#.-2#2-|2#$#-$.*.3#|-#@$2-.#2.-#|-4#6-#|4-4#2-2#|7-4#-",0
      0  3b2d					      END_LEVEL	_053_L
      1  3b2d		       00 55	   LEVEL_SIZE__053_L =	* - LEVEL_START
      2  3b2d				  -	      IF	LEVEL_SIZE__053_L > MAX_LEVEL_SIZE
      3  3b2d				  -MAX_LEVEL_SIZE SET	LEVEL_SIZE__053_L
      4  3b2d					      ENDIF
      0  3b2d					      DEFL	_053_R, "5-5#|3-3#3-#|-3#3-#-#|2#.$.*2$-#|#2.*3.#-#|2#2$-.-$-#|-#-2$5#|-#@2-#4-|-5#4-"
      0  3b2d					      START_LEVEL	_053_R
      1  3b2d				   LEVEL_START SET	*
      2  3b2d		       00 07	   BANK_LEVEL__053_R =	_CURRENT_BANK
      3  3b2d				   LEVEL__053_R SUBROUTINE
      4  3b2d				   MAX_LEVEL_NUMBER SET	MAX_LEVEL_NUMBER + 1
      5  3b2d
      2  3b2d		       35 2d 35 23*	      .byte.b	"5-5#|3-3#3-#|-3#3-#-#|2#.$.*2$-#|#2.*3.#-#|2#2$-.-$-#|-#-2$5#|-#@2-#4-|-5#4-",0
      0  3b7a					      END_LEVEL	_053_R
      1  3b7a		       00 4d	   LEVEL_SIZE__053_R =	* - LEVEL_START
      2  3b7a				  -	      IF	LEVEL_SIZE__053_R > MAX_LEVEL_SIZE
      3  3b7a				  -MAX_LEVEL_SIZE SET	LEVEL_SIZE__053_R
      4  3b7a					      ENDIF
      0  3b7a					      DEFL	_054_L, "-8#2-|2#@-.*.-#2-|#-2$#*2-3#|#3-$2.*2-#|3#2-$.$2-#|-#-$-#.4#|-#3-3#3-|-5#5-"
      0  3b7a					      START_LEVEL	_054_L
      1  3b7a				   LEVEL_START SET	*
      2  3b7a		       00 07	   BANK_LEVEL__054_L =	_CURRENT_BANK
      3  3b7a				   LEVEL__054_L SUBROUTINE
      4  3b7a				   MAX_LEVEL_NUMBER SET	MAX_LEVEL_NUMBER + 1
      5  3b7a
      2  3b7a		       2d 38 23 32*	      .byte.b	"-8#2-|2#@-.*.-#2-|#-2$#*2-3#|#3-$2.*2-#|3#2-$.$2-#|-#-$-#.4#|-#3-3#3-|-5#5-",0
      0  3bc6					      END_LEVEL	_054_L
      1  3bc6		       00 4c	   LEVEL_SIZE__054_L =	* - LEVEL_START
      2  3bc6				  -	      IF	LEVEL_SIZE__054_L > MAX_LEVEL_SIZE
      3  3bc6				  -MAX_LEVEL_SIZE SET	LEVEL_SIZE__054_L
      4  3bc6					      ENDIF
      0  3bc6					      DEFL	_054_R, "2-4#5-|3#2-6#|#-$-.#.-$-#|#2-$3.2$@#|#2-.*$.-$-#|3#$.-5#|2-#3-#4-|2-5#4-"
      0  3bc6					      START_LEVEL	_054_R
      1  3bc6				   LEVEL_START SET	*
      2  3bc6		       00 07	   BANK_LEVEL__054_R =	_CURRENT_BANK
      3  3bc6				   LEVEL__054_R SUBROUTINE
      4  3bc6				   MAX_LEVEL_NUMBER SET	MAX_LEVEL_NUMBER + 1
      5  3bc6
      2  3bc6		       32 2d 34 23*	      .byte.b	"2-4#5-|3#2-6#|#-$-.#.-$-#|#2-$3.2$@#|#2-.*$.-$-#|3#$.-5#|2-#3-#4-|2-5#4-",0
      0  3c0f					      END_LEVEL	_054_R
      1  3c0f		       00 49	   LEVEL_SIZE__054_R =	* - LEVEL_START
      2  3c0f				  -	      IF	LEVEL_SIZE__054_R > MAX_LEVEL_SIZE
      3  3c0f				  -MAX_LEVEL_SIZE SET	LEVEL_SIZE__054_R
      4  3c0f					      ENDIF
      0  3c0f					      DEFL	_055_L, "2-4#6-|2-#2-2#5-|3#2.-#-4#|#-$.*-#-#2-#|#-$*.*3#$-#|#2-$3.4-#|#3-2$#$3-#|4#-@#2-3#|3-7#2-"
      0  3c0f					      START_LEVEL	_055_L
      1  3c0f				   LEVEL_START SET	*
      2  3c0f		       00 07	   BANK_LEVEL__055_L =	_CURRENT_BANK
      3  3c0f				   LEVEL__055_L SUBROUTINE
      4  3c0f				   MAX_LEVEL_NUMBER SET	MAX_LEVEL_NUMBER + 1
      5  3c0f
      2  3c0f		       32 2d 34 23*	      .byte.b	"2-4#6-|2-#2-2#5-|3#2.-#-4#|#-$.*-#-#2-#|#-$*.*3#$-#|#2-$3.4-#|#3-2$#$3-#|4#-@#2-3#|3-7#2-",0
      0  3c69					      END_LEVEL	_055_L
      1  3c69		       00 5a	   LEVEL_SIZE__055_L =	* - LEVEL_START
      2  3c69				  -	      IF	LEVEL_SIZE__055_L > MAX_LEVEL_SIZE
      3  3c69				  -MAX_LEVEL_SIZE SET	LEVEL_SIZE__055_L
      4  3c69					      ENDIF
      0  3c69					      DEFL	_055_R, "5-4#2-|5-#2-#2-|-5#2-2#-|-#2-$2-$-2#|2#$-.#4-#|#3-*#$#$-#|#2-*2.-$@2#|2#3.-4#-|-6#4-"
      0  3c69					      START_LEVEL	_055_R
      1  3c69				   LEVEL_START SET	*
      2  3c69		       00 07	   BANK_LEVEL__055_R =	_CURRENT_BANK
      3  3c69				   LEVEL__055_R SUBROUTINE
      4  3c69				   MAX_LEVEL_NUMBER SET	MAX_LEVEL_NUMBER + 1
      5  3c69
      2  3c69		       35 2d 34 23*	      .byte.b	"5-4#2-|5-#2-#2-|-5#2-2#-|-#2-$2-$-2#|2#$-.#4-#|#3-*#$#$-#|#2-*2.-$@2#|2#3.-4#-|-6#4-",0
      0  3cbe					      END_LEVEL	_055_R
      1  3cbe		       00 55	   LEVEL_SIZE__055_R =	* - LEVEL_START
      2  3cbe				  -	      IF	LEVEL_SIZE__055_R > MAX_LEVEL_SIZE
      3  3cbe				  -MAX_LEVEL_SIZE SET	LEVEL_SIZE__055_R
      4  3cbe					      ENDIF
      0  3cbe					      DEFL	_056_L, "6-5#-|6-#3-#-|-6#$#-#-|2#.*.#2-#-2#|#2-3.*@$2-#|#2-*.#-2$2-#|#-2$-3#3-#|#2-3#-#3-#|4#3-5#"
      0  3cbe					      START_LEVEL	_056_L
      1  3cbe				   LEVEL_START SET	*
      2  3cbe		       00 07	   BANK_LEVEL__056_L =	_CURRENT_BANK
      3  3cbe				   LEVEL__056_L SUBROUTINE
      4  3cbe				   MAX_LEVEL_NUMBER SET	MAX_LEVEL_NUMBER + 1
      5  3cbe
      2  3cbe		       36 2d 35 23*	      .byte.b	"6-5#-|6-#3-#-|-6#$#-#-|2#.*.#2-#-2#|#2-3.*@$2-#|#2-*.#-2$2-#|#-2$-3#3-#|#2-3#-#3-#|4#3-5#",0
      0  3d18					      END_LEVEL	_056_L
      1  3d18		       00 5a	   LEVEL_SIZE__056_L =	* - LEVEL_START
      2  3d18				  -	      IF	LEVEL_SIZE__056_L > MAX_LEVEL_SIZE
      3  3d18				  -MAX_LEVEL_SIZE SET	LEVEL_SIZE__056_L
      4  3d18					      ENDIF
      0  3d18					      DEFL	_056_R, "-4#-6#-|-#2-#-#4-#-|-#2-3#-2#$2#|-#$2-@#-2#2-#|2#-2$4.3-#|#2-#3-2.4#|#2-2$5#3-|#4-#7-|6#7-"
      0  3d18					      START_LEVEL	_056_R
      1  3d18				   LEVEL_START SET	*
      2  3d18		       00 07	   BANK_LEVEL__056_R =	_CURRENT_BANK
      3  3d18				   LEVEL__056_R SUBROUTINE
      4  3d18				   MAX_LEVEL_NUMBER SET	MAX_LEVEL_NUMBER + 1
      5  3d18
      2  3d18		       2d 34 23 2d*	      .byte.b	"-4#-6#-|-#2-#-#4-#-|-#2-3#-2#$2#|-#$2-@#-2#2-#|2#-2$4.3-#|#2-#3-2.4#|#2-2$5#3-|#4-#7-|6#7-",0
      0  3d73					      END_LEVEL	_056_R
      1  3d73		       00 5b	   LEVEL_SIZE__056_R =	* - LEVEL_START
      2  3d73					      IF	LEVEL_SIZE__056_R > MAX_LEVEL_SIZE
      3  3d73				   MAX_LEVEL_SIZE SET	LEVEL_SIZE__056_R
      4  3d73					      ENDIF
      0  3d73					      DEFL	_057_L, "5-6#|4#-#-.2-#|#2-#-#-2.-#|#2-3#2*.-#|#-$-#-*-$2#|#-$-@*.2-#-|#-2$-2#2-#-|#4-5#-|6#5-"
      0  3d73					      START_LEVEL	_057_L
      1  3d73				   LEVEL_START SET	*
      2  3d73		       00 07	   BANK_LEVEL__057_L =	_CURRENT_BANK
      3  3d73				   LEVEL__057_L SUBROUTINE
      4  3d73				   MAX_LEVEL_NUMBER SET	MAX_LEVEL_NUMBER + 1
      5  3d73
      2  3d73		       35 2d 36 23*	      .byte.b	"5-6#|4#-#-.2-#|#2-#-#-2.-#|#2-3#2*.-#|#-$-#-*-$2#|#-$-@*.2-#-|#-2$-2#2-#-|#4-5#-|6#5-",0
      0  3dc9					      END_LEVEL	_057_L
      1  3dc9		       00 56	   LEVEL_SIZE__057_L =	* - LEVEL_START
      2  3dc9				  -	      IF	LEVEL_SIZE__057_L > MAX_LEVEL_SIZE
      3  3dc9				  -MAX_LEVEL_SIZE SET	LEVEL_SIZE__057_L
      4  3dc9					      ENDIF
      0  3dc9					      DEFL	_057_R, "5#4-|#3-3#2-|#+2.2-3#|#.#*$-$-#|#.#.-#$-#|#-$2-$2-#|2#$2#3-#|-#5-2#|-7#-"
      0  3dc9					      START_LEVEL	_057_R
      1  3dc9				   LEVEL_START SET	*
      2  3dc9		       00 07	   BANK_LEVEL__057_R =	_CURRENT_BANK
      3  3dc9				   LEVEL__057_R SUBROUTINE
      4  3dc9				   MAX_LEVEL_NUMBER SET	MAX_LEVEL_NUMBER + 1
      5  3dc9
      2  3dc9		       35 23 34 2d*	      .byte.b	"5#4-|#3-3#2-|#+2.2-3#|#.#*$-$-#|#.#.-#$-#|#-$2-$2-#|2#$2#3-#|-#5-2#|-7#-",0
      0  3e12					      END_LEVEL	_057_R
      1  3e12		       00 49	   LEVEL_SIZE__057_R =	* - LEVEL_START
      2  3e12				  -	      IF	LEVEL_SIZE__057_R > MAX_LEVEL_SIZE
      3  3e12				  -MAX_LEVEL_SIZE SET	LEVEL_SIZE__057_R
      4  3e12					      ENDIF
      0  3e12					      DEFL	_058_L, "-6#4-|-#-3.5#|-#-#.*2#2-#|2#-.*$4-#|#-2$*-$-$-#|#@2-2#4-#|7#3-#|6-5#"
      0  3e12					      START_LEVEL	_058_L
      1  3e12				   LEVEL_START SET	*
      2  3e12		       00 07	   BANK_LEVEL__058_L =	_CURRENT_BANK
      3  3e12				   LEVEL__058_L SUBROUTINE
      4  3e12				   MAX_LEVEL_NUMBER SET	MAX_LEVEL_NUMBER + 1
      5  3e12
      2  3e12		       2d 36 23 34*	      .byte.b	"-6#4-|-#-3.5#|-#-#.*2#2-#|2#-.*$4-#|#-2$*-$-$-#|#@2-2#4-#|7#3-#|6-5#",0
      0  3e57					      END_LEVEL	_058_L
      1  3e57		       00 45	   LEVEL_SIZE__058_L =	* - LEVEL_START
      2  3e57				  -	      IF	LEVEL_SIZE__058_L > MAX_LEVEL_SIZE
      3  3e57				  -MAX_LEVEL_SIZE SET	LEVEL_SIZE__058_L
      4  3e57					      ENDIF
      0  3e57					      DEFL	_058_R, "4-5#-|3-2#3-#-|4#-.#$#-|#-$2-.#-#-|#@-3*.-2#|#-$.2-*2-#|3#*$#3-#|2-#4-3#|2-6#2-"
      0  3e57					      START_LEVEL	_058_R
      1  3e57				   LEVEL_START SET	*
      2  3e57		       00 07	   BANK_LEVEL__058_R =	_CURRENT_BANK
      3  3e57				   LEVEL__058_R SUBROUTINE
      4  3e57				   MAX_LEVEL_NUMBER SET	MAX_LEVEL_NUMBER + 1
      5  3e57
      2  3e57		       34 2d 35 23*	      .byte.b	"4-5#-|3-2#3-#-|4#-.#$#-|#-$2-.#-#-|#@-3*.-2#|#-$.2-*2-#|3#*$#3-#|2-#4-3#|2-6#2-",0
      0  3ea7					      END_LEVEL	_058_R
      1  3ea7		       00 50	   LEVEL_SIZE__058_R =	* - LEVEL_START
      2  3ea7				  -	      IF	LEVEL_SIZE__058_R > MAX_LEVEL_SIZE
      3  3ea7				  -MAX_LEVEL_SIZE SET	LEVEL_SIZE__058_R
      4  3ea7					      ENDIF
      0  3ea7					      DEFL	_059_L, "6#5-|#4-#5-|#-$#-5#-|#4-.-$@#-|#-#-2*-#$2#|#-$.*-$3-#|2#$#.-2#2-#|-#-3.2#2-#|-10#"
      0  3ea7					      START_LEVEL	_059_L
      1  3ea7				   LEVEL_START SET	*
      2  3ea7		       00 07	   BANK_LEVEL__059_L =	_CURRENT_BANK
      3  3ea7				   LEVEL__059_L SUBROUTINE
      4  3ea7				   MAX_LEVEL_NUMBER SET	MAX_LEVEL_NUMBER + 1
      5  3ea7
      2  3ea7		       36 23 35 2d*	      .byte.b	"6#5-|#4-#5-|#-$#-5#-|#4-.-$@#-|#-#-2*-#$2#|#-$.*-$3-#|2#$#.-2#2-#|-#-3.2#2-#|-10#",0
      0  3ef9					      END_LEVEL	_059_L
      1  3ef9		       00 52	   LEVEL_SIZE__059_L =	* - LEVEL_START
      2  3ef9				  -	      IF	LEVEL_SIZE__059_L > MAX_LEVEL_SIZE
      3  3ef9				  -MAX_LEVEL_SIZE SET	LEVEL_SIZE__059_L
      4  3ef9					      ENDIF
      0  3ef9					      DEFL	_059_R, "7-3#-|8#.#-|#4-#-2.2#|#-#-2$*.$-#|#5-2.#-#|2#2-2#-2#-#|#2-$-2$2#-#|#3-2#3-@#|11#"
      0  3ef9					      START_LEVEL	_059_R
      1  3ef9				   LEVEL_START SET	*
      2  3ef9		       00 07	   BANK_LEVEL__059_R =	_CURRENT_BANK
      3  3ef9				   LEVEL__059_R SUBROUTINE
      4  3ef9				   MAX_LEVEL_NUMBER SET	MAX_LEVEL_NUMBER + 1
      5  3ef9
      2  3ef9		       37 2d 33 23*	      .byte.b	"7-3#-|8#.#-|#4-#-2.2#|#-#-2$*.$-#|#5-2.#-#|2#2-2#-2#-#|#2-$-2$2#-#|#3-2#3-@#|11#",0
      0  3f4a					      END_LEVEL	_059_R
      1  3f4a		       00 51	   LEVEL_SIZE__059_R =	* - LEVEL_START
      2  3f4a				  -	      IF	LEVEL_SIZE__059_R > MAX_LEVEL_SIZE
      3  3f4a				  -MAX_LEVEL_SIZE SET	LEVEL_SIZE__059_R
      4  3f4a					      ENDIF
     66  3f4a
      0  3f4a					      CHECK_BANK_SIZE	"LEVELS4 -- full 2K"
      1  3f4a		       07 4a	   .TEMP      =	* - BANK_START
 LEVELS4 -- full 2K (2K) SIZE =  $74a , FREE= $b6
      2  3f4a					      ECHO	"LEVELS4 -- full 2K", "(2K) SIZE = ", .TEMP, ", FREE=", ROM_BANK_SIZE - .TEMP
      3  3f4a				  -	      if	( .TEMP ) > ROM_BANK_SIZE
      4  3f4a				  -	      ECHO	"BANK OVERFLOW @ ", * - ORIGIN
      5  3f4a				  -	      ERR
      6  3f4a					      endif
------- FILE ./sokoboo.asm
------- FILE BANK_LEVELS5.asm LEVEL 2 PASS 4
      0  3f4a					      include	"BANK_LEVELS5.asm"
      1  3f4a							;    Sokoboo - a Sokoban implementation
      2  3f4a							;    using a generic tile-based display engine for the Atari 2600
      3  3f4a							;    Sokoban (倉庫番)™ is © Falcon Co., Ltd.
      4  3f4a							;
      5  3f4a							;    Code related to this Sokoban™ implementation was developed by Andrew Davie.
      6  3f4a							;
      7  3f4a							;    Code related to the generic tile-based display engine was developed by
      8  3f4a							;    Andrew Davie and Thomas Jentzsch during 2003-2011 and is
      9  3f4a							;    Copyright(C)2003-2019 Thomas Jentzsch and Andrew Davie - contacts details:
     10  3f4a							;    Andrew Davie (andrew@taswegian.com), Thomas Jentzsch (tjentzsch@yahoo.de).
     11  3f4a							;
     12  3f4a							;    Code related to music and sound effects uses the TIATracker music player
     13  3f4a							;    Copyright 2016 Andre "Kylearan" Wichmann - see source code in the "sound"
     14  3f4a							;    directory for Apache licensing details.
     15  3f4a							;
     16  3f4a							;    Some level data incorporated in this program were created by Lee J Haywood.
     17  3f4a							;    See the copyright notices in the License directory for a list of level
     18  3f4a							;    contributors.
     19  3f4a							;
     20  3f4a							;    Except where otherwise indicated, this software is released under the
     21  3f4a							;    following licensing arrangement...
     22  3f4a							;
     23  3f4a							;    This program is free software: you can redistribute it and/or modify
     24  3f4a							;    it under the terms of the GNU General Public License as published by
     25  3f4a							;    the Free Software Foundation, either version 3 of the License, or
     26  3f4a							;    (at your option) any later version.
     27  3f4a							;    see https://www.gnu.org/licenses/gpl-3.0.en.html
     28  3f4a
     29  3f4a							;    This program is distributed in the hope that it will be useful,
     30  3f4a							;    but WITHOUT ANY WARRANTY; without even the implied warranty of
     31  3f4a							;    MERCHANTABILITY or FITNESS FOR A PARTICULAR PURPOSE.  See the
     32  3f4a							;    GNU General Public License for more details.
     33  3f4a
     34  3f4a							; level definitions
     35  3f4a							; Sample level definitions.
     36  3f4a							; Any level can be in any bank.  System auto-calculates required bank buffer size in RAM.
     37  3f4a							; have as many banks as you like.
     38  3f4a
      0  3f4a					      NEWBANK	LEVELS5
      1  4675 ????				      SEG	LEVELS5
      2  4000					      ORG	ORIGIN
      3  4000					      RORG	$F000
      4  4000				   BANK_START SET	*
      5  4000				   LEVELS5    SET	ORIGIN / 2048
      6  4000				   ORIGIN     SET	ORIGIN + 2048
      7  4000				   _CURRENT_BANK SET	LEVELS5
     40  4000
      0  4000					      DEFL	_060_R, "3-6#3-|3-#2.$-#3-|4#.*2-2#2-|#2-2$*3-3#|#3-.+#3$-#|5#.*4-#|4-4#3-#|7-5#"
      0  4000					      START_LEVEL	_060_R
      1  4000				   LEVEL_START SET	*
      2  4000		       00 08	   BANK_LEVEL__060_R =	_CURRENT_BANK
      3  4000				   LEVEL__060_R SUBROUTINE
      4  4000				   MAX_LEVEL_NUMBER SET	MAX_LEVEL_NUMBER + 1
      5  4000
      2  4000		       33 2d 36 23*	      .byte.b	"3-6#3-|3-#2.$-#3-|4#.*2-2#2-|#2-2$*3-3#|#3-.+#3$-#|5#.*4-#|4-4#3-#|7-5#",0
      0  4048					      END_LEVEL	_060_R
      1  4048		       00 48	   LEVEL_SIZE__060_R =	* - LEVEL_START
      2  4048				  -	      IF	LEVEL_SIZE__060_R > MAX_LEVEL_SIZE
      3  4048				  -MAX_LEVEL_SIZE SET	LEVEL_SIZE__060_R
      4  4048					      ENDIF
      0  4048					      DEFL	_061_L, "10#-|#2-#2-@2-#-|#2-#-$-#*2#|#-$-#2*-2.#|#4-$.*.$#|4#-2.$2-#|3-3#-$2-#|5-2#3-#|6-5#"
      0  4048					      START_LEVEL	_061_L
      1  4048				   LEVEL_START SET	*
      2  4048		       00 08	   BANK_LEVEL__061_L =	_CURRENT_BANK
      3  4048				   LEVEL__061_L SUBROUTINE
      4  4048				   MAX_LEVEL_NUMBER SET	MAX_LEVEL_NUMBER + 1
      5  4048
      2  4048		       31 30 23 2d*	      .byte.b	"10#-|#2-#2-@2-#-|#2-#-$-#*2#|#-$-#2*-2.#|#4-$.*.$#|4#-2.$2-#|3-3#-$2-#|5-2#3-#|6-5#",0
      0  409c					      END_LEVEL	_061_L
      1  409c		       00 54	   LEVEL_SIZE__061_L =	* - LEVEL_START
      2  409c				  -	      IF	LEVEL_SIZE__061_L > MAX_LEVEL_SIZE
      3  409c				  -MAX_LEVEL_SIZE SET	LEVEL_SIZE__061_L
      4  409c					      ENDIF
      0  409c					      DEFL	_061_R, "4-5#4-|3-2#.2-#4-|4#.*#-4#-|#3-3.2-$@2#|#2-$-$.4$-#|6#.#4-#|5-5#2-#|9-4#"
      0  409c					      START_LEVEL	_061_R
      1  409c				   LEVEL_START SET	*
      2  409c		       00 08	   BANK_LEVEL__061_R =	_CURRENT_BANK
      3  409c				   LEVEL__061_R SUBROUTINE
      4  409c				   MAX_LEVEL_NUMBER SET	MAX_LEVEL_NUMBER + 1
      5  409c
      2  409c		       34 2d 35 23*	      .byte.b	"4-5#4-|3-2#.2-#4-|4#.*#-4#-|#3-3.2-$@2#|#2-$-$.4$-#|6#.#4-#|5-5#2-#|9-4#",0
      0  40e5					      END_LEVEL	_061_R
      1  40e5		       00 49	   LEVEL_SIZE__061_R =	* - LEVEL_START
      2  40e5				  -	      IF	LEVEL_SIZE__061_R > MAX_LEVEL_SIZE
      3  40e5				  -MAX_LEVEL_SIZE SET	LEVEL_SIZE__061_R
      4  40e5					      ENDIF
      0  40e5					      DEFL	_062_L, "-5#6-|-#3-5#2-|-#2$-#3-#2-|2#-#2-$2-2#-|#5-*#2-#-|#3-#-.#2.2#|5#$3*.-#|4-#@$-.2-#|4-8#"
      0  40e5					      START_LEVEL	_062_L
      1  40e5				   LEVEL_START SET	*
      2  40e5		       00 08	   BANK_LEVEL__062_L =	_CURRENT_BANK
      3  40e5				   LEVEL__062_L SUBROUTINE
      4  40e5				   MAX_LEVEL_NUMBER SET	MAX_LEVEL_NUMBER + 1
      5  40e5
      2  40e5		       2d 35 23 36*	      .byte.b	"-5#6-|-#3-5#2-|-#2$-#3-#2-|2#-#2-$2-2#-|#5-*#2-#-|#3-#-.#2.2#|5#$3*.-#|4-#@$-.2-#|4-8#",0
      0  413c					      END_LEVEL	_062_L
      1  413c		       00 57	   LEVEL_SIZE__062_L =	* - LEVEL_START
      2  413c				  -	      IF	LEVEL_SIZE__062_L > MAX_LEVEL_SIZE
      3  413c				  -MAX_LEVEL_SIZE SET	LEVEL_SIZE__062_L
      4  413c					      ENDIF
      0  413c					      DEFL	_062_R, "5-5#|3-3#@2.#|-3#3-*2#|-#2-2$*.#-|2#2-$3.#-|#-$2-$-2#-|#2-$4#2-|#3-#5-|5#5-"
      0  413c					      START_LEVEL	_062_R
      1  413c				   LEVEL_START SET	*
      2  413c		       00 08	   BANK_LEVEL__062_R =	_CURRENT_BANK
      3  413c				   LEVEL__062_R SUBROUTINE
      4  413c				   MAX_LEVEL_NUMBER SET	MAX_LEVEL_NUMBER + 1
      5  413c
      2  413c		       35 2d 35 23*	      .byte.b	"5-5#|3-3#@2.#|-3#3-*2#|-#2-2$*.#-|2#2-$3.#-|#-$2-$-2#-|#2-$4#2-|#3-#5-|5#5-",0
      0  4188					      END_LEVEL	_062_R
      1  4188		       00 4c	   LEVEL_SIZE__062_R =	* - LEVEL_START
      2  4188				  -	      IF	LEVEL_SIZE__062_R > MAX_LEVEL_SIZE
      3  4188				  -MAX_LEVEL_SIZE SET	LEVEL_SIZE__062_R
      4  4188					      ENDIF
      0  4188					      DEFL	_063_L, "2-5#6-|2-#3-7#|2-#2-$@2#3-#|4#$#*.#-#-#|#2-$.#.*2-#-#|#3-.*.3$2-#|3#.*7-#|2-11#"
      0  4188					      START_LEVEL	_063_L
      1  4188				   LEVEL_START SET	*
      2  4188		       00 08	   BANK_LEVEL__063_L =	_CURRENT_BANK
      3  4188				   LEVEL__063_L SUBROUTINE
      4  4188				   MAX_LEVEL_NUMBER SET	MAX_LEVEL_NUMBER + 1
      5  4188
      2  4188		       32 2d 35 23*	      .byte.b	"2-5#6-|2-#3-7#|2-#2-$@2#3-#|4#$#*.#-#-#|#2-$.#.*2-#-#|#3-.*.3$2-#|3#.*7-#|2-11#",0
      0  41d8					      END_LEVEL	_063_L
      1  41d8		       00 50	   LEVEL_SIZE__063_L =	* - LEVEL_START
      2  41d8				  -	      IF	LEVEL_SIZE__063_L > MAX_LEVEL_SIZE
      3  41d8				  -MAX_LEVEL_SIZE SET	LEVEL_SIZE__063_L
      4  41d8					      ENDIF
      0  41d8					      DEFL	_063_R, "2-6#3-|2-#-+.-#3-|2-#$*$-4#|-2#3.#3-#|2#-$.*.3-#|#-$-#$2#-2#|#-2$5-#-|#6-3#-|8#3-"
      0  41d8					      START_LEVEL	_063_R
      1  41d8				   LEVEL_START SET	*
      2  41d8		       00 08	   BANK_LEVEL__063_R =	_CURRENT_BANK
      3  41d8				   LEVEL__063_R SUBROUTINE
      4  41d8				   MAX_LEVEL_NUMBER SET	MAX_LEVEL_NUMBER + 1
      5  41d8
      2  41d8		       32 2d 36 23*	      .byte.b	"2-6#3-|2-#-+.-#3-|2-#$*$-4#|-2#3.#3-#|2#-$.*.3-#|#-$-#$2#-2#|#-2$5-#-|#6-3#-|8#3-",0
      0  422a					      END_LEVEL	_063_R
      1  422a		       00 52	   LEVEL_SIZE__063_R =	* - LEVEL_START
      2  422a				  -	      IF	LEVEL_SIZE__063_R > MAX_LEVEL_SIZE
      3  422a				  -MAX_LEVEL_SIZE SET	LEVEL_SIZE__063_R
      4  422a					      ENDIF
      0  422a					      DEFL	_064_L, "-8#3-|2#2-2#2-#3-|#3-2#2-#3-|#-@-$.$.#3-|3#-$*2.4#|2-#$-#*.3-#|2-#2-$-.-$-#|2-#2-7#|2-4#6-"
      0  422a					      START_LEVEL	_064_L
      1  422a				   LEVEL_START SET	*
      2  422a		       00 08	   BANK_LEVEL__064_L =	_CURRENT_BANK
      3  422a				   LEVEL__064_L SUBROUTINE
      4  422a				   MAX_LEVEL_NUMBER SET	MAX_LEVEL_NUMBER + 1
      5  422a
      2  422a		       2d 38 23 33*	      .byte.b	"-8#3-|2#2-2#2-#3-|#3-2#2-#3-|#-@-$.$.#3-|3#-$*2.4#|2-#$-#*.3-#|2-#2-$-.-$-#|2-#2-7#|2-4#6-",0
      0  4285					      END_LEVEL	_064_L
      1  4285		       00 5b	   LEVEL_SIZE__064_L =	* - LEVEL_START
      2  4285				  -	      IF	LEVEL_SIZE__064_L > MAX_LEVEL_SIZE
      3  4285				  -MAX_LEVEL_SIZE SET	LEVEL_SIZE__064_L
      4  4285					      ENDIF
      0  4285					      DEFL	_064_R, "4#-6#|#2-#-#4-#|#2-3#4-#|#-$*-$-$-2#|#2-3.-#-#-|3#2.#3$#-|2-2#2.-$@#-|3-7#-"
      0  4285					      START_LEVEL	_064_R
      1  4285				   LEVEL_START SET	*
      2  4285		       00 08	   BANK_LEVEL__064_R =	_CURRENT_BANK
      3  4285				   LEVEL__064_R SUBROUTINE
      4  4285				   MAX_LEVEL_NUMBER SET	MAX_LEVEL_NUMBER + 1
      5  4285
      2  4285		       34 23 2d 36*	      .byte.b	"4#-6#|#2-#-#4-#|#2-3#4-#|#-$*-$-$-2#|#2-3.-#-#-|3#2.#3$#-|2-2#2.-$@#-|3-7#-",0
      0  42d1					      END_LEVEL	_064_R
      1  42d1		       00 4c	   LEVEL_SIZE__064_R =	* - LEVEL_START
      2  42d1				  -	      IF	LEVEL_SIZE__064_R > MAX_LEVEL_SIZE
      3  42d1				  -MAX_LEVEL_SIZE SET	LEVEL_SIZE__064_R
      4  42d1					      ENDIF
      0  42d1					      DEFL	_065_L, "2-5#5-|3#3-#5-|#-3$-6#|#-.-#2.#2-@#|2#*2.*.3$-#|#2.$-#.$-$-#|2#.2-2#2-$-#|-6#3-2#|6-5#-"
      0  42d1					      START_LEVEL	_065_L
      1  42d1				   LEVEL_START SET	*
      2  42d1		       00 08	   BANK_LEVEL__065_L =	_CURRENT_BANK
      3  42d1				   LEVEL__065_L SUBROUTINE
      4  42d1				   MAX_LEVEL_NUMBER SET	MAX_LEVEL_NUMBER + 1
      5  42d1
      2  42d1		       32 2d 35 23*	      .byte.b	"2-5#5-|3#3-#5-|#-3$-6#|#-.-#2.#2-@#|2#*2.*.3$-#|#2.$-#.$-$-#|2#.2-2#2-$-#|-6#3-2#|6-5#-",0
      0  4329					      END_LEVEL	_065_L
      1  4329		       00 58	   LEVEL_SIZE__065_L =	* - LEVEL_START
      2  4329				  -	      IF	LEVEL_SIZE__065_L > MAX_LEVEL_SIZE
      3  4329				  -MAX_LEVEL_SIZE SET	LEVEL_SIZE__065_L
      4  4329					      ENDIF
      0  4329					      DEFL	_065_R, "3-5#2-|4#.2-#2-|#2-#2.$#2-|#2-$*.-3#|#2-$2.*$-#|2#3$.3-#|-#@$-.*2-#|-9#"
      0  4329					      START_LEVEL	_065_R
      1  4329				   LEVEL_START SET	*
      2  4329		       00 08	   BANK_LEVEL__065_R =	_CURRENT_BANK
      3  4329				   LEVEL__065_R SUBROUTINE
      4  4329				   MAX_LEVEL_NUMBER SET	MAX_LEVEL_NUMBER + 1
      5  4329
      2  4329		       33 2d 35 23*	      .byte.b	"3-5#2-|4#.2-#2-|#2-#2.$#2-|#2-$*.-3#|#2-$2.*$-#|2#3$.3-#|-#@$-.*2-#|-9#",0
      0  4371					      END_LEVEL	_065_R
      1  4371		       00 48	   LEVEL_SIZE__065_R =	* - LEVEL_START
      2  4371				  -	      IF	LEVEL_SIZE__065_R > MAX_LEVEL_SIZE
      3  4371				  -MAX_LEVEL_SIZE SET	LEVEL_SIZE__065_R
      4  4371					      ENDIF
      0  4371					      DEFL	_066_L, "10#3-|#5-#2-4#|#-$2#$*.*$2-#|#@-#-5.#-#|#-$#$2.-#3-#|#2-$2-7#|4#-$-$2-#2-|3-#6-#2-|3-8#2-"
      0  4371					      START_LEVEL	_066_L
      1  4371				   LEVEL_START SET	*
      2  4371		       00 08	   BANK_LEVEL__066_L =	_CURRENT_BANK
      3  4371				   LEVEL__066_L SUBROUTINE
      4  4371				   MAX_LEVEL_NUMBER SET	MAX_LEVEL_NUMBER + 1
      5  4371
      2  4371		       31 30 23 33*	      .byte.b	"10#3-|#5-#2-4#|#-$2#$*.*$2-#|#@-#-5.#-#|#-$#$2.-#3-#|#2-$2-7#|4#-$-$2-#2-|3-#6-#2-|3-8#2-",0
      0  43cb					      END_LEVEL	_066_L
      1  43cb		       00 5a	   LEVEL_SIZE__066_L =	* - LEVEL_START
      2  43cb				  -	      IF	LEVEL_SIZE__066_L > MAX_LEVEL_SIZE
      3  43cb				  -MAX_LEVEL_SIZE SET	LEVEL_SIZE__066_L
      4  43cb					      ENDIF
      0  43cb					      DEFL	_066_R, "2-5#5-|2-#3-2#4-|2-#4-#4-|2-#-*.$5#|2-#-2*2.-$-#|3#2$.#.2#-#|#2-@$.-$2#-#|#3-#6-#|12#"
      0  43cb					      START_LEVEL	_066_R
      1  43cb				   LEVEL_START SET	*
      2  43cb		       00 08	   BANK_LEVEL__066_R =	_CURRENT_BANK
      3  43cb				   LEVEL__066_R SUBROUTINE
      4  43cb				   MAX_LEVEL_NUMBER SET	MAX_LEVEL_NUMBER + 1
      5  43cb
      2  43cb		       32 2d 35 23*	      .byte.b	"2-5#5-|2-#3-2#4-|2-#4-#4-|2-#-*.$5#|2-#-2*2.-$-#|3#2$.#.2#-#|#2-@$.-$2#-#|#3-#6-#|12#",0
      0  4421					      END_LEVEL	_066_R
      1  4421		       00 56	   LEVEL_SIZE__066_R =	* - LEVEL_START
      2  4421				  -	      IF	LEVEL_SIZE__066_R > MAX_LEVEL_SIZE
      3  4421				  -MAX_LEVEL_SIZE SET	LEVEL_SIZE__066_R
      4  4421					      ENDIF
      0  4421					      DEFL	_067_L, "8#3-|#3-@2-#3-|#-2$-2$4#|#2-2#$-$-.#|#-$2#-.*#.#|#2-2#-*.*.#|#2-2#-.-.-#|11#"
      0  4421					      START_LEVEL	_067_L
      1  4421				   LEVEL_START SET	*
      2  4421		       00 08	   BANK_LEVEL__067_L =	_CURRENT_BANK
      3  4421				   LEVEL__067_L SUBROUTINE
      4  4421				   MAX_LEVEL_NUMBER SET	MAX_LEVEL_NUMBER + 1
      5  4421
      2  4421		       38 23 33 2d*	      .byte.b	"8#3-|#3-@2-#3-|#-2$-2$4#|#2-2#$-$-.#|#-$2#-.*#.#|#2-2#-*.*.#|#2-2#-.-.-#|11#",0
      0  446e					      END_LEVEL	_067_L
      1  446e		       00 4d	   LEVEL_SIZE__067_L =	* - LEVEL_START
      2  446e				  -	      IF	LEVEL_SIZE__067_L > MAX_LEVEL_SIZE
      3  446e				  -MAX_LEVEL_SIZE SET	LEVEL_SIZE__067_L
      4  446e					      ENDIF
      0  446e					      DEFL	_067_R, "7#2-4#|#5-2#-#2-#|#-2$2-.3#$-#|2#2-#$*2.3-#|-2#2-*2.#$#-#|2-2#+*2.#-$-#|3-#-$-$3-2#|3-4#3-2#-|6-5#2-"
      0  446e					      START_LEVEL	_067_R
      1  446e				   LEVEL_START SET	*
      2  446e		       00 08	   BANK_LEVEL__067_R =	_CURRENT_BANK
      3  446e				   LEVEL__067_R SUBROUTINE
      4  446e				   MAX_LEVEL_NUMBER SET	MAX_LEVEL_NUMBER + 1
      5  446e
      2  446e		       37 23 32 2d*	      .byte.b	"7#2-4#|#5-2#-#2-#|#-2$2-.3#$-#|2#2-#$*2.3-#|-2#2-*2.#$#-#|2-2#+*2.#-$-#|3-#-$-$3-2#|3-4#3-2#-|6-5#2-",0
      0  44d3					      END_LEVEL	_067_R
      1  44d3		       00 65	   LEVEL_SIZE__067_R =	* - LEVEL_START
      2  44d3					      IF	LEVEL_SIZE__067_R > MAX_LEVEL_SIZE
      3  44d3				   MAX_LEVEL_SIZE SET	LEVEL_SIZE__067_R
      4  44d3					      ENDIF
      0  44d3					      DEFL	_068_L, "10#|#2-#5-#|#-$#$-$2-#|#-$2-$.2-#|#2-#.*.$2#|#-$#.2*-#-|2#@*3.2#-|-2#-*2-#2-|2-6#2-"
      0  44d3					      START_LEVEL	_068_L
      1  44d3				   LEVEL_START SET	*
      2  44d3		       00 08	   BANK_LEVEL__068_L =	_CURRENT_BANK
      3  44d3				   LEVEL__068_L SUBROUTINE
      4  44d3				   MAX_LEVEL_NUMBER SET	MAX_LEVEL_NUMBER + 1
      5  44d3
      2  44d3		       31 30 23 7c*	      .byte.b	"10#|#2-#5-#|#-$#$-$2-#|#-$2-$.2-#|#2-#.*.$2#|#-$#.2*-#-|2#@*3.2#-|-2#-*2-#2-|2-6#2-",0
      0  4527					      END_LEVEL	_068_L
      1  4527		       00 54	   LEVEL_SIZE__068_L =	* - LEVEL_START
      2  4527				  -	      IF	LEVEL_SIZE__068_L > MAX_LEVEL_SIZE
      3  4527				  -MAX_LEVEL_SIZE SET	LEVEL_SIZE__068_L
      4  4527					      ENDIF
      0  4527					      DEFL	_068_R, "5-5#-|3-3#3-#-|3-#2-$2-#-|4#*-2$3#|#3.*.#3-#|#.#.*.#-$-#|#$#-$@$2-2#|#3-3#2-#-|5#-4#-"
      0  4527					      START_LEVEL	_068_R
      1  4527				   LEVEL_START SET	*
      2  4527		       00 08	   BANK_LEVEL__068_R =	_CURRENT_BANK
      3  4527				   LEVEL__068_R SUBROUTINE
      4  4527				   MAX_LEVEL_NUMBER SET	MAX_LEVEL_NUMBER + 1
      5  4527
      2  4527		       35 2d 35 23*	      .byte.b	"5-5#-|3-3#3-#-|3-#2-$2-#-|4#*-2$3#|#3.*.#3-#|#.#.*.#-$-#|#$#-$@$2-2#|#3-3#2-#-|5#-4#-",0
      0  457d					      END_LEVEL	_068_R
      1  457d		       00 56	   LEVEL_SIZE__068_R =	* - LEVEL_START
      2  457d				  -	      IF	LEVEL_SIZE__068_R > MAX_LEVEL_SIZE
      3  457d				  -MAX_LEVEL_SIZE SET	LEVEL_SIZE__068_R
      4  457d					      ENDIF
      0  457d					      DEFL	_069_L, "-6#3-|-#2-$.3#-|-#2-*2.-#-|2#$#.-.-2#|#-$2-#2.-#|#@2$2#-$-#|#-$6-#|7#2-#|6-4#"
      0  457d					      START_LEVEL	_069_L
      1  457d				   LEVEL_START SET	*
      2  457d		       00 08	   BANK_LEVEL__069_L =	_CURRENT_BANK
      3  457d				   LEVEL__069_L SUBROUTINE
      4  457d				   MAX_LEVEL_NUMBER SET	MAX_LEVEL_NUMBER + 1
      5  457d
      2  457d		       2d 36 23 33*	      .byte.b	"-6#3-|-#2-$.3#-|-#2-*2.-#-|2#$#.-.-2#|#-$2-#2.-#|#@2$2#-$-#|#-$6-#|7#2-#|6-4#",0
      0  45cb					      END_LEVEL	_069_L
      1  45cb		       00 4e	   LEVEL_SIZE__069_L =	* - LEVEL_START
      2  45cb				  -	      IF	LEVEL_SIZE__069_L > MAX_LEVEL_SIZE
      3  45cb				  -MAX_LEVEL_SIZE SET	LEVEL_SIZE__069_L
      4  45cb					      ENDIF
      0  45cb					      DEFL	_069_R, "2-5#4-|-2#3-5#|2#@$-2$3-#|#-$#2-$.*.#|#2-#2-2*2.#|#-$2-#.-3#|4#2-.2#2-|3-5#3-"
      0  45cb					      START_LEVEL	_069_R
      1  45cb				   LEVEL_START SET	*
      2  45cb		       00 08	   BANK_LEVEL__069_R =	_CURRENT_BANK
      3  45cb				   LEVEL__069_R SUBROUTINE
      4  45cb				   MAX_LEVEL_NUMBER SET	MAX_LEVEL_NUMBER + 1
      5  45cb
      2  45cb		       32 2d 35 23*	      .byte.b	"2-5#4-|-2#3-5#|2#@$-2$3-#|#-$#2-$.*.#|#2-#2-2*2.#|#-$2-#.-3#|4#2-.2#2-|3-5#3-",0
      0  4619					      END_LEVEL	_069_R
      1  4619		       00 4e	   LEVEL_SIZE__069_R =	* - LEVEL_START
      2  4619				  -	      IF	LEVEL_SIZE__069_R > MAX_LEVEL_SIZE
      3  4619				  -MAX_LEVEL_SIZE SET	LEVEL_SIZE__069_R
      4  4619					      ENDIF
     60  4619
      0  4619					      DEFL	_122_Maya, "14#|4#3-3#2-2#|#-$-$2-2#3-2#|#.2-$4#$2-2#|#.*2-$3-$-3#|#*.#$*.$-#2$-#|#6.*-#-@-#|2#4-8#|14#"
      0  4619					      START_LEVEL	_122_Maya
      1  4619				   LEVEL_START SET	*
      2  4619		       00 08	   BANK_LEVEL__122_Maya =	_CURRENT_BANK
      3  4619				   LEVEL__122_Maya SUBROUTINE
      4  4619				   MAX_LEVEL_NUMBER SET	MAX_LEVEL_NUMBER + 1
      5  4619
      2  4619		       31 34 23 7c*	      .byte.b	"14#|4#3-3#2-2#|#-$-$2-2#3-2#|#.2-$4#$2-2#|#.*2-$3-$-3#|#*.#$*.$-#2$-#|#6.*-#-@-#|2#4-8#|14#",0
      0  4675					      END_LEVEL	_122_Maya
      1  4675		       00 5c	   LEVEL_SIZE__122_Maya =	* - LEVEL_START
      2  4675				  -	      IF	LEVEL_SIZE__122_Maya > MAX_LEVEL_SIZE
      3  4675				  -MAX_LEVEL_SIZE SET	LEVEL_SIZE__122_Maya
      4  4675					      ENDIF
     62  4675
      0  4675					      CHECK_BANK_SIZE	"LEVELS5 -- full 2K"
      1  4675		       06 75	   .TEMP      =	* - BANK_START
 LEVELS5 -- full 2K (2K) SIZE =  $675 , FREE= $18b
      2  4675					      ECHO	"LEVELS5 -- full 2K", "(2K) SIZE = ", .TEMP, ", FREE=", ROM_BANK_SIZE - .TEMP
      3  4675				  -	      if	( .TEMP ) > ROM_BANK_SIZE
      4  4675				  -	      ECHO	"BANK OVERFLOW @ ", * - ORIGIN
      5  4675				  -	      ERR
      6  4675					      endif
------- FILE ./sokoboo.asm
------- FILE BANK_LEVELS6.asm LEVEL 2 PASS 4
      0  4675					      include	"BANK_LEVELS6.asm"
      1  4675							;    Sokoboo - a Sokoban implementation
      2  4675							;    using a generic tile-based display engine for the Atari 2600
      3  4675							;    Sokoban (倉庫番)™ is © Falcon Co., Ltd.
      4  4675							;
      5  4675							;    Code related to this Sokoban™ implementation was developed by Andrew Davie.
      6  4675							;
      7  4675							;    Code related to the generic tile-based display engine was developed by
      8  4675							;    Andrew Davie and Thomas Jentzsch during 2003-2011 and is
      9  4675							;    Copyright(C)2003-2019 Thomas Jentzsch and Andrew Davie - contacts details:
     10  4675							;    Andrew Davie (andrew@taswegian.com), Thomas Jentzsch (tjentzsch@yahoo.de).
     11  4675							;
     12  4675							;    Code related to music and sound effects uses the TIATracker music player
     13  4675							;    Copyright 2016 Andre "Kylearan" Wichmann - see source code in the "sound"
     14  4675							;    directory for Apache licensing details.
     15  4675							;
     16  4675							;    Some level data incorporated in this program were created by Lee J Haywood.
     17  4675							;    See the copyright notices in the License directory for a list of level
     18  4675							;    contributors.
     19  4675							;
     20  4675							;    Except where otherwise indicated, this software is released under the
     21  4675							;    following licensing arrangement...
     22  4675							;
     23  4675							;    This program is free software: you can redistribute it and/or modify
     24  4675							;    it under the terms of the GNU General Public License as published by
     25  4675							;    the Free Software Foundation, either version 3 of the License, or
     26  4675							;    (at your option) any later version.
     27  4675							;    see https://www.gnu.org/licenses/gpl-3.0.en.html
     28  4675
     29  4675							;    This program is distributed in the hope that it will be useful,
     30  4675							;    but WITHOUT ANY WARRANTY; without even the implied warranty of
     31  4675							;    MERCHANTABILITY or FITNESS FOR A PARTICULAR PURPOSE.  See the
     32  4675							;    GNU General Public License for more details.
     33  4675
     34  4675							; level definitions
     35  4675							; Sample level definitions.
     36  4675							; Any level can be in any bank.  System auto-calculates required bank buffer size in RAM.
     37  4675							; have as many banks as you like.
     38  4675
      0  4675					      NEWBANK	LEVELS6
      1  4d9f ????				      SEG	LEVELS6
      2  4800					      ORG	ORIGIN
      3  4800					      RORG	$F000
      4  4800				   BANK_START SET	*
      5  4800				   LEVELS6    SET	ORIGIN / 2048
      6  4800				   ORIGIN     SET	ORIGIN + 2048
      7  4800				   _CURRENT_BANK SET	LEVELS6
     40  4800
     41  4800
     42  4800							; Level definitions
     43  4800
     44  4800							; "sokhard" collection
     45  4800
      0  4800					      START_LEVEL	_102_Natalie
      1  4800				   LEVEL_START SET	*
      2  4800		       00 09	   BANK_LEVEL__102_Natalie =	_CURRENT_BANK
      3  4800				   LEVEL__102_Natalie SUBROUTINE
      4  4800				   MAX_LEVEL_NUMBER SET	MAX_LEVEL_NUMBER + 1
      5  4800
     47  4800		       31 31 23 7c*	      .byte.b	"11#|2#2-#@4.#|2#3-2$.2*#|2#-$2-2$#.#|#2-$#-#2-.#|#2-$-#-2#-#|#9-#|11#",0
      0  4846					      END_LEVEL	_102_Natalie
      1  4846		       00 46	   LEVEL_SIZE__102_Natalie =	* - LEVEL_START
      2  4846				  -	      IF	LEVEL_SIZE__102_Natalie > MAX_LEVEL_SIZE
      3  4846				  -MAX_LEVEL_SIZE SET	LEVEL_SIZE__102_Natalie
      4  4846					      ENDIF
     49  4846
      0  4846					      START_LEVEL	_102_Mirabel
      1  4846				   LEVEL_START SET	*
      2  4846		       00 09	   BANK_LEVEL__102_Mirabel =	_CURRENT_BANK
      3  4846				   LEVEL__102_Mirabel SUBROUTINE
      4  4846				   MAX_LEVEL_NUMBER SET	MAX_LEVEL_NUMBER + 1
      5  4846
     51  4846		       31 31 23 7c*	      .byte.b	"11#|6#3-2#|2#2-2#$2-2#|2#2-#-2$-2#|#7-3#|#.-#$-#-3#|#.#.-#2-$-#|#3.#-2$#@#|#-2.4-$-#|#2-8#|11#",0
      0  48a5					      END_LEVEL	_102_Mirabel
      1  48a5		       00 5f	   LEVEL_SIZE__102_Mirabel =	* - LEVEL_START
      2  48a5				  -	      IF	LEVEL_SIZE__102_Mirabel > MAX_LEVEL_SIZE
      3  48a5				  -MAX_LEVEL_SIZE SET	LEVEL_SIZE__102_Mirabel
      4  48a5					      ENDIF
     53  48a5
      0  48a5					      START_LEVEL	_102_Oralia
      1  48a5				   LEVEL_START SET	*
      2  48a5		       00 09	   BANK_LEVEL__102_Oralia =	_CURRENT_BANK
      3  48a5				   LEVEL__102_Oralia SUBROUTINE
      4  48a5				   MAX_LEVEL_NUMBER SET	MAX_LEVEL_NUMBER + 1
      5  48a5
     55  48a5		       39 23 7c 23*	      .byte.b	"9#|#2.$.#2-#|#4.2*-#|#-$.2#2-#|2#-$2-$-#|4#$-$-#|#-$3-$-#|#5-#@#|9#",0
      0  48e9					      END_LEVEL	_102_Oralia
      1  48e9		       00 44	   LEVEL_SIZE__102_Oralia =	* - LEVEL_START
      2  48e9				  -	      IF	LEVEL_SIZE__102_Oralia > MAX_LEVEL_SIZE
      3  48e9				  -MAX_LEVEL_SIZE SET	LEVEL_SIZE__102_Oralia
      4  48e9					      ENDIF
     57  48e9
     58  48e9
     59  48e9							;---------------------------------------------------------------------------------------------------
     60  48e9							; IMAGE IS ABOVE DEFINITION
     61  48e9
     62  48e9							;  ###########
     63  48e9							;  #  #      #
     64  48e9							;  # $# $ $$ #
     65  48e9							;  #  ##$#$  #
     66  48e9							;  #  $    #@#
     67  48e9							;  # $## #  ##
     68  48e9							;  ##	# .## #
     69  48e9							;  ##$ #.*. ##
     70  48e9							;  # ..*. *. #
     71  48e9							;  # # .. #  #
     72  48e9							;  ###########
     73  48e9
      0  48e9					      START_LEVEL	_102_Raven
      1  48e9				   LEVEL_START SET	*
      2  48e9		       00 09	   BANK_LEVEL__102_Raven =	_CURRENT_BANK
      3  48e9				   LEVEL__102_Raven SUBROUTINE
      4  48e9				   MAX_LEVEL_NUMBER SET	MAX_LEVEL_NUMBER + 1
      5  48e9
     75  48e9		       31 31 23 7c*	      .byte.b	"11#|#2-#6-#|#-$#-$-2$-#|#2-2#$#$2-#|#2-$4-#@#|#-$2#-#2-2#|2#2-#-.2#-#|2#$-#.*.-2#|#-2.*.-*.-#|#-#-2.-#2-#|11#",0
      0  4957					      END_LEVEL	_102_Raven
      1  4957		       00 6e	   LEVEL_SIZE__102_Raven =	* - LEVEL_START
      2  4957					      IF	LEVEL_SIZE__102_Raven > MAX_LEVEL_SIZE
      3  4957				   MAX_LEVEL_SIZE SET	LEVEL_SIZE__102_Raven
      4  4957					      ENDIF
     77  4957
     78  4957							;  ############
     79  4957							;  #@##. #  # #
     80  4957							;  #**..$#    #
     81  4957							;  #. $..#  # #
     82  4957							;  # $#.$#$$$ #
     83  4957							;  #	      ##
     84  4957							;  #  ##  #   #
     85  4957							;  ############
     86  4957
      0  4957					      START_LEVEL	_103_Adin
      1  4957				   LEVEL_START SET	*
      2  4957		       00 09	   BANK_LEVEL__103_Adin =	_CURRENT_BANK
      3  4957				   LEVEL__103_Adin SUBROUTINE
      4  4957				   MAX_LEVEL_NUMBER SET	MAX_LEVEL_NUMBER + 1
      5  4957
     88  4957		       31 32 23 7c*	      .byte.b	"12#|#@2#.-#2-#-#|#2*2.$#4-#|#.-$2.#2-#-#|#-$#.$#3$-#|#9-2#|#2-2#2-#3-#|12#",0
      0  49a2					      END_LEVEL	_103_Adin
      1  49a2		       00 4b	   LEVEL_SIZE__103_Adin =	* - LEVEL_START
      2  49a2				  -	      IF	LEVEL_SIZE__103_Adin > MAX_LEVEL_SIZE
      3  49a2				  -MAX_LEVEL_SIZE SET	LEVEL_SIZE__103_Adin
      4  49a2					      ENDIF
     90  49a2
     91  49a2							;  #######___
     92  49a2							;  #	  #___
     93  49a2							;  #	$$#___
     94  49a2							;  #.*  .#___
     95  49a2							;  #$*$#*###_
     96  49a2							;  #@*... .#_
     97  49a2							;  #####$ .##
     98  49a2							;  ___# $ $ #
     99  49a2							;  ___#     #
    100  49a2							;  ___#######	(_ = modified by boo from wall)
    101  49a2
      0  49a2					      START_LEVEL	_103_Ajalae
      1  49a2				   LEVEL_START SET	*
      2  49a2		       00 09	   BANK_LEVEL__103_Ajalae =	_CURRENT_BANK
      3  49a2				   LEVEL__103_Ajalae SUBROUTINE
      4  49a2				   MAX_LEVEL_NUMBER SET	MAX_LEVEL_NUMBER + 1
      5  49a2
    103  49a2		       37 23 7c 23*	      .byte.b	"7#|#5-#|#3-2$#|#.*2-.#|#$*$#*3#|#@*3.-.#|5#$-.2#|3-#-$-$-#|3-#5-#|3-7#",0
      0  49e9					      END_LEVEL	_103_Ajalae
      1  49e9		       00 47	   LEVEL_SIZE__103_Ajalae =	* - LEVEL_START
      2  49e9				  -	      IF	LEVEL_SIZE__103_Ajalae > MAX_LEVEL_SIZE
      3  49e9				  -MAX_LEVEL_SIZE SET	LEVEL_SIZE__103_Ajalae
      4  49e9					      ENDIF
    105  49e9
    106  49e9							;  ############
    107  49e9							;  #@#  #     #
    108  49e9							;  #  # #$#$# #
    109  49e9							;  # *$       #
    110  49e9							;  #..##$#$   #
    111  49e9							;  #..#. #  $ #
    112  49e9							;  #....# $$$##
    113  49e9							;  #	       #
    114  49e9							;  ############
    115  49e9
      0  49e9					      START_LEVEL	_103_Arielle
      1  49e9				   LEVEL_START SET	*
      2  49e9		       00 09	   BANK_LEVEL__103_Arielle =	_CURRENT_BANK
      3  49e9				   LEVEL__103_Arielle SUBROUTINE
      4  49e9				   MAX_LEVEL_NUMBER SET	MAX_LEVEL_NUMBER + 1
      5  49e9
    117  49e9		       31 32 23 7c*	      .byte.b	"12#|#@#2-#5-#|#2-#-#$#$#-#|#-*$7-#|#2.2#$#$3-#|#2.#.-#2-$-#|#4.#-3$2#|#10-#|12#",0
      0  4a39					      END_LEVEL	_103_Arielle
      1  4a39		       00 50	   LEVEL_SIZE__103_Arielle =	* - LEVEL_START
      2  4a39				  -	      IF	LEVEL_SIZE__103_Arielle > MAX_LEVEL_SIZE
      3  4a39				  -MAX_LEVEL_SIZE SET	LEVEL_SIZE__103_Arielle
      4  4a39					      ENDIF
    119  4a39
    120  4a39
    121  4a39
      0  4a39					      START_LEVEL	_1XJH_Tara_Gelson
      1  4a39				   LEVEL_START SET	*
      2  4a39		       00 09	   BANK_LEVEL__1XJH_Tara_Gelson =	_CURRENT_BANK
      3  4a39				   LEVEL__1XJH_Tara_Gelson SUBROUTINE
      4  4a39				   MAX_LEVEL_NUMBER SET	MAX_LEVEL_NUMBER + 1
      5  4a39
    123  4a39		       38 23 7c 23*	      .byte.b	"8#|#2-#2-*#|#2-*-*-#|#-*$-$-#|#2-.#.-#|#3-#-*#|2#-@3-#|8#",0
      0  4a73					      END_LEVEL	_1XJH_Tara_Gelson
      1  4a73		       00 3a	   LEVEL_SIZE__1XJH_Tara_Gelson =	* - LEVEL_START
      2  4a73				  -	      IF	LEVEL_SIZE__1XJH_Tara_Gelson > MAX_LEVEL_SIZE
      3  4a73				  -MAX_LEVEL_SIZE SET	LEVEL_SIZE__1XJH_Tara_Gelson
      4  4a73					      ENDIF
    125  4a73
      0  4a73					      START_LEVEL	_1R7X_Alison
      1  4a73				   LEVEL_START SET	*
      2  4a73		       00 09	   BANK_LEVEL__1R7X_Alison =	_CURRENT_BANK
      3  4a73				   LEVEL__1R7X_Alison SUBROUTINE
      4  4a73				   MAX_LEVEL_NUMBER SET	MAX_LEVEL_NUMBER + 1
      5  4a73
    127  4a73		       37 23 7c 23*	      .byte.b	"7#|#2-.2-#|#-$*2$#|#-2.$.#|#@*-$-#|2#.3-#|7#",0
      0  4aa0					      END_LEVEL	_1R7X_Alison
      1  4aa0		       00 2d	   LEVEL_SIZE__1R7X_Alison =	* - LEVEL_START
      2  4aa0				  -	      IF	LEVEL_SIZE__1R7X_Alison > MAX_LEVEL_SIZE
      3  4aa0				  -MAX_LEVEL_SIZE SET	LEVEL_SIZE__1R7X_Alison
      4  4aa0					      ENDIF
    129  4aa0
      0  4aa0					      START_LEVEL	_1KWD_Cecile_Clayworth
      1  4aa0				   LEVEL_START SET	*
      2  4aa0		       00 09	   BANK_LEVEL__1KWD_Cecile_Clayworth =	_CURRENT_BANK
      3  4aa0				   LEVEL__1KWD_Cecile_Clayworth SUBROUTINE
      4  4aa0				   MAX_LEVEL_NUMBER SET	MAX_LEVEL_NUMBER + 1
      5  4aa0
    131  4aa0		       38 23 7c 33*	      .byte.b	"8#|3#.2-.#|#-$4-#|#-*2#2$#|#3-$-+#|#-*.-*-#|#6-#|8#",0
      0  4ad4					      END_LEVEL	_1KWD_Cecile_Clayworth
      1  4ad4		       00 34	   LEVEL_SIZE__1KWD_Cecile_Clayworth =	* - LEVEL_START
      2  4ad4				  -	      IF	LEVEL_SIZE__1KWD_Cecile_Clayworth > MAX_LEVEL_SIZE
      3  4ad4				  -MAX_LEVEL_SIZE SET	LEVEL_SIZE__1KWD_Cecile_Clayworth
      4  4ad4					      ENDIF
    133  4ad4
      0  4ad4					      START_LEVEL	_1EKT_Samantha_Gelson
      1  4ad4				   LEVEL_START SET	*
      2  4ad4		       00 09	   BANK_LEVEL__1EKT_Samantha_Gelson =	_CURRENT_BANK
      3  4ad4				   LEVEL__1EKT_Samantha_Gelson SUBROUTINE
      4  4ad4				   MAX_LEVEL_NUMBER SET	MAX_LEVEL_NUMBER + 1
      5  4ad4
    135  4ad4		       38 23 7c 23*	      .byte.b	"8#|#-*3-.#|#2-$-*-#|#-.$-$-#|#*-*2-*#|#.#-#2-#|#4-@-#|8#",0
      0  4b0d					      END_LEVEL	_1EKT_Samantha_Gelson
      1  4b0d		       00 39	   LEVEL_SIZE__1EKT_Samantha_Gelson =	* - LEVEL_START
      2  4b0d				  -	      IF	LEVEL_SIZE__1EKT_Samantha_Gelson > MAX_LEVEL_SIZE
      3  4b0d				  -MAX_LEVEL_SIZE SET	LEVEL_SIZE__1EKT_Samantha_Gelson
      4  4b0d					      ENDIF
    137  4b0d
      0  4b0d					      START_LEVEL	_0VM5_Andrea_Wadd
      1  4b0d				   LEVEL_START SET	*
      2  4b0d		       00 09	   BANK_LEVEL__0VM5_Andrea_Wadd =	_CURRENT_BANK
      3  4b0d				   LEVEL__0VM5_Andrea_Wadd SUBROUTINE
      4  4b0d				   MAX_LEVEL_NUMBER SET	MAX_LEVEL_NUMBER + 1
      5  4b0d
    139  4b0d		       37 23 7c 23*	      .byte.b	"7#|#3-#-#|#-$*2-#|#-.-+-#|#-*2$-#|2#2-.-#|7#",0
      0  4b3a					      END_LEVEL	_0VM5_Andrea_Wadd
      1  4b3a		       00 2d	   LEVEL_SIZE__0VM5_Andrea_Wadd =	* - LEVEL_START
      2  4b3a				  -	      IF	LEVEL_SIZE__0VM5_Andrea_Wadd > MAX_LEVEL_SIZE
      3  4b3a				  -MAX_LEVEL_SIZE SET	LEVEL_SIZE__0VM5_Andrea_Wadd
      4  4b3a					      ENDIF
    141  4b3a
      0  4b3a					      START_LEVEL	_0PAL_Jill_Leatherby
      1  4b3a				   LEVEL_START SET	*
      2  4b3a		       00 09	   BANK_LEVEL__0PAL_Jill_Leatherby =	_CURRENT_BANK
      3  4b3a				   LEVEL__0PAL_Jill_Leatherby SUBROUTINE
      4  4b3a				   MAX_LEVEL_NUMBER SET	MAX_LEVEL_NUMBER + 1
      5  4b3a
    143  4b3a		       37 23 7c 23*	      .byte.b	"7#|#3-3#|#2-2*-#|#3-$-#|#2-$2.#|3#@2-#|7#",0
      0  4b64					      END_LEVEL	_0PAL_Jill_Leatherby
      1  4b64		       00 2a	   LEVEL_SIZE__0PAL_Jill_Leatherby =	* - LEVEL_START
      2  4b64				  -	      IF	LEVEL_SIZE__0PAL_Jill_Leatherby > MAX_LEVEL_SIZE
      3  4b64				  -MAX_LEVEL_SIZE SET	LEVEL_SIZE__0PAL_Jill_Leatherby
      4  4b64					      ENDIF
    145  4b64
      0  4b64					      START_LEVEL	_0IZ1_Sophia
      1  4b64				   LEVEL_START SET	*
      2  4b64		       00 09	   BANK_LEVEL__0IZ1_Sophia =	_CURRENT_BANK
      3  4b64				   LEVEL__0IZ1_Sophia SUBROUTINE
      4  4b64				   MAX_LEVEL_NUMBER SET	MAX_LEVEL_NUMBER + 1
      5  4b64
    147  4b64		       37 23 7c 23*	      .byte.b	"7#|#5-#|#@$.#-#|#*$2-.#|#-2$2-#|#-.-.-#|7#",0
      0  4b8f					      END_LEVEL	_0IZ1_Sophia
      1  4b8f		       00 2b	   LEVEL_SIZE__0IZ1_Sophia =	* - LEVEL_START
      2  4b8f				  -	      IF	LEVEL_SIZE__0IZ1_Sophia > MAX_LEVEL_SIZE
      3  4b8f				  -MAX_LEVEL_SIZE SET	LEVEL_SIZE__0IZ1_Sophia
      4  4b8f					      ENDIF
    149  4b8f
      0  4b8f					      START_LEVEL	_0CNH_Alice
      1  4b8f				   LEVEL_START SET	*
      2  4b8f		       00 09	   BANK_LEVEL__0CNH_Alice =	_CURRENT_BANK
      3  4b8f				   LEVEL__0CNH_Alice SUBROUTINE
      4  4b8f				   MAX_LEVEL_NUMBER SET	MAX_LEVEL_NUMBER + 1
      5  4b8f
    151  4b8f		       37 23 7c 23*	      .byte.b	"7#|#.4-#|#$*-#-#|#.2-$*#|#-.$2-#|#@-*2-#|7#",0
      0  4bbb					      END_LEVEL	_0CNH_Alice
      1  4bbb		       00 2c	   LEVEL_SIZE__0CNH_Alice =	* - LEVEL_START
      2  4bbb				  -	      IF	LEVEL_SIZE__0CNH_Alice > MAX_LEVEL_SIZE
      3  4bbb				  -MAX_LEVEL_SIZE SET	LEVEL_SIZE__0CNH_Alice
      4  4bbb					      ENDIF
    153  4bbb
    154  4bbb							;  START_LEVEL TowC
    155  4bbb							;   .byte "4-5#|4-#3-#|4-#$2-#|2-3#2-$2#|2-#2-$-$-#|3#-#-2#-#3-6#|#3-#-2#-5#2-2.#|#-$2-$10-2.#|5#-3#-#@2#2-2.#|4-#5-9#|4-7#",0
    156  4bbb							;  END_LEVEL TowC
    157  4bbb
    158  4bbb							;  START_LEVEL SimpleC
    159  4bbb							;  .byte "7#|#.@-#-#|#$*-$-#|#3-$-#|#-..--#|#--*--#|7#",0
    160  4bbb							;  END_LEVEL SimpleC
    161  4bbb
      0  4bbb					      START_LEVEL	bAlfa_DrFogh
      1  4bbb				   LEVEL_START SET	*
      2  4bbb		       00 09	   BANK_LEVEL_bAlfa_DrFogh =	_CURRENT_BANK
      3  4bbb				   LEVEL_bAlfa_DrFogh SUBROUTINE
      4  4bbb				   MAX_LEVEL_NUMBER SET	MAX_LEVEL_NUMBER + 1
      5  4bbb
    163  4bbb		       32 2d 34 23*	      .byte.b	"2-4#2-4#|-2#2-2#-#2-#|-#4-3#2-2#|2#2-2*2-#.2-2#|#2-*2-*-#*#2-#|#-*4-2*2-#-#|#-*-2#-*3-#-#|2#-*2-*#*#-#-#|-#$-2*-#-*-#-#|-#@#2-2#5-#|-2#2-4#2-3#|2-#2-#2-4#|2-#2-#|2-4#",0
      0  4c62					      END_LEVEL	bAlfa_DrFogh
      1  4c62		       00 a7	   LEVEL_SIZE_bAlfa_DrFogh =	* - LEVEL_START
      2  4c62					      IF	LEVEL_SIZE_bAlfa_DrFogh > MAX_LEVEL_SIZE
      3  4c62				   MAX_LEVEL_SIZE SET	LEVEL_SIZE_bAlfa_DrFogh
      4  4c62					      ENDIF
    165  4c62
      0  4c62					      START_LEVEL	b51X_Sharpen
      1  4c62				   LEVEL_START SET	*
      2  4c62		       00 09	   BANK_LEVEL_b51X_Sharpen =	_CURRENT_BANK
      3  4c62				   LEVEL_b51X_Sharpen SUBROUTINE
      4  4c62				   MAX_LEVEL_NUMBER SET	MAX_LEVEL_NUMBER + 1
      5  4c62
    167  4c62		       2d 39 23 33*	      .byte.b	"-9#3-|-#7-#3-|-#-$-2$-$#3-|3#$#2-$-#3-|#.#3-2$-2#2-|#.3#3-$-#2-|#.#.-$-2#-3#|#3.$-$2#-$-#|#3.$3-$2-@#|#2.3#$3#-2#|#4.#5-#-|12#-",0
      0  4ce2					      END_LEVEL	b51X_Sharpen
      1  4ce2		       00 80	   LEVEL_SIZE_b51X_Sharpen =	* - LEVEL_START
      2  4ce2				  -	      IF	LEVEL_SIZE_b51X_Sharpen > MAX_LEVEL_SIZE
      3  4ce2				  -MAX_LEVEL_SIZE SET	LEVEL_SIZE_b51X_Sharpen
      4  4ce2					      ENDIF
    169  4ce2
      0  4ce2					      START_LEVEL	bDarcy_Burnsell101
      1  4ce2				   LEVEL_START SET	*
      2  4ce2		       00 09	   BANK_LEVEL_bDarcy_Burnsell101 =	_CURRENT_BANK
      3  4ce2				   LEVEL_bDarcy_Burnsell101 SUBROUTINE
      4  4ce2				   MAX_LEVEL_NUMBER SET	MAX_LEVEL_NUMBER + 1
      5  4ce2
    171  4ce2		       38 23 7c 23*	      .byte.b	"8#|#2-.-$@#|#.#$*2$#|#2-.-*-#|#2$-2$.#|#.#-#2-#|#.2-.-.#|8#",0
      0  4d1e					      END_LEVEL	bDarcy_Burnsell101
      1  4d1e		       00 3c	   LEVEL_SIZE_bDarcy_Burnsell101 =	* - LEVEL_START
      2  4d1e				  -	      IF	LEVEL_SIZE_bDarcy_Burnsell101 > MAX_LEVEL_SIZE
      3  4d1e				  -MAX_LEVEL_SIZE SET	LEVEL_SIZE_bDarcy_Burnsell101
      4  4d1e					      ENDIF
    173  4d1e
      0  4d1e					      START_LEVEL	bAislin101
      1  4d1e				   LEVEL_START SET	*
      2  4d1e		       00 09	   BANK_LEVEL_bAislin101 =	_CURRENT_BANK
      3  4d1e				   LEVEL_bAislin101 SUBROUTINE
      4  4d1e				   MAX_LEVEL_NUMBER SET	MAX_LEVEL_NUMBER + 1
      5  4d1e
    175  4d1e		       38 23 7c 32*	      .byte.b	"8#|2#-*-*.#|#2.$-$*#|#-.#-*.#|2#-$-$2#|#-#$-$-#|#2.2-$@#|8#",0
      0  4d5a					      END_LEVEL	bAislin101
      1  4d5a		       00 3c	   LEVEL_SIZE_bAislin101 =	* - LEVEL_START
      2  4d5a				  -	      IF	LEVEL_SIZE_bAislin101 > MAX_LEVEL_SIZE
      3  4d5a				  -MAX_LEVEL_SIZE SET	LEVEL_SIZE_bAislin101
      4  4d5a					      ENDIF
    177  4d5a
    178  4d5a							;  START_LEVEL b82X_Sharpen
    179  4d5a							;  .byte "-11#8-|-#5-#3-2#7-|-#-$-$-$-#2-5#3-|-3#2-5#5-#3-|-#4.#5-3#-#3-|-#.4#2-4#3-#3-|-#4.4-#2-$-2#3-|-#-3.#3-#-3$5#|3#.7#2-$@$3-#|#-$3-5#-$-2#3-#|#-#.#-$6-$3#$-#|#-#.8#2-#2-$-#|#-#3.7-2#-2$-#|#3-7#-$-#-#2-#|5#5-#7-2#|10-9#-",0
    180  4d5a							;  END_LEVEL b82X_Sharpen
    181  4d5a
      0  4d5a					      START_LEVEL	Thomas_Reinke16
      1  4d5a				   LEVEL_START SET	*
      2  4d5a		       00 09	   BANK_LEVEL_Thomas_Reinke16 =	_CURRENT_BANK
      3  4d5a				   LEVEL_Thomas_Reinke16 SUBROUTINE
      4  4d5a				   MAX_LEVEL_NUMBER SET	MAX_LEVEL_NUMBER + 1
      5  4d5a
    183  4d5a		       2d 35 23 7c*	      .byte.b	"-5#|2#3-3#|#6-2#|#-#-2#2-#|#2.*2-#-#|#2-*2-#-#|3#*2$2-#|2-#@-4#|2-4#",0
      0  4d9f					      END_LEVEL	Thomas_Reinke16
      1  4d9f		       00 45	   LEVEL_SIZE_Thomas_Reinke16 =	* - LEVEL_START
      2  4d9f				  -	      IF	LEVEL_SIZE_Thomas_Reinke16 > MAX_LEVEL_SIZE
      3  4d9f				  -MAX_LEVEL_SIZE SET	LEVEL_SIZE_Thomas_Reinke16
      4  4d9f					      ENDIF
    185  4d9f
    186  4d9f							;Level element	Character	ASCII Code
    187  4d9f							;Wall	#	0x23
    188  4d9f							;Player	@	0x40
    189  4d9f							;Player on goal square	+	0x2b
    190  4d9f							;Box	$	0x24
    191  4d9f							;Box on goal square	*	0x2a
    192  4d9f							;Goal square	.	0x2e
    193  4d9f							;Floor	(Space)	0x20 or underscore
    194  4d9f
    195  4d9f							;This level ("Claire", by Lee J Haywood):
    196  4d9f
    197  4d9f							;#######
    198  4d9f							;#.@ # #
    199  4d9f							;#$* $ #
    200  4d9f							;#   $ #
    201  4d9f							;# ..	#
    202  4d9f							;#  *	#
    203  4d9f							;#######
    204  4d9f							;runlength encoded looks like this:
    205  4d9f
    206  4d9f							;The rows of the level are separated by "|"s. There has been a discussion in the Yahoo Group about what character should represent an empty square in May 2006. Finally the hyphen has been elected to be the standard character for an empty square. Nevertheless, programs are encouraged to support both, hyphens and underscores.
    207  4d9f
    208  4d9f							;If only two level elements are grouped together they may be run length encoded, but needn't to. Example:
    209  4d9f
    210  4d9f
      0  4d9f					      CHECK_BANK_SIZE	"LEVELS6 -- full 2K"
      1  4d9f		       05 9f	   .TEMP      =	* - BANK_START
 LEVELS6 -- full 2K (2K) SIZE =  $59f , FREE= $261
      2  4d9f					      ECHO	"LEVELS6 -- full 2K", "(2K) SIZE = ", .TEMP, ", FREE=", ROM_BANK_SIZE - .TEMP
      3  4d9f				  -	      if	( .TEMP ) > ROM_BANK_SIZE
      4  4d9f				  -	      ECHO	"BANK OVERFLOW @ ", * - ORIGIN
      5  4d9f				  -	      ERR
      6  4d9f					      endif
------- FILE ./sokoboo.asm
------- FILE titleScreen.asm LEVEL 2 PASS 4
      0  4d9f					      include	"titleScreen.asm"
      0  4d9f					      NEWBANK	TITLESCREEN
      1  546b ????				      SEG	TITLESCREEN
      2  5000					      ORG	ORIGIN
      3  5000					      RORG	$F000
      4  5000				   BANK_START SET	*
      5  5000				   TITLESCREEN SET	ORIGIN / 2048
      6  5000				   ORIGIN     SET	ORIGIN + 2048
      7  5000				   _CURRENT_BANK SET	TITLESCREEN
      0  5000					      DEFINE_SUBROUTINE	TitleScreen
      1  5000		       00 0a	   BANK_TitleScreen =	_CURRENT_BANK
      2  5000					      SUBROUTINE
      3  5000				   TitleScreen
      3  5000
      4  5000							; Start of new frame
      5  5000
      6  5000							; Start of vertical blank processing
      7  5000
      8  5000				   TitleSequence
      9  5000
     10  5000		       a9 00		      lda	#%00000000
     11  5002		       85 4a		      sta	CTRLPF
     12  5004		       85 49		      sta	COLUBK
     13  5006
     14  5006		       a6 81		      ldx	Platform
     15  5008		       bd a7 f0 	      lda	colvec,x
     16  500b		       85 e1		      sta	colour_table
     17  500d		       bd a8 f0 	      lda	colvec+1,x
     18  5010		       85 e2		      sta	colour_table+1
     19  5012
      0  5012					      RESYNC
      1  5012
      2  5012		       a9 02		      lda	#%10
      3  5014		       85 41		      sta	VBLANK
      4  5016
      5  5016		       a2 08		      ldx	#8
      6  5018				   .loopResync
      0  5018					      VERTICAL_SYNC
      1  5018		       a9 0e		      lda	#%1110
      2  501a		       85 42	   .VSLP1     sta	WSYNC
      3  501c		       85 40		      sta	VSYNC
      4  501e		       4a		      lsr
      5  501f		       d0 f9		      bne	.VSLP1
      8  5021
      9  5021		       a0 88		      ldy	#SCANLINES_NTSC/2 - 2
     10  5023		       a5 81		      lda	Platform
     11  5025		       49 02		      eor	#PAL_50
     12  5027		       d0 02		      bne	.ntsc
     13  5029		       a0 9a		      ldy	#SCANLINES_PAL/2 - 2
     14  502b				   .ntsc
     15  502b				   .loopWait
     16  502b		       85 42		      sta	WSYNC
     17  502d		       85 42		      sta	WSYNC
     18  502f		       88		      dey
     19  5030		       d0 f9		      bne	.loopWait
     20  5032		       ca		      dex
     21  5033		       d0 e3		      bne	.loopResync
     21  5035
     22  5035				   RestartFrame
     23  5035		       a9 0e		      lda	#%1110	; VSYNC ON
     24  5037		       85 42	   .loopVSync2 sta	WSYNC
     25  5039		       85 40		      sta	VSYNC
     26  503b		       4a		      lsr
     27  503c		       d0 f9		      bne	.loopVSync2	; branch until VYSNC has been reset
     28  503e
     29  503e							;------------------------------------------------------------------
     30  503e
     31  503e		       a6 81		      ldx	Platform
     32  5040		       bc 32 fd 	      ldy	VBlankTime,x
     33  5043		       8c 96 02 	      sty	TIM64T
     34  5046
     35  5046		       85 42	   VerticalBlank sta	WSYNC
     36  5048		       ad 84 02 	      lda	INTIM
     37  504b		       d0 f9		      bne	VerticalBlank
     38  504d		       85 41		      sta	VBLANK
     39  504f
     40  504f
     41  504f							;------------------------------------------------------------------
     42  504f
     43  504f							; Do X scanlines of color-changing (our picture)
     44  504f
     45  504f		       a0 77		      ldy	#119	; this counts our scanline number
     46  5051		       a2 03	   SokoLogo   ldx	#3
     47  5053		       b1 e1	   triplet    lda	(colour_table),y
     48  5055		       85 42		      sta	WSYNC
     49  5057		       85 48		      sta	COLUPF	; 3
     50  5059
     51  5059		       b9 9b f1 	      lda	COL_0,y	; 5
     52  505c		       85 4d		      sta	PF0	; 3   @11
     53  505e		       b9 13 f2 	      lda	COL_1,y	; 5
     54  5061		       85 4e		      sta	PF1	; 3   @19
     55  5063		       b9 8b f2 	      lda	COL_2,y	; 5
     56  5066		       85 4f		      sta	PF2	; 3   @27
     57  5068
     58  5068		       b9 03 f3 	      lda	COL_3,y	; 5
     59  506b		       85 4d		      sta	PF0	; 3   @35
      0  506d					      SLEEP	2	; @37
      1  506d				   .CYCLES    SET	2
      2  506d
      3  506d				  -	      IF	.CYCLES < 2
      4  506d				  -	      ECHO	"MACRO ERROR: 'SLEEP': Duration must be > 1"
      5  506d				  -	      ERR
      6  506d					      ENDIF
      7  506d
      8  506d				  -	      IF	.CYCLES & 1
      9  506d				  -	      IFNCONST	NO_ILLEGAL_OPCODES
     10  506d				  -	      nop	0
     11  506d				  -	      ELSE
     12  506d				  -	      bit	VSYNC
     13  506d				  -	      ENDIF
     14  506d				  -.CYCLES    SET	.CYCLES - 3
     15  506d					      ENDIF
     16  506d
     17  506d					      REPEAT	.CYCLES / 2
     18  506d		       ea		      nop
     19  506e					      REPEND
     61  506e		       b9 7b f3 	      lda	COL_4,y	; 5
     62  5071		       85 4e		      sta	PF1	; 3   @45
      0  5073					      SLEEP	3	; @45
      1  5073				   .CYCLES    SET	3
      2  5073
      3  5073				  -	      IF	.CYCLES < 2
      4  5073				  -	      ECHO	"MACRO ERROR: 'SLEEP': Duration must be > 1"
      5  5073				  -	      ERR
      6  5073					      ENDIF
      7  5073
      8  5073					      IF	.CYCLES & 1
      9  5073					      IFNCONST	NO_ILLEGAL_OPCODES
     10  5073		       04 00		      nop	0
     11  5075				  -	      ELSE
     12  5075				  -	      bit	VSYNC
     13  5075					      ENDIF
     14  5075				   .CYCLES    SET	.CYCLES - 3
     15  5075					      ENDIF
     16  5075
     17  5075				  -	      REPEAT	.CYCLES / 2
     18  5075				  -	      nop
     19  5075					      REPEND
     64  5075		       b9 f3 f3 	      lda	COL_5,y	; 5
     65  5078		       85 4f		      sta	PF2	; 3
     66  507a
     67  507a		       88		      dey		; 2
     68  507b		       ca		      dex		; 2
     69  507c		       d0 d5		      bne	triplet	; 2(3)
     70  507e
     71  507e		       c0 ff		      cpy	#-1	; 2
     72  5080		       d0 cf		      bne	SokoLogo	; 2(3)
     73  5082
     74  5082		       a9 00		      lda	#0
     75  5084		       85 4d		      sta	PF0
     76  5086		       85 4e		      sta	PF1
     77  5088		       85 4f		      sta	PF2
     78  508a
     79  508a		       a6 81		      ldx	Platform
     80  508c		       bd a3 f0 	      lda	OverscanTime2,x
     81  508f		       8d 96 02 	      sta	TIM64T
     82  5092
     83  5092				  -	      if	0
     84  5092				  -	      sta	WSYNC
     85  5092				  -	      sta	WSYNC
     86  5092				  -	      sta	WSYNC
     87  5092				  -	      sta	WSYNC
     88  5092				  -	      sta	WSYNC
     89  5092				  -	      SLEEP	8
     90  5092				  -	      jsr	SokoScreen
     91  5092				  -
     92  5092				  -	      lda	#0
     93  5092				  -	      sta	BoardScrollX
     94  5092				  -	      sta	BoardScrollY
     95  5092					      endif
     96  5092
     97  5092							;		ldy #63
     98  5092							;bot2		 sta WSYNC
     99  5092							;		dey
    100  5092							;		bpl bot2
    101  5092
    102  5092							;--------------------------------------------------------------------------
    103  5092
    104  5092							;		lda #0
    105  5092							;		sta PF0
    106  5092							;		sta PF1
    107  5092							;		sta PF2
    108  5092
    109  5092
    110  5092
    111  5092							; D1 VBLANK turns off beam
    112  5092							; It needs to be turned on 37 scanlines later
    113  5092
    114  5092				   oscan
    115  5092		       ad 84 02 	      lda	INTIM
    116  5095		       d0 fb		      bne	oscan
    117  5097
    118  5097		       a9 42		      lda	#%01000010	; bit6 is not required
    119  5099		       85 41		      sta	VBLANK	; end of screen - enter blanking
    120  509b
    121  509b		       a5 4c		      lda	INPT4
    122  509d		       10 03		      bpl	ret
    123  509f
    124  509f		       4c 35 f0 	      jmp	RestartFrame
    125  50a2
    126  50a2		       60	   ret	      rts
    127  50a3
    128  50a3				   OverscanTime2
    129  50a3		       83 83		      .byte.b	131, 131
    130  50a5		       8b 8b		      .byte.b	139, 139
    131  50a7
    132  50a7				   colvec
    133  50a7		       23 f1 ab f0	      .word.w	colr_ntsc, colr_pal
    134  50ab
    135  50ab
    136  50ab					      MAC	lumtable
    137  50ab							; {4} MIN LUM 1
    138  50ab							; {5} MIN LUM 2
    139  50ab							; {6} MIN LUM 3
    140  50ab
    141  50ab				   .LUM1      SET	{4}
    142  50ab				   .LUM2      SET	{5}
    143  50ab				   .LUM3      SET	{6}
    144  50ab
    145  50ab				   .STEP1     =	256*($C-{4})/8
    146  50ab				   .STEP2     =	256*($C-{5})/8
    147  50ab				   .STEP3     =	256*($C-{6})/8
    148  50ab
    149  50ab					      REPEAT	8
    150  50ab					      REPEAT	5
    151  50ab					      .byte	{1}+{4}+(.LUM1/256/5)
    152  50ab					      .byte	{2}+{5}+(.LUM2/256/5)
    153  50ab					      .byte	{3}+{6}+(.LUM3/256/5)
    154  50ab				   .LUM1      SET	.LUM1 + .STEP1
    155  50ab				   .LUM2      SET	.LUM2 + .STEP2
    156  50ab				   .LUM3      SET	.LUM3 + .STEP3
    157  50ab					      REPEND
    158  50ab					      REPEND
    159  50ab					      ENDM		;{1}{2}{3} base colours
    160  50ab
      0  50ab				   colr_pal   LUMTABLE	$B0,$30,$A0,0,8,4	;2,4,6
      1  50ab
      2  50ab
      3  50ab
      4  50ab
      5  50ab				   .LUM1      SET	0
      6  50ab				   .LUM2      SET	8
      7  50ab				   .LUM3      SET	4
      8  50ab
      9  50ab		       01 80	   .STEP1     =	256*($C-0)/8
     10  50ab		       00 80	   .STEP2     =	256*($C-8)/8
     11  50ab		       01 00	   .STEP3     =	256*($C-4)/8
     12  50ab
     13  50ab					      REPEAT	8
     14  50ab					      REPEAT	5
     15  50ab		       b0		      .byte.b	$B0+0+(.LUM1/256/5)
     16  50ac		       38		      .byte.b	$30+8+(.LUM2/256/5)
     17  50ad		       a4		      .byte.b	$A0+4+(.LUM3/256/5)
     18  50ad				   .LUM1      SET	.LUM1 + .STEP1
     19  50ad				   .LUM2      SET	.LUM2 + .STEP2
     20  50ad				   .LUM3      SET	.LUM3 + .STEP3
     14  50ad					      REPEND
     15  50ae		       b0		      .byte.b	$B0+0+(.LUM1/256/5)
     16  50af		       38		      .byte.b	$30+8+(.LUM2/256/5)
     17  50b0		       a4		      .byte.b	$A0+4+(.LUM3/256/5)
     18  50b0				   .LUM1      SET	.LUM1 + .STEP1
     19  50b0				   .LUM2      SET	.LUM2 + .STEP2
     20  50b0				   .LUM3      SET	.LUM3 + .STEP3
     14  50b0					      REPEND
     15  50b1		       b0		      .byte.b	$B0+0+(.LUM1/256/5)
     16  50b2		       38		      .byte.b	$30+8+(.LUM2/256/5)
     17  50b3		       a4		      .byte.b	$A0+4+(.LUM3/256/5)
     18  50b3				   .LUM1      SET	.LUM1 + .STEP1
     19  50b3				   .LUM2      SET	.LUM2 + .STEP2
     20  50b3				   .LUM3      SET	.LUM3 + .STEP3
     14  50b3					      REPEND
     15  50b4		       b0		      .byte.b	$B0+0+(.LUM1/256/5)
     16  50b5		       38		      .byte.b	$30+8+(.LUM2/256/5)
     17  50b6		       a4		      .byte.b	$A0+4+(.LUM3/256/5)
     18  50b6				   .LUM1      SET	.LUM1 + .STEP1
     19  50b6				   .LUM2      SET	.LUM2 + .STEP2
     20  50b6				   .LUM3      SET	.LUM3 + .STEP3
     14  50b6					      REPEND
     15  50b7		       b1		      .byte.b	$B0+0+(.LUM1/256/5)
     16  50b8		       38		      .byte.b	$30+8+(.LUM2/256/5)
     17  50b9		       a4		      .byte.b	$A0+4+(.LUM3/256/5)
     18  50b9				   .LUM1      SET	.LUM1 + .STEP1
     19  50b9				   .LUM2      SET	.LUM2 + .STEP2
     20  50b9				   .LUM3      SET	.LUM3 + .STEP3
     21  50ba					      REPEND
     13  50ba					      REPEND
     14  50ba					      REPEAT	5
     15  50ba		       b1		      .byte.b	$B0+0+(.LUM1/256/5)
     16  50bb		       38		      .byte.b	$30+8+(.LUM2/256/5)
     17  50bc		       a5		      .byte.b	$A0+4+(.LUM3/256/5)
     18  50bc				   .LUM1      SET	.LUM1 + .STEP1
     19  50bc				   .LUM2      SET	.LUM2 + .STEP2
     20  50bc				   .LUM3      SET	.LUM3 + .STEP3
     14  50bc					      REPEND
     15  50bd		       b1		      .byte.b	$B0+0+(.LUM1/256/5)
     16  50be		       38		      .byte.b	$30+8+(.LUM2/256/5)
     17  50bf		       a5		      .byte.b	$A0+4+(.LUM3/256/5)
     18  50bf				   .LUM1      SET	.LUM1 + .STEP1
     19  50bf				   .LUM2      SET	.LUM2 + .STEP2
     20  50bf				   .LUM3      SET	.LUM3 + .STEP3
     14  50bf					      REPEND
     15  50c0		       b2		      .byte.b	$B0+0+(.LUM1/256/5)
     16  50c1		       38		      .byte.b	$30+8+(.LUM2/256/5)
     17  50c2		       a5		      .byte.b	$A0+4+(.LUM3/256/5)
     18  50c2				   .LUM1      SET	.LUM1 + .STEP1
     19  50c2				   .LUM2      SET	.LUM2 + .STEP2
     20  50c2				   .LUM3      SET	.LUM3 + .STEP3
     14  50c2					      REPEND
     15  50c3		       b2		      .byte.b	$B0+0+(.LUM1/256/5)
     16  50c4		       38		      .byte.b	$30+8+(.LUM2/256/5)
     17  50c5		       a5		      .byte.b	$A0+4+(.LUM3/256/5)
     18  50c5				   .LUM1      SET	.LUM1 + .STEP1
     19  50c5				   .LUM2      SET	.LUM2 + .STEP2
     20  50c5				   .LUM3      SET	.LUM3 + .STEP3
     14  50c5					      REPEND
     15  50c6		       b2		      .byte.b	$B0+0+(.LUM1/256/5)
     16  50c7		       38		      .byte.b	$30+8+(.LUM2/256/5)
     17  50c8		       a5		      .byte.b	$A0+4+(.LUM3/256/5)
     18  50c8				   .LUM1      SET	.LUM1 + .STEP1
     19  50c8				   .LUM2      SET	.LUM2 + .STEP2
     20  50c8				   .LUM3      SET	.LUM3 + .STEP3
     21  50c9					      REPEND
     13  50c9					      REPEND
     14  50c9					      REPEAT	5
     15  50c9		       b3		      .byte.b	$B0+0+(.LUM1/256/5)
     16  50ca		       39		      .byte.b	$30+8+(.LUM2/256/5)
     17  50cb		       a6		      .byte.b	$A0+4+(.LUM3/256/5)
     18  50cb				   .LUM1      SET	.LUM1 + .STEP1
     19  50cb				   .LUM2      SET	.LUM2 + .STEP2
     20  50cb				   .LUM3      SET	.LUM3 + .STEP3
     14  50cb					      REPEND
     15  50cc		       b3		      .byte.b	$B0+0+(.LUM1/256/5)
     16  50cd		       39		      .byte.b	$30+8+(.LUM2/256/5)
     17  50ce		       a6		      .byte.b	$A0+4+(.LUM3/256/5)
     18  50ce				   .LUM1      SET	.LUM1 + .STEP1
     19  50ce				   .LUM2      SET	.LUM2 + .STEP2
     20  50ce				   .LUM3      SET	.LUM3 + .STEP3
     14  50ce					      REPEND
     15  50cf		       b3		      .byte.b	$B0+0+(.LUM1/256/5)
     16  50d0		       39		      .byte.b	$30+8+(.LUM2/256/5)
     17  50d1		       a6		      .byte.b	$A0+4+(.LUM3/256/5)
     18  50d1				   .LUM1      SET	.LUM1 + .STEP1
     19  50d1				   .LUM2      SET	.LUM2 + .STEP2
     20  50d1				   .LUM3      SET	.LUM3 + .STEP3
     14  50d1					      REPEND
     15  50d2		       b3		      .byte.b	$B0+0+(.LUM1/256/5)
     16  50d3		       39		      .byte.b	$30+8+(.LUM2/256/5)
     17  50d4		       a6		      .byte.b	$A0+4+(.LUM3/256/5)
     18  50d4				   .LUM1      SET	.LUM1 + .STEP1
     19  50d4				   .LUM2      SET	.LUM2 + .STEP2
     20  50d4				   .LUM3      SET	.LUM3 + .STEP3
     14  50d4					      REPEND
     15  50d5		       b4		      .byte.b	$B0+0+(.LUM1/256/5)
     16  50d6		       39		      .byte.b	$30+8+(.LUM2/256/5)
     17  50d7		       a6		      .byte.b	$A0+4+(.LUM3/256/5)
     18  50d7				   .LUM1      SET	.LUM1 + .STEP1
     19  50d7				   .LUM2      SET	.LUM2 + .STEP2
     20  50d7				   .LUM3      SET	.LUM3 + .STEP3
     21  50d8					      REPEND
     13  50d8					      REPEND
     14  50d8					      REPEAT	5
     15  50d8		       b4		      .byte.b	$B0+0+(.LUM1/256/5)
     16  50d9		       39		      .byte.b	$30+8+(.LUM2/256/5)
     17  50da		       a7		      .byte.b	$A0+4+(.LUM3/256/5)
     18  50da				   .LUM1      SET	.LUM1 + .STEP1
     19  50da				   .LUM2      SET	.LUM2 + .STEP2
     20  50da				   .LUM3      SET	.LUM3 + .STEP3
     14  50da					      REPEND
     15  50db		       b4		      .byte.b	$B0+0+(.LUM1/256/5)
     16  50dc		       39		      .byte.b	$30+8+(.LUM2/256/5)
     17  50dd		       a7		      .byte.b	$A0+4+(.LUM3/256/5)
     18  50dd				   .LUM1      SET	.LUM1 + .STEP1
     19  50dd				   .LUM2      SET	.LUM2 + .STEP2
     20  50dd				   .LUM3      SET	.LUM3 + .STEP3
     14  50dd					      REPEND
     15  50de		       b5		      .byte.b	$B0+0+(.LUM1/256/5)
     16  50df		       39		      .byte.b	$30+8+(.LUM2/256/5)
     17  50e0		       a7		      .byte.b	$A0+4+(.LUM3/256/5)
     18  50e0				   .LUM1      SET	.LUM1 + .STEP1
     19  50e0				   .LUM2      SET	.LUM2 + .STEP2
     20  50e0				   .LUM3      SET	.LUM3 + .STEP3
     14  50e0					      REPEND
     15  50e1		       b5		      .byte.b	$B0+0+(.LUM1/256/5)
     16  50e2		       39		      .byte.b	$30+8+(.LUM2/256/5)
     17  50e3		       a7		      .byte.b	$A0+4+(.LUM3/256/5)
     18  50e3				   .LUM1      SET	.LUM1 + .STEP1
     19  50e3				   .LUM2      SET	.LUM2 + .STEP2
     20  50e3				   .LUM3      SET	.LUM3 + .STEP3
     14  50e3					      REPEND
     15  50e4		       b5		      .byte.b	$B0+0+(.LUM1/256/5)
     16  50e5		       39		      .byte.b	$30+8+(.LUM2/256/5)
     17  50e6		       a7		      .byte.b	$A0+4+(.LUM3/256/5)
     18  50e6				   .LUM1      SET	.LUM1 + .STEP1
     19  50e6				   .LUM2      SET	.LUM2 + .STEP2
     20  50e6				   .LUM3      SET	.LUM3 + .STEP3
     21  50e7					      REPEND
     13  50e7					      REPEND
     14  50e7					      REPEAT	5
     15  50e7		       b6		      .byte.b	$B0+0+(.LUM1/256/5)
     16  50e8		       3a		      .byte.b	$30+8+(.LUM2/256/5)
     17  50e9		       a8		      .byte.b	$A0+4+(.LUM3/256/5)
     18  50e9				   .LUM1      SET	.LUM1 + .STEP1
     19  50e9				   .LUM2      SET	.LUM2 + .STEP2
     20  50e9				   .LUM3      SET	.LUM3 + .STEP3
     14  50e9					      REPEND
     15  50ea		       b6		      .byte.b	$B0+0+(.LUM1/256/5)
     16  50eb		       3a		      .byte.b	$30+8+(.LUM2/256/5)
     17  50ec		       a8		      .byte.b	$A0+4+(.LUM3/256/5)
     18  50ec				   .LUM1      SET	.LUM1 + .STEP1
     19  50ec				   .LUM2      SET	.LUM2 + .STEP2
     20  50ec				   .LUM3      SET	.LUM3 + .STEP3
     14  50ec					      REPEND
     15  50ed		       b6		      .byte.b	$B0+0+(.LUM1/256/5)
     16  50ee		       3a		      .byte.b	$30+8+(.LUM2/256/5)
     17  50ef		       a8		      .byte.b	$A0+4+(.LUM3/256/5)
     18  50ef				   .LUM1      SET	.LUM1 + .STEP1
     19  50ef				   .LUM2      SET	.LUM2 + .STEP2
     20  50ef				   .LUM3      SET	.LUM3 + .STEP3
     14  50ef					      REPEND
     15  50f0		       b6		      .byte.b	$B0+0+(.LUM1/256/5)
     16  50f1		       3a		      .byte.b	$30+8+(.LUM2/256/5)
     17  50f2		       a8		      .byte.b	$A0+4+(.LUM3/256/5)
     18  50f2				   .LUM1      SET	.LUM1 + .STEP1
     19  50f2				   .LUM2      SET	.LUM2 + .STEP2
     20  50f2				   .LUM3      SET	.LUM3 + .STEP3
     14  50f2					      REPEND
     15  50f3		       b7		      .byte.b	$B0+0+(.LUM1/256/5)
     16  50f4		       3a		      .byte.b	$30+8+(.LUM2/256/5)
     17  50f5		       a8		      .byte.b	$A0+4+(.LUM3/256/5)
     18  50f5				   .LUM1      SET	.LUM1 + .STEP1
     19  50f5				   .LUM2      SET	.LUM2 + .STEP2
     20  50f5				   .LUM3      SET	.LUM3 + .STEP3
     21  50f6					      REPEND
     13  50f6					      REPEND
     14  50f6					      REPEAT	5
     15  50f6		       b7		      .byte.b	$B0+0+(.LUM1/256/5)
     16  50f7		       3a		      .byte.b	$30+8+(.LUM2/256/5)
     17  50f8		       a9		      .byte.b	$A0+4+(.LUM3/256/5)
     18  50f8				   .LUM1      SET	.LUM1 + .STEP1
     19  50f8				   .LUM2      SET	.LUM2 + .STEP2
     20  50f8				   .LUM3      SET	.LUM3 + .STEP3
     14  50f8					      REPEND
     15  50f9		       b7		      .byte.b	$B0+0+(.LUM1/256/5)
     16  50fa		       3a		      .byte.b	$30+8+(.LUM2/256/5)
     17  50fb		       a9		      .byte.b	$A0+4+(.LUM3/256/5)
     18  50fb				   .LUM1      SET	.LUM1 + .STEP1
     19  50fb				   .LUM2      SET	.LUM2 + .STEP2
     20  50fb				   .LUM3      SET	.LUM3 + .STEP3
     14  50fb					      REPEND
     15  50fc		       b8		      .byte.b	$B0+0+(.LUM1/256/5)
     16  50fd		       3a		      .byte.b	$30+8+(.LUM2/256/5)
     17  50fe		       a9		      .byte.b	$A0+4+(.LUM3/256/5)
     18  50fe				   .LUM1      SET	.LUM1 + .STEP1
     19  50fe				   .LUM2      SET	.LUM2 + .STEP2
     20  50fe				   .LUM3      SET	.LUM3 + .STEP3
     14  50fe					      REPEND
     15  50ff		       b8		      .byte.b	$B0+0+(.LUM1/256/5)
     16  5100		       3a		      .byte.b	$30+8+(.LUM2/256/5)
     17  5101		       a9		      .byte.b	$A0+4+(.LUM3/256/5)
     18  5101				   .LUM1      SET	.LUM1 + .STEP1
     19  5101				   .LUM2      SET	.LUM2 + .STEP2
     20  5101				   .LUM3      SET	.LUM3 + .STEP3
     14  5101					      REPEND
     15  5102		       b8		      .byte.b	$B0+0+(.LUM1/256/5)
     16  5103		       3a		      .byte.b	$30+8+(.LUM2/256/5)
     17  5104		       a9		      .byte.b	$A0+4+(.LUM3/256/5)
     18  5104				   .LUM1      SET	.LUM1 + .STEP1
     19  5104				   .LUM2      SET	.LUM2 + .STEP2
     20  5104				   .LUM3      SET	.LUM3 + .STEP3
     21  5105					      REPEND
     13  5105					      REPEND
     14  5105					      REPEAT	5
     15  5105		       b9		      .byte.b	$B0+0+(.LUM1/256/5)
     16  5106		       3b		      .byte.b	$30+8+(.LUM2/256/5)
     17  5107		       aa		      .byte.b	$A0+4+(.LUM3/256/5)
     18  5107				   .LUM1      SET	.LUM1 + .STEP1
     19  5107				   .LUM2      SET	.LUM2 + .STEP2
     20  5107				   .LUM3      SET	.LUM3 + .STEP3
     14  5107					      REPEND
     15  5108		       b9		      .byte.b	$B0+0+(.LUM1/256/5)
     16  5109		       3b		      .byte.b	$30+8+(.LUM2/256/5)
     17  510a		       aa		      .byte.b	$A0+4+(.LUM3/256/5)
     18  510a				   .LUM1      SET	.LUM1 + .STEP1
     19  510a				   .LUM2      SET	.LUM2 + .STEP2
     20  510a				   .LUM3      SET	.LUM3 + .STEP3
     14  510a					      REPEND
     15  510b		       b9		      .byte.b	$B0+0+(.LUM1/256/5)
     16  510c		       3b		      .byte.b	$30+8+(.LUM2/256/5)
     17  510d		       aa		      .byte.b	$A0+4+(.LUM3/256/5)
     18  510d				   .LUM1      SET	.LUM1 + .STEP1
     19  510d				   .LUM2      SET	.LUM2 + .STEP2
     20  510d				   .LUM3      SET	.LUM3 + .STEP3
     14  510d					      REPEND
     15  510e		       b9		      .byte.b	$B0+0+(.LUM1/256/5)
     16  510f		       3b		      .byte.b	$30+8+(.LUM2/256/5)
     17  5110		       aa		      .byte.b	$A0+4+(.LUM3/256/5)
     18  5110				   .LUM1      SET	.LUM1 + .STEP1
     19  5110				   .LUM2      SET	.LUM2 + .STEP2
     20  5110				   .LUM3      SET	.LUM3 + .STEP3
     14  5110					      REPEND
     15  5111		       ba		      .byte.b	$B0+0+(.LUM1/256/5)
     16  5112		       3b		      .byte.b	$30+8+(.LUM2/256/5)
     17  5113		       aa		      .byte.b	$A0+4+(.LUM3/256/5)
     18  5113				   .LUM1      SET	.LUM1 + .STEP1
     19  5113				   .LUM2      SET	.LUM2 + .STEP2
     20  5113				   .LUM3      SET	.LUM3 + .STEP3
     21  5114					      REPEND
     13  5114					      REPEND
     14  5114					      REPEAT	5
     15  5114		       ba		      .byte.b	$B0+0+(.LUM1/256/5)
     16  5115		       3b		      .byte.b	$30+8+(.LUM2/256/5)
     17  5116		       ab		      .byte.b	$A0+4+(.LUM3/256/5)
     18  5116				   .LUM1      SET	.LUM1 + .STEP1
     19  5116				   .LUM2      SET	.LUM2 + .STEP2
     20  5116				   .LUM3      SET	.LUM3 + .STEP3
     14  5116					      REPEND
     15  5117		       ba		      .byte.b	$B0+0+(.LUM1/256/5)
     16  5118		       3b		      .byte.b	$30+8+(.LUM2/256/5)
     17  5119		       ab		      .byte.b	$A0+4+(.LUM3/256/5)
     18  5119				   .LUM1      SET	.LUM1 + .STEP1
     19  5119				   .LUM2      SET	.LUM2 + .STEP2
     20  5119				   .LUM3      SET	.LUM3 + .STEP3
     14  5119					      REPEND
     15  511a		       bb		      .byte.b	$B0+0+(.LUM1/256/5)
     16  511b		       3b		      .byte.b	$30+8+(.LUM2/256/5)
     17  511c		       ab		      .byte.b	$A0+4+(.LUM3/256/5)
     18  511c				   .LUM1      SET	.LUM1 + .STEP1
     19  511c				   .LUM2      SET	.LUM2 + .STEP2
     20  511c				   .LUM3      SET	.LUM3 + .STEP3
     14  511c					      REPEND
     15  511d		       bb		      .byte.b	$B0+0+(.LUM1/256/5)
     16  511e		       3b		      .byte.b	$30+8+(.LUM2/256/5)
     17  511f		       ab		      .byte.b	$A0+4+(.LUM3/256/5)
     18  511f				   .LUM1      SET	.LUM1 + .STEP1
     19  511f				   .LUM2      SET	.LUM2 + .STEP2
     20  511f				   .LUM3      SET	.LUM3 + .STEP3
     14  511f					      REPEND
     15  5120		       bb		      .byte.b	$B0+0+(.LUM1/256/5)
     16  5121		       3b		      .byte.b	$30+8+(.LUM2/256/5)
     17  5122		       ab		      .byte.b	$A0+4+(.LUM3/256/5)
     18  5122				   .LUM1      SET	.LUM1 + .STEP1
     19  5122				   .LUM2      SET	.LUM2 + .STEP2
     20  5122				   .LUM3      SET	.LUM3 + .STEP3
     21  5123					      REPEND
     22  5123					      REPEND
      0  5123				   colr_ntsc  LUMTABLE	$80,$B0,$50,0,8,4
      1  5123
      2  5123
      3  5123
      4  5123
      5  5123				   .LUM1      SET	0
      6  5123				   .LUM2      SET	8
      7  5123				   .LUM3      SET	4
      8  5123
      9  5123		       01 80	   .STEP1     =	256*($C-0)/8
     10  5123		       00 80	   .STEP2     =	256*($C-8)/8
     11  5123		       01 00	   .STEP3     =	256*($C-4)/8
     12  5123
     13  5123					      REPEAT	8
     14  5123					      REPEAT	5
     15  5123		       80		      .byte.b	$80+0+(.LUM1/256/5)
     16  5124		       b8		      .byte.b	$B0+8+(.LUM2/256/5)
     17  5125		       54		      .byte.b	$50+4+(.LUM3/256/5)
     18  5125				   .LUM1      SET	.LUM1 + .STEP1
     19  5125				   .LUM2      SET	.LUM2 + .STEP2
     20  5125				   .LUM3      SET	.LUM3 + .STEP3
     14  5125					      REPEND
     15  5126		       80		      .byte.b	$80+0+(.LUM1/256/5)
     16  5127		       b8		      .byte.b	$B0+8+(.LUM2/256/5)
     17  5128		       54		      .byte.b	$50+4+(.LUM3/256/5)
     18  5128				   .LUM1      SET	.LUM1 + .STEP1
     19  5128				   .LUM2      SET	.LUM2 + .STEP2
     20  5128				   .LUM3      SET	.LUM3 + .STEP3
     14  5128					      REPEND
     15  5129		       80		      .byte.b	$80+0+(.LUM1/256/5)
     16  512a		       b8		      .byte.b	$B0+8+(.LUM2/256/5)
     17  512b		       54		      .byte.b	$50+4+(.LUM3/256/5)
     18  512b				   .LUM1      SET	.LUM1 + .STEP1
     19  512b				   .LUM2      SET	.LUM2 + .STEP2
     20  512b				   .LUM3      SET	.LUM3 + .STEP3
     14  512b					      REPEND
     15  512c		       80		      .byte.b	$80+0+(.LUM1/256/5)
     16  512d		       b8		      .byte.b	$B0+8+(.LUM2/256/5)
     17  512e		       54		      .byte.b	$50+4+(.LUM3/256/5)
     18  512e				   .LUM1      SET	.LUM1 + .STEP1
     19  512e				   .LUM2      SET	.LUM2 + .STEP2
     20  512e				   .LUM3      SET	.LUM3 + .STEP3
     14  512e					      REPEND
     15  512f		       81		      .byte.b	$80+0+(.LUM1/256/5)
     16  5130		       b8		      .byte.b	$B0+8+(.LUM2/256/5)
     17  5131		       54		      .byte.b	$50+4+(.LUM3/256/5)
     18  5131				   .LUM1      SET	.LUM1 + .STEP1
     19  5131				   .LUM2      SET	.LUM2 + .STEP2
     20  5131				   .LUM3      SET	.LUM3 + .STEP3
     21  5132					      REPEND
     13  5132					      REPEND
     14  5132					      REPEAT	5
     15  5132		       81		      .byte.b	$80+0+(.LUM1/256/5)
     16  5133		       b8		      .byte.b	$B0+8+(.LUM2/256/5)
     17  5134		       55		      .byte.b	$50+4+(.LUM3/256/5)
     18  5134				   .LUM1      SET	.LUM1 + .STEP1
     19  5134				   .LUM2      SET	.LUM2 + .STEP2
     20  5134				   .LUM3      SET	.LUM3 + .STEP3
     14  5134					      REPEND
     15  5135		       81		      .byte.b	$80+0+(.LUM1/256/5)
     16  5136		       b8		      .byte.b	$B0+8+(.LUM2/256/5)
     17  5137		       55		      .byte.b	$50+4+(.LUM3/256/5)
     18  5137				   .LUM1      SET	.LUM1 + .STEP1
     19  5137				   .LUM2      SET	.LUM2 + .STEP2
     20  5137				   .LUM3      SET	.LUM3 + .STEP3
     14  5137					      REPEND
     15  5138		       82		      .byte.b	$80+0+(.LUM1/256/5)
     16  5139		       b8		      .byte.b	$B0+8+(.LUM2/256/5)
     17  513a		       55		      .byte.b	$50+4+(.LUM3/256/5)
     18  513a				   .LUM1      SET	.LUM1 + .STEP1
     19  513a				   .LUM2      SET	.LUM2 + .STEP2
     20  513a				   .LUM3      SET	.LUM3 + .STEP3
     14  513a					      REPEND
     15  513b		       82		      .byte.b	$80+0+(.LUM1/256/5)
     16  513c		       b8		      .byte.b	$B0+8+(.LUM2/256/5)
     17  513d		       55		      .byte.b	$50+4+(.LUM3/256/5)
     18  513d				   .LUM1      SET	.LUM1 + .STEP1
     19  513d				   .LUM2      SET	.LUM2 + .STEP2
     20  513d				   .LUM3      SET	.LUM3 + .STEP3
     14  513d					      REPEND
     15  513e		       82		      .byte.b	$80+0+(.LUM1/256/5)
     16  513f		       b8		      .byte.b	$B0+8+(.LUM2/256/5)
     17  5140		       55		      .byte.b	$50+4+(.LUM3/256/5)
     18  5140				   .LUM1      SET	.LUM1 + .STEP1
     19  5140				   .LUM2      SET	.LUM2 + .STEP2
     20  5140				   .LUM3      SET	.LUM3 + .STEP3
     21  5141					      REPEND
     13  5141					      REPEND
     14  5141					      REPEAT	5
     15  5141		       83		      .byte.b	$80+0+(.LUM1/256/5)
     16  5142		       b9		      .byte.b	$B0+8+(.LUM2/256/5)
     17  5143		       56		      .byte.b	$50+4+(.LUM3/256/5)
     18  5143				   .LUM1      SET	.LUM1 + .STEP1
     19  5143				   .LUM2      SET	.LUM2 + .STEP2
     20  5143				   .LUM3      SET	.LUM3 + .STEP3
     14  5143					      REPEND
     15  5144		       83		      .byte.b	$80+0+(.LUM1/256/5)
     16  5145		       b9		      .byte.b	$B0+8+(.LUM2/256/5)
     17  5146		       56		      .byte.b	$50+4+(.LUM3/256/5)
     18  5146				   .LUM1      SET	.LUM1 + .STEP1
     19  5146				   .LUM2      SET	.LUM2 + .STEP2
     20  5146				   .LUM3      SET	.LUM3 + .STEP3
     14  5146					      REPEND
     15  5147		       83		      .byte.b	$80+0+(.LUM1/256/5)
     16  5148		       b9		      .byte.b	$B0+8+(.LUM2/256/5)
     17  5149		       56		      .byte.b	$50+4+(.LUM3/256/5)
     18  5149				   .LUM1      SET	.LUM1 + .STEP1
     19  5149				   .LUM2      SET	.LUM2 + .STEP2
     20  5149				   .LUM3      SET	.LUM3 + .STEP3
     14  5149					      REPEND
     15  514a		       83		      .byte.b	$80+0+(.LUM1/256/5)
     16  514b		       b9		      .byte.b	$B0+8+(.LUM2/256/5)
     17  514c		       56		      .byte.b	$50+4+(.LUM3/256/5)
     18  514c				   .LUM1      SET	.LUM1 + .STEP1
     19  514c				   .LUM2      SET	.LUM2 + .STEP2
     20  514c				   .LUM3      SET	.LUM3 + .STEP3
     14  514c					      REPEND
     15  514d		       84		      .byte.b	$80+0+(.LUM1/256/5)
     16  514e		       b9		      .byte.b	$B0+8+(.LUM2/256/5)
     17  514f		       56		      .byte.b	$50+4+(.LUM3/256/5)
     18  514f				   .LUM1      SET	.LUM1 + .STEP1
     19  514f				   .LUM2      SET	.LUM2 + .STEP2
     20  514f				   .LUM3      SET	.LUM3 + .STEP3
     21  5150					      REPEND
     13  5150					      REPEND
     14  5150					      REPEAT	5
     15  5150		       84		      .byte.b	$80+0+(.LUM1/256/5)
     16  5151		       b9		      .byte.b	$B0+8+(.LUM2/256/5)
     17  5152		       57		      .byte.b	$50+4+(.LUM3/256/5)
     18  5152				   .LUM1      SET	.LUM1 + .STEP1
     19  5152				   .LUM2      SET	.LUM2 + .STEP2
     20  5152				   .LUM3      SET	.LUM3 + .STEP3
     14  5152					      REPEND
     15  5153		       84		      .byte.b	$80+0+(.LUM1/256/5)
     16  5154		       b9		      .byte.b	$B0+8+(.LUM2/256/5)
     17  5155		       57		      .byte.b	$50+4+(.LUM3/256/5)
     18  5155				   .LUM1      SET	.LUM1 + .STEP1
     19  5155				   .LUM2      SET	.LUM2 + .STEP2
     20  5155				   .LUM3      SET	.LUM3 + .STEP3
     14  5155					      REPEND
     15  5156		       85		      .byte.b	$80+0+(.LUM1/256/5)
     16  5157		       b9		      .byte.b	$B0+8+(.LUM2/256/5)
     17  5158		       57		      .byte.b	$50+4+(.LUM3/256/5)
     18  5158				   .LUM1      SET	.LUM1 + .STEP1
     19  5158				   .LUM2      SET	.LUM2 + .STEP2
     20  5158				   .LUM3      SET	.LUM3 + .STEP3
     14  5158					      REPEND
     15  5159		       85		      .byte.b	$80+0+(.LUM1/256/5)
     16  515a		       b9		      .byte.b	$B0+8+(.LUM2/256/5)
     17  515b		       57		      .byte.b	$50+4+(.LUM3/256/5)
     18  515b				   .LUM1      SET	.LUM1 + .STEP1
     19  515b				   .LUM2      SET	.LUM2 + .STEP2
     20  515b				   .LUM3      SET	.LUM3 + .STEP3
     14  515b					      REPEND
     15  515c		       85		      .byte.b	$80+0+(.LUM1/256/5)
     16  515d		       b9		      .byte.b	$B0+8+(.LUM2/256/5)
     17  515e		       57		      .byte.b	$50+4+(.LUM3/256/5)
     18  515e				   .LUM1      SET	.LUM1 + .STEP1
     19  515e				   .LUM2      SET	.LUM2 + .STEP2
     20  515e				   .LUM3      SET	.LUM3 + .STEP3
     21  515f					      REPEND
     13  515f					      REPEND
     14  515f					      REPEAT	5
     15  515f		       86		      .byte.b	$80+0+(.LUM1/256/5)
     16  5160		       ba		      .byte.b	$B0+8+(.LUM2/256/5)
     17  5161		       58		      .byte.b	$50+4+(.LUM3/256/5)
     18  5161				   .LUM1      SET	.LUM1 + .STEP1
     19  5161				   .LUM2      SET	.LUM2 + .STEP2
     20  5161				   .LUM3      SET	.LUM3 + .STEP3
     14  5161					      REPEND
     15  5162		       86		      .byte.b	$80+0+(.LUM1/256/5)
     16  5163		       ba		      .byte.b	$B0+8+(.LUM2/256/5)
     17  5164		       58		      .byte.b	$50+4+(.LUM3/256/5)
     18  5164				   .LUM1      SET	.LUM1 + .STEP1
     19  5164				   .LUM2      SET	.LUM2 + .STEP2
     20  5164				   .LUM3      SET	.LUM3 + .STEP3
     14  5164					      REPEND
     15  5165		       86		      .byte.b	$80+0+(.LUM1/256/5)
     16  5166		       ba		      .byte.b	$B0+8+(.LUM2/256/5)
     17  5167		       58		      .byte.b	$50+4+(.LUM3/256/5)
     18  5167				   .LUM1      SET	.LUM1 + .STEP1
     19  5167				   .LUM2      SET	.LUM2 + .STEP2
     20  5167				   .LUM3      SET	.LUM3 + .STEP3
     14  5167					      REPEND
     15  5168		       86		      .byte.b	$80+0+(.LUM1/256/5)
     16  5169		       ba		      .byte.b	$B0+8+(.LUM2/256/5)
     17  516a		       58		      .byte.b	$50+4+(.LUM3/256/5)
     18  516a				   .LUM1      SET	.LUM1 + .STEP1
     19  516a				   .LUM2      SET	.LUM2 + .STEP2
     20  516a				   .LUM3      SET	.LUM3 + .STEP3
     14  516a					      REPEND
     15  516b		       87		      .byte.b	$80+0+(.LUM1/256/5)
     16  516c		       ba		      .byte.b	$B0+8+(.LUM2/256/5)
     17  516d		       58		      .byte.b	$50+4+(.LUM3/256/5)
     18  516d				   .LUM1      SET	.LUM1 + .STEP1
     19  516d				   .LUM2      SET	.LUM2 + .STEP2
     20  516d				   .LUM3      SET	.LUM3 + .STEP3
     21  516e					      REPEND
     13  516e					      REPEND
     14  516e					      REPEAT	5
     15  516e		       87		      .byte.b	$80+0+(.LUM1/256/5)
     16  516f		       ba		      .byte.b	$B0+8+(.LUM2/256/5)
     17  5170		       59		      .byte.b	$50+4+(.LUM3/256/5)
     18  5170				   .LUM1      SET	.LUM1 + .STEP1
     19  5170				   .LUM2      SET	.LUM2 + .STEP2
     20  5170				   .LUM3      SET	.LUM3 + .STEP3
     14  5170					      REPEND
     15  5171		       87		      .byte.b	$80+0+(.LUM1/256/5)
     16  5172		       ba		      .byte.b	$B0+8+(.LUM2/256/5)
     17  5173		       59		      .byte.b	$50+4+(.LUM3/256/5)
     18  5173				   .LUM1      SET	.LUM1 + .STEP1
     19  5173				   .LUM2      SET	.LUM2 + .STEP2
     20  5173				   .LUM3      SET	.LUM3 + .STEP3
     14  5173					      REPEND
     15  5174		       88		      .byte.b	$80+0+(.LUM1/256/5)
     16  5175		       ba		      .byte.b	$B0+8+(.LUM2/256/5)
     17  5176		       59		      .byte.b	$50+4+(.LUM3/256/5)
     18  5176				   .LUM1      SET	.LUM1 + .STEP1
     19  5176				   .LUM2      SET	.LUM2 + .STEP2
     20  5176				   .LUM3      SET	.LUM3 + .STEP3
     14  5176					      REPEND
     15  5177		       88		      .byte.b	$80+0+(.LUM1/256/5)
     16  5178		       ba		      .byte.b	$B0+8+(.LUM2/256/5)
     17  5179		       59		      .byte.b	$50+4+(.LUM3/256/5)
     18  5179				   .LUM1      SET	.LUM1 + .STEP1
     19  5179				   .LUM2      SET	.LUM2 + .STEP2
     20  5179				   .LUM3      SET	.LUM3 + .STEP3
     14  5179					      REPEND
     15  517a		       88		      .byte.b	$80+0+(.LUM1/256/5)
     16  517b		       ba		      .byte.b	$B0+8+(.LUM2/256/5)
     17  517c		       59		      .byte.b	$50+4+(.LUM3/256/5)
     18  517c				   .LUM1      SET	.LUM1 + .STEP1
     19  517c				   .LUM2      SET	.LUM2 + .STEP2
     20  517c				   .LUM3      SET	.LUM3 + .STEP3
     21  517d					      REPEND
     13  517d					      REPEND
     14  517d					      REPEAT	5
     15  517d		       89		      .byte.b	$80+0+(.LUM1/256/5)
     16  517e		       bb		      .byte.b	$B0+8+(.LUM2/256/5)
     17  517f		       5a		      .byte.b	$50+4+(.LUM3/256/5)
     18  517f				   .LUM1      SET	.LUM1 + .STEP1
     19  517f				   .LUM2      SET	.LUM2 + .STEP2
     20  517f				   .LUM3      SET	.LUM3 + .STEP3
     14  517f					      REPEND
     15  5180		       89		      .byte.b	$80+0+(.LUM1/256/5)
     16  5181		       bb		      .byte.b	$B0+8+(.LUM2/256/5)
     17  5182		       5a		      .byte.b	$50+4+(.LUM3/256/5)
     18  5182				   .LUM1      SET	.LUM1 + .STEP1
     19  5182				   .LUM2      SET	.LUM2 + .STEP2
     20  5182				   .LUM3      SET	.LUM3 + .STEP3
     14  5182					      REPEND
     15  5183		       89		      .byte.b	$80+0+(.LUM1/256/5)
     16  5184		       bb		      .byte.b	$B0+8+(.LUM2/256/5)
     17  5185		       5a		      .byte.b	$50+4+(.LUM3/256/5)
     18  5185				   .LUM1      SET	.LUM1 + .STEP1
     19  5185				   .LUM2      SET	.LUM2 + .STEP2
     20  5185				   .LUM3      SET	.LUM3 + .STEP3
     14  5185					      REPEND
     15  5186		       89		      .byte.b	$80+0+(.LUM1/256/5)
     16  5187		       bb		      .byte.b	$B0+8+(.LUM2/256/5)
     17  5188		       5a		      .byte.b	$50+4+(.LUM3/256/5)
     18  5188				   .LUM1      SET	.LUM1 + .STEP1
     19  5188				   .LUM2      SET	.LUM2 + .STEP2
     20  5188				   .LUM3      SET	.LUM3 + .STEP3
     14  5188					      REPEND
     15  5189		       8a		      .byte.b	$80+0+(.LUM1/256/5)
     16  518a		       bb		      .byte.b	$B0+8+(.LUM2/256/5)
     17  518b		       5a		      .byte.b	$50+4+(.LUM3/256/5)
     18  518b				   .LUM1      SET	.LUM1 + .STEP1
     19  518b				   .LUM2      SET	.LUM2 + .STEP2
     20  518b				   .LUM3      SET	.LUM3 + .STEP3
     21  518c					      REPEND
     13  518c					      REPEND
     14  518c					      REPEAT	5
     15  518c		       8a		      .byte.b	$80+0+(.LUM1/256/5)
     16  518d		       bb		      .byte.b	$B0+8+(.LUM2/256/5)
     17  518e		       5b		      .byte.b	$50+4+(.LUM3/256/5)
     18  518e				   .LUM1      SET	.LUM1 + .STEP1
     19  518e				   .LUM2      SET	.LUM2 + .STEP2
     20  518e				   .LUM3      SET	.LUM3 + .STEP3
     14  518e					      REPEND
     15  518f		       8a		      .byte.b	$80+0+(.LUM1/256/5)
     16  5190		       bb		      .byte.b	$B0+8+(.LUM2/256/5)
     17  5191		       5b		      .byte.b	$50+4+(.LUM3/256/5)
     18  5191				   .LUM1      SET	.LUM1 + .STEP1
     19  5191				   .LUM2      SET	.LUM2 + .STEP2
     20  5191				   .LUM3      SET	.LUM3 + .STEP3
     14  5191					      REPEND
     15  5192		       8b		      .byte.b	$80+0+(.LUM1/256/5)
     16  5193		       bb		      .byte.b	$B0+8+(.LUM2/256/5)
     17  5194		       5b		      .byte.b	$50+4+(.LUM3/256/5)
     18  5194				   .LUM1      SET	.LUM1 + .STEP1
     19  5194				   .LUM2      SET	.LUM2 + .STEP2
     20  5194				   .LUM3      SET	.LUM3 + .STEP3
     14  5194					      REPEND
     15  5195		       8b		      .byte.b	$80+0+(.LUM1/256/5)
     16  5196		       bb		      .byte.b	$B0+8+(.LUM2/256/5)
     17  5197		       5b		      .byte.b	$50+4+(.LUM3/256/5)
     18  5197				   .LUM1      SET	.LUM1 + .STEP1
     19  5197				   .LUM2      SET	.LUM2 + .STEP2
     20  5197				   .LUM3      SET	.LUM3 + .STEP3
     14  5197					      REPEND
     15  5198		       8b		      .byte.b	$80+0+(.LUM1/256/5)
     16  5199		       bb		      .byte.b	$B0+8+(.LUM2/256/5)
     17  519a		       5b		      .byte.b	$50+4+(.LUM3/256/5)
     18  519a				   .LUM1      SET	.LUM1 + .STEP1
     19  519a				   .LUM2      SET	.LUM2 + .STEP2
     20  519a				   .LUM3      SET	.LUM3 + .STEP3
     21  519b					      REPEND
     22  519b					      REPEND
    163  519b
------- FILE titleData.asm LEVEL 3 PASS 4
      0  519b					      include	"titleData.asm"
      1  519b				   COL_0
      2  519b		       c0		      .byte.b	192	;R (39)
      3  519c		       c0		      .byte.b	192	;G
      4  519d		       c0		      .byte.b	192	;B
      5  519e		       e0		      .byte.b	224	;R (38)
      6  519f		       e0		      .byte.b	224	;G
      7  51a0		       e0		      .byte.b	224	;B
      8  51a1		       20		      .byte.b	32	;R (37)
      9  51a2		       e0		      .byte.b	224	;G
     10  51a3		       e0		      .byte.b	224	;B
     11  51a4		       30		      .byte.b	48	;R (36)
     12  51a5		       30		      .byte.b	48	;G
     13  51a6		       30		      .byte.b	48	;B
     14  51a7		       f0		      .byte.b	240	;R (35)
     15  51a8		       10		      .byte.b	16	;G
     16  51a9		       d0		      .byte.b	208	;B
     17  51aa		       f0		      .byte.b	240	;R (34)
     18  51ab		       10		      .byte.b	16	;G
     19  51ac		       d0		      .byte.b	208	;B
     20  51ad		       f0		      .byte.b	240	;R (33)
     21  51ae		       10		      .byte.b	16	;G
     22  51af		       d0		      .byte.b	208	;B
     23  51b0		       f0		      .byte.b	240	;R (32)
     24  51b1		       10		      .byte.b	16	;G
     25  51b2		       d0		      .byte.b	208	;B
     26  51b3		       f0		      .byte.b	240	;R (31)
     27  51b4		       10		      .byte.b	16	;G
     28  51b5		       d0		      .byte.b	208	;B
     29  51b6		       f0		      .byte.b	240	;R (30)
     30  51b7		       10		      .byte.b	16	;G
     31  51b8		       10		      .byte.b	16	;B
     32  51b9		       f0		      .byte.b	240	;R (29)
     33  51ba		       10		      .byte.b	16	;G
     34  51bb		       10		      .byte.b	16	;B
     35  51bc		       f0		      .byte.b	240	;R (28)
     36  51bd		       10		      .byte.b	16	;G
     37  51be		       10		      .byte.b	16	;B
     38  51bf		       f0		      .byte.b	240	;R (27)
     39  51c0		       10		      .byte.b	16	;G
     40  51c1		       10		      .byte.b	16	;B
     41  51c2		       f0		      .byte.b	240	;R (26)
     42  51c3		       10		      .byte.b	16	;G
     43  51c4		       10		      .byte.b	16	;B
     44  51c5		       f0		      .byte.b	240	;R (25)
     45  51c6		       10		      .byte.b	16	;G
     46  51c7		       10		      .byte.b	16	;B
     47  51c8		       f0		      .byte.b	240	;R (24)
     48  51c9		       10		      .byte.b	16	;G
     49  51ca		       10		      .byte.b	16	;B
     50  51cb		       f0		      .byte.b	240	;R (23)
     51  51cc		       10		      .byte.b	16	;G
     52  51cd		       10		      .byte.b	16	;B
     53  51ce		       90		      .byte.b	144	;R (22)
     54  51cf		       70		      .byte.b	112	;G
     55  51d0		       10		      .byte.b	16	;B
     56  51d1		       10		      .byte.b	16	;R (21)
     57  51d2		       f0		      .byte.b	240	;G
     58  51d3		       10		      .byte.b	16	;B
     59  51d4		       90		      .byte.b	144	;R (20)
     60  51d5		       70		      .byte.b	112	;G
     61  51d6		       90		      .byte.b	144	;B
     62  51d7		       90		      .byte.b	144	;R (19)
     63  51d8		       70		      .byte.b	112	;G
     64  51d9		       90		      .byte.b	144	;B
     65  51da		       d0		      .byte.b	208	;R (18)
     66  51db		       30		      .byte.b	48	;G
     67  51dc		       d0		      .byte.b	208	;B
     68  51dd		       d0		      .byte.b	208	;R (17)
     69  51de		       30		      .byte.b	48	;G
     70  51df		       d0		      .byte.b	208	;B
     71  51e0		       50		      .byte.b	80	;R (16)
     72  51e1		       30		      .byte.b	48	;G
     73  51e2		       50		      .byte.b	80	;B
     74  51e3		       50		      .byte.b	80	;R (15)
     75  51e4		       30		      .byte.b	48	;G
     76  51e5		       50		      .byte.b	80	;B
     77  51e6		       50		      .byte.b	80	;R (14)
     78  51e7		       30		      .byte.b	48	;G
     79  51e8		       50		      .byte.b	80	;B
     80  51e9		       50		      .byte.b	80	;R (13)
     81  51ea		       30		      .byte.b	48	;G
     82  51eb		       50		      .byte.b	80	;B
     83  51ec		       d0		      .byte.b	208	;R (12)
     84  51ed		       30		      .byte.b	48	;G
     85  51ee		       d0		      .byte.b	208	;B
     86  51ef		       d0		      .byte.b	208	;R (11)
     87  51f0		       30		      .byte.b	48	;G
     88  51f1		       d0		      .byte.b	208	;B
     89  51f2		       d0		      .byte.b	208	;R (10)
     90  51f3		       30		      .byte.b	48	;G
     91  51f4		       d0		      .byte.b	208	;B
     92  51f5		       d0		      .byte.b	208	;R (9)
     93  51f6		       30		      .byte.b	48	;G
     94  51f7		       d0		      .byte.b	208	;B
     95  51f8		       90		      .byte.b	144	;R (8)
     96  51f9		       70		      .byte.b	112	;G
     97  51fa		       90		      .byte.b	144	;B
     98  51fb		       90		      .byte.b	144	;R (7)
     99  51fc		       70		      .byte.b	112	;G
    100  51fd		       90		      .byte.b	144	;B
    101  51fe		       10		      .byte.b	16	;R (6)
    102  51ff		       f0		      .byte.b	240	;G
    103  5200		       10		      .byte.b	16	;B
    104  5201		       10		      .byte.b	16	;R (5)
    105  5202		       f0		      .byte.b	240	;G
    106  5203		       10		      .byte.b	16	;B
    107  5204		       10		      .byte.b	16	;R (4)
    108  5205		       f0		      .byte.b	240	;G
    109  5206		       10		      .byte.b	16	;B
    110  5207		       20		      .byte.b	32	;R (3)
    111  5208		       e0		      .byte.b	224	;G
    112  5209		       20		      .byte.b	32	;B
    113  520a		       20		      .byte.b	32	;R (2)
    114  520b		       e0		      .byte.b	224	;G
    115  520c		       20		      .byte.b	32	;B
    116  520d		       e0		      .byte.b	224	;R (1)
    117  520e		       e0		      .byte.b	224	;G
    118  520f		       e0		      .byte.b	224	;B
    119  5210		       c0		      .byte.b	192	;R (0)
    120  5211		       c0		      .byte.b	192	;G
    121  5212		       c0		      .byte.b	192	;B
    122  5213				   COL_1
    123  5213		       ff		      .byte.b	255	;R (39)
    124  5214		       ff		      .byte.b	255	;G
    125  5215		       ff		      .byte.b	255	;B
    126  5216		       ff		      .byte.b	255	;R (38)
    127  5217		       ff		      .byte.b	255	;G
    128  5218		       ff		      .byte.b	255	;B
    129  5219		       00		      .byte.b	0	;R (37)
    130  521a		       ff		      .byte.b	255	;G
    131  521b		       ff		      .byte.b	255	;B
    132  521c		       00		      .byte.b	0	;R (36)
    133  521d		       f3		      .byte.b	243	;G
    134  521e		       f3		      .byte.b	243	;B
    135  521f		       0c		      .byte.b	12	;R (35)
    136  5220		       71		      .byte.b	113	;G
    137  5221		       7d		      .byte.b	125	;B
    138  5222		       0c		      .byte.b	12	;R (34)
    139  5223		       71		      .byte.b	113	;G
    140  5224		       7d		      .byte.b	125	;B
    141  5225		       9c		      .byte.b	156	;R (33)
    142  5226		       21		      .byte.b	33	;G
    143  5227		       bd		      .byte.b	189	;B
    144  5228		       9c		      .byte.b	156	;R (32)
    145  5229		       21		      .byte.b	33	;G
    146  522a		       bd		      .byte.b	189	;B
    147  522b		       9e		      .byte.b	158	;R (31)
    148  522c		       20		      .byte.b	32	;G
    149  522d		       be		      .byte.b	190	;B
    150  522e		       de		      .byte.b	222	;R (30)
    151  522f		       00		      .byte.b	0	;G
    152  5230		       de		      .byte.b	222	;B
    153  5231		       d2		      .byte.b	210	;R (29)
    154  5232		       00		      .byte.b	0	;G
    155  5233		       d2		      .byte.b	210	;B
    156  5234		       d6		      .byte.b	214	;R (28)
    157  5235		       00		      .byte.b	0	;G
    158  5236		       d2		      .byte.b	210	;B
    159  5237		       d6		      .byte.b	214	;R (27)
    160  5238		       00		      .byte.b	0	;G
    161  5239		       d2		      .byte.b	210	;B
    162  523a		       d6		      .byte.b	214	;R (26)
    163  523b		       00		      .byte.b	0	;G
    164  523c		       d2		      .byte.b	210	;B
    165  523d		       d6		      .byte.b	214	;R (25)
    166  523e		       00		      .byte.b	0	;G
    167  523f		       d2		      .byte.b	210	;B
    168  5240		       d6		      .byte.b	214	;R (24)
    169  5241		       00		      .byte.b	0	;G
    170  5242		       d2		      .byte.b	210	;B
    171  5243		       d6		      .byte.b	214	;R (23)
    172  5244		       00		      .byte.b	0	;G
    173  5245		       d2		      .byte.b	210	;B
    174  5246		       d6		      .byte.b	214	;R (22)
    175  5247		       00		      .byte.b	0	;G
    176  5248		       d2		      .byte.b	210	;B
    177  5249		       d6		      .byte.b	214	;R (21)
    178  524a		       00		      .byte.b	0	;G
    179  524b		       d2		      .byte.b	210	;B
    180  524c		       d6		      .byte.b	214	;R (20)
    181  524d		       00		      .byte.b	0	;G
    182  524e		       d2		      .byte.b	210	;B
    183  524f		       d6		      .byte.b	214	;R (19)
    184  5250		       00		      .byte.b	0	;G
    185  5251		       d2		      .byte.b	210	;B
    186  5252		       96		      .byte.b	150	;R (18)
    187  5253		       20		      .byte.b	32	;G
    188  5254		       92		      .byte.b	146	;B
    189  5255		       12		      .byte.b	18	;R (17)
    190  5256		       64		      .byte.b	100	;G
    191  5257		       12		      .byte.b	18	;B
    192  5258		       12		      .byte.b	18	;R (16)
    193  5259		       e4		      .byte.b	228	;G
    194  525a		       12		      .byte.b	18	;B
    195  525b		       12		      .byte.b	18	;R (15)
    196  525c		       e4		      .byte.b	228	;G
    197  525d		       12		      .byte.b	18	;B
    198  525e		       12		      .byte.b	18	;R (14)
    199  525f		       e4		      .byte.b	228	;G
    200  5260		       12		      .byte.b	18	;B
    201  5261		       12		      .byte.b	18	;R (13)
    202  5262		       e4		      .byte.b	228	;G
    203  5263		       12		      .byte.b	18	;B
    204  5264		       12		      .byte.b	18	;R (12)
    205  5265		       64		      .byte.b	100	;G
    206  5266		       12		      .byte.b	18	;B
    207  5267		       12		      .byte.b	18	;R (11)
    208  5268		       64		      .byte.b	100	;G
    209  5269		       12		      .byte.b	18	;B
    210  526a		       12		      .byte.b	18	;R (10)
    211  526b		       64		      .byte.b	100	;G
    212  526c		       12		      .byte.b	18	;B
    213  526d		       9a		      .byte.b	154	;R (9)
    214  526e		       20		      .byte.b	32	;G
    215  526f		       9a		      .byte.b	154	;B
    216  5270		       da		      .byte.b	218	;R (8)
    217  5271		       00		      .byte.b	0	;G
    218  5272		       da		      .byte.b	218	;B
    219  5273		       fe		      .byte.b	254	;R (7)
    220  5274		       00		      .byte.b	0	;G
    221  5275		       fe		      .byte.b	254	;B
    222  5276		       ee		      .byte.b	238	;R (6)
    223  5277		       00		      .byte.b	0	;G
    224  5278		       ee		      .byte.b	238	;B
    225  5279		       6e		      .byte.b	110	;R (5)
    226  527a		       80		      .byte.b	128	;G
    227  527b		       6e		      .byte.b	110	;B
    228  527c		       24		      .byte.b	36	;R (4)
    229  527d		       c9		      .byte.b	201	;G
    230  527e		       24		      .byte.b	36	;B
    231  527f		       00		      .byte.b	0	;R (3)
    232  5280		       ff		      .byte.b	255	;G
    233  5281		       00		      .byte.b	0	;B
    234  5282		       00		      .byte.b	0	;R (2)
    235  5283		       ff		      .byte.b	255	;G
    236  5284		       00		      .byte.b	0	;B
    237  5285		       ff		      .byte.b	255	;R (1)
    238  5286		       ff		      .byte.b	255	;G
    239  5287		       ff		      .byte.b	255	;B
    240  5288		       ff		      .byte.b	255	;R (0)
    241  5289		       ff		      .byte.b	255	;G
    242  528a		       ff		      .byte.b	255	;B
    243  528b				   COL_2
    244  528b		       ff		      .byte.b	255	;R (39)
    245  528c		       ff		      .byte.b	255	;G
    246  528d		       ff		      .byte.b	255	;B
    247  528e		       ff		      .byte.b	255	;R (38)
    248  528f		       ff		      .byte.b	255	;G
    249  5290		       ff		      .byte.b	255	;B
    250  5291		       00		      .byte.b	0	;R (37)
    251  5292		       ff		      .byte.b	255	;G
    252  5293		       ff		      .byte.b	255	;B
    253  5294		       00		      .byte.b	0	;R (36)
    254  5295		       26		      .byte.b	38	;G
    255  5296		       26		      .byte.b	38	;B
    256  5297		       d9		      .byte.b	217	;R (35)
    257  5298		       04		      .byte.b	4	;G
    258  5299		       dd		      .byte.b	221	;B
    259  529a		       d9		      .byte.b	217	;R (34)
    260  529b		       04		      .byte.b	4	;G
    261  529c		       dd		      .byte.b	221	;B
    262  529d		       e9		      .byte.b	233	;R (33)
    263  529e		       04		      .byte.b	4	;G
    264  529f		       ed		      .byte.b	237	;B
    265  52a0		       e9		      .byte.b	233	;R (32)
    266  52a1		       04		      .byte.b	4	;G
    267  52a2		       ed		      .byte.b	237	;B
    268  52a3		       e9		      .byte.b	233	;R (31)
    269  52a4		       04		      .byte.b	4	;G
    270  52a5		       ed		      .byte.b	237	;B
    271  52a6		       ed		      .byte.b	237	;R (30)
    272  52a7		       00		      .byte.b	0	;G
    273  52a8		       ed		      .byte.b	237	;B
    274  52a9		       2f		      .byte.b	47	;R (29)
    275  52aa		       80		      .byte.b	128	;G
    276  52ab		       af		      .byte.b	175	;B
    277  52ac		       2f		      .byte.b	47	;R (28)
    278  52ad		       80		      .byte.b	128	;G
    279  52ae		       af		      .byte.b	175	;B
    280  52af		       2f		      .byte.b	47	;R (27)
    281  52b0		       80		      .byte.b	128	;G
    282  52b1		       af		      .byte.b	175	;B
    283  52b2		       27		      .byte.b	39	;R (26)
    284  52b3		       90		      .byte.b	144	;G
    285  52b4		       b7		      .byte.b	183	;B
    286  52b5		       27		      .byte.b	39	;R (25)
    287  52b6		       90		      .byte.b	144	;G
    288  52b7		       b7		      .byte.b	183	;B
    289  52b8		       27		      .byte.b	39	;R (24)
    290  52b9		       90		      .byte.b	144	;G
    291  52ba		       b7		      .byte.b	183	;B
    292  52bb		       3b		      .byte.b	59	;R (23)
    293  52bc		       80		      .byte.b	128	;G
    294  52bd		       a3		      .byte.b	163	;B
    295  52be		       3b		      .byte.b	59	;R (22)
    296  52bf		       80		      .byte.b	128	;G
    297  52c0		       a3		      .byte.b	163	;B
    298  52c1		       b7		      .byte.b	183	;R (21)
    299  52c2		       00		      .byte.b	0	;G
    300  52c3		       27		      .byte.b	39	;B
    301  52c4		       b7		      .byte.b	183	;R (20)
    302  52c5		       00		      .byte.b	0	;G
    303  52c6		       27		      .byte.b	39	;B
    304  52c7		       b7		      .byte.b	183	;R (19)
    305  52c8		       00		      .byte.b	0	;G
    306  52c9		       27		      .byte.b	39	;B
    307  52ca		       b7		      .byte.b	183	;R (18)
    308  52cb		       00		      .byte.b	0	;G
    309  52cc		       27		      .byte.b	39	;B
    310  52cd		       af		      .byte.b	175	;R (17)
    311  52ce		       00		      .byte.b	0	;G
    312  52cf		       2f		      .byte.b	47	;B
    313  52d0		       af		      .byte.b	175	;R (16)
    314  52d1		       00		      .byte.b	0	;G
    315  52d2		       2f		      .byte.b	47	;B
    316  52d3		       ad		      .byte.b	173	;R (15)
    317  52d4		       00		      .byte.b	0	;G
    318  52d5		       2d		      .byte.b	45	;B
    319  52d6		       ad		      .byte.b	173	;R (14)
    320  52d7		       00		      .byte.b	0	;G
    321  52d8		       2d		      .byte.b	45	;B
    322  52d9		       ad		      .byte.b	173	;R (13)
    323  52da		       00		      .byte.b	0	;G
    324  52db		       2d		      .byte.b	45	;B
    325  52dc		       a9		      .byte.b	169	;R (12)
    326  52dd		       04		      .byte.b	4	;G
    327  52de		       29		      .byte.b	41	;B
    328  52df		       a9		      .byte.b	169	;R (11)
    329  52e0		       04		      .byte.b	4	;G
    330  52e1		       29		      .byte.b	41	;B
    331  52e2		       a9		      .byte.b	169	;R (10)
    332  52e3		       04		      .byte.b	4	;G
    333  52e4		       29		      .byte.b	41	;B
    334  52e5		       69		      .byte.b	105	;R (9)
    335  52e6		       04		      .byte.b	4	;G
    336  52e7		       69		      .byte.b	105	;B
    337  52e8		       79		      .byte.b	121	;R (8)
    338  52e9		       04		      .byte.b	4	;G
    339  52ea		       79		      .byte.b	121	;B
    340  52eb		       f9		      .byte.b	249	;R (7)
    341  52ec		       04		      .byte.b	4	;G
    342  52ed		       f9		      .byte.b	249	;B
    343  52ee		       d9		      .byte.b	217	;R (6)
    344  52ef		       04		      .byte.b	4	;G
    345  52f0		       d9		      .byte.b	217	;B
    346  52f1		       d9		      .byte.b	217	;R (5)
    347  52f2		       04		      .byte.b	4	;G
    348  52f3		       d9		      .byte.b	217	;B
    349  52f4		       99		      .byte.b	153	;R (4)
    350  52f5		       44		      .byte.b	68	;G
    351  52f6		       99		      .byte.b	153	;B
    352  52f7		       00		      .byte.b	0	;R (3)
    353  52f8		       ff		      .byte.b	255	;G
    354  52f9		       00		      .byte.b	0	;B
    355  52fa		       00		      .byte.b	0	;R (2)
    356  52fb		       ff		      .byte.b	255	;G
    357  52fc		       00		      .byte.b	0	;B
    358  52fd		       ff		      .byte.b	255	;R (1)
    359  52fe		       ff		      .byte.b	255	;G
    360  52ff		       ff		      .byte.b	255	;B
    361  5300		       ff		      .byte.b	255	;R (0)
    362  5301		       ff		      .byte.b	255	;G
    363  5302		       ff		      .byte.b	255	;B
    364  5303				   COL_3
    365  5303		       f0		      .byte.b	240	;R (39)
    366  5304		       f0		      .byte.b	240	;G
    367  5305		       f0		      .byte.b	240	;B
    368  5306		       f0		      .byte.b	240	;R (38)
    369  5307		       f0		      .byte.b	240	;G
    370  5308		       f0		      .byte.b	240	;B
    371  5309		       00		      .byte.b	0	;R (37)
    372  530a		       f0		      .byte.b	240	;G
    373  530b		       f0		      .byte.b	240	;B
    374  530c		       00		      .byte.b	0	;R (36)
    375  530d		       30		      .byte.b	48	;G
    376  530e		       30		      .byte.b	48	;B
    377  530f		       c0		      .byte.b	192	;R (35)
    378  5310		       e0		      .byte.b	224	;G
    379  5311		       20		      .byte.b	32	;B
    380  5312		       c0		      .byte.b	192	;R (34)
    381  5313		       e0		      .byte.b	224	;G
    382  5314		       20		      .byte.b	32	;B
    383  5315		       c0		      .byte.b	192	;R (33)
    384  5316		       e0		      .byte.b	224	;G
    385  5317		       20		      .byte.b	32	;B
    386  5318		       c0		      .byte.b	192	;R (32)
    387  5319		       e0		      .byte.b	224	;G
    388  531a		       20		      .byte.b	32	;B
    389  531b		       d0		      .byte.b	208	;R (31)
    390  531c		       c0		      .byte.b	192	;G
    391  531d		       10		      .byte.b	16	;B
    392  531e		       50		      .byte.b	80	;R (30)
    393  531f		       40		      .byte.b	64	;G
    394  5320		       10		      .byte.b	16	;B
    395  5321		       50		      .byte.b	80	;R (29)
    396  5322		       40		      .byte.b	64	;G
    397  5323		       10		      .byte.b	16	;B
    398  5324		       50		      .byte.b	80	;R (28)
    399  5325		       40		      .byte.b	64	;G
    400  5326		       10		      .byte.b	16	;B
    401  5327		       50		      .byte.b	80	;R (27)
    402  5328		       40		      .byte.b	64	;G
    403  5329		       10		      .byte.b	16	;B
    404  532a		       50		      .byte.b	80	;R (26)
    405  532b		       40		      .byte.b	64	;G
    406  532c		       10		      .byte.b	16	;B
    407  532d		       50		      .byte.b	80	;R (25)
    408  532e		       40		      .byte.b	64	;G
    409  532f		       10		      .byte.b	16	;B
    410  5330		       50		      .byte.b	80	;R (24)
    411  5331		       40		      .byte.b	64	;G
    412  5332		       10		      .byte.b	16	;B
    413  5333		       d0		      .byte.b	208	;R (23)
    414  5334		       c0		      .byte.b	192	;G
    415  5335		       10		      .byte.b	16	;B
    416  5336		       d0		      .byte.b	208	;R (22)
    417  5337		       c0		      .byte.b	192	;G
    418  5338		       10		      .byte.b	16	;B
    419  5339		       d0		      .byte.b	208	;R (21)
    420  533a		       c0		      .byte.b	192	;G
    421  533b		       10		      .byte.b	16	;B
    422  533c		       d0		      .byte.b	208	;R (20)
    423  533d		       c0		      .byte.b	192	;G
    424  533e		       10		      .byte.b	16	;B
    425  533f		       d0		      .byte.b	208	;R (19)
    426  5340		       c0		      .byte.b	192	;G
    427  5341		       10		      .byte.b	16	;B
    428  5342		       d0		      .byte.b	208	;R (18)
    429  5343		       c0		      .byte.b	192	;G
    430  5344		       10		      .byte.b	16	;B
    431  5345		       50		      .byte.b	80	;R (17)
    432  5346		       40		      .byte.b	64	;G
    433  5347		       10		      .byte.b	16	;B
    434  5348		       50		      .byte.b	80	;R (16)
    435  5349		       40		      .byte.b	64	;G
    436  534a		       10		      .byte.b	16	;B
    437  534b		       50		      .byte.b	80	;R (15)
    438  534c		       40		      .byte.b	64	;G
    439  534d		       10		      .byte.b	16	;B
    440  534e		       50		      .byte.b	80	;R (14)
    441  534f		       40		      .byte.b	64	;G
    442  5350		       10		      .byte.b	16	;B
    443  5351		       50		      .byte.b	80	;R (13)
    444  5352		       40		      .byte.b	64	;G
    445  5353		       10		      .byte.b	16	;B
    446  5354		       50		      .byte.b	80	;R (12)
    447  5355		       40		      .byte.b	64	;G
    448  5356		       10		      .byte.b	16	;B
    449  5357		       50		      .byte.b	80	;R (11)
    450  5358		       40		      .byte.b	64	;G
    451  5359		       10		      .byte.b	16	;B
    452  535a		       50		      .byte.b	80	;R (10)
    453  535b		       40		      .byte.b	64	;G
    454  535c		       10		      .byte.b	16	;B
    455  535d		       50		      .byte.b	80	;R (9)
    456  535e		       40		      .byte.b	64	;G
    457  535f		       10		      .byte.b	16	;B
    458  5360		       d0		      .byte.b	208	;R (8)
    459  5361		       c0		      .byte.b	192	;G
    460  5362		       10		      .byte.b	16	;B
    461  5363		       d0		      .byte.b	208	;R (7)
    462  5364		       c0		      .byte.b	192	;G
    463  5365		       10		      .byte.b	16	;B
    464  5366		       d0		      .byte.b	208	;R (6)
    465  5367		       c0		      .byte.b	192	;G
    466  5368		       10		      .byte.b	16	;B
    467  5369		       d0		      .byte.b	208	;R (5)
    468  536a		       c0		      .byte.b	192	;G
    469  536b		       10		      .byte.b	16	;B
    470  536c		       c0		      .byte.b	192	;R (4)
    471  536d		       e0		      .byte.b	224	;G
    472  536e		       00		      .byte.b	0	;B
    473  536f		       00		      .byte.b	0	;R (3)
    474  5370		       f0		      .byte.b	240	;G
    475  5371		       00		      .byte.b	0	;B
    476  5372		       00		      .byte.b	0	;R (2)
    477  5373		       f0		      .byte.b	240	;G
    478  5374		       00		      .byte.b	0	;B
    479  5375		       f0		      .byte.b	240	;R (1)
    480  5376		       f0		      .byte.b	240	;G
    481  5377		       f0		      .byte.b	240	;B
    482  5378		       f0		      .byte.b	240	;R (0)
    483  5379		       f0		      .byte.b	240	;G
    484  537a		       f0		      .byte.b	240	;B
    485  537b				   COL_4
    486  537b		       ff		      .byte.b	255	;R (39)
    487  537c		       ff		      .byte.b	255	;G
    488  537d		       ff		      .byte.b	255	;B
    489  537e		       ff		      .byte.b	255	;R (38)
    490  537f		       ff		      .byte.b	255	;G
    491  5380		       ff		      .byte.b	255	;B
    492  5381		       00		      .byte.b	0	;R (37)
    493  5382		       ff		      .byte.b	255	;G
    494  5383		       ff		      .byte.b	255	;B
    495  5384		       00		      .byte.b	0	;R (36)
    496  5385		       79		      .byte.b	121	;G
    497  5386		       79		      .byte.b	121	;B
    498  5387		       86		      .byte.b	134	;R (35)
    499  5388		       be		      .byte.b	190	;G
    500  5389		       38		      .byte.b	56	;B
    501  538a		       86		      .byte.b	134	;R (34)
    502  538b		       be		      .byte.b	190	;G
    503  538c		       38		      .byte.b	56	;B
    504  538d		       ce		      .byte.b	206	;R (33)
    505  538e		       de		      .byte.b	222	;G
    506  538f		       10		      .byte.b	16	;B
    507  5390		       ee		      .byte.b	238	;R (32)
    508  5391		       ee		      .byte.b	238	;G
    509  5392		       00		      .byte.b	0	;B
    510  5393		       ef		      .byte.b	239	;R (31)
    511  5394		       ef		      .byte.b	239	;G
    512  5395		       00		      .byte.b	0	;B
    513  5396		       6f		      .byte.b	111	;R (30)
    514  5397		       ef		      .byte.b	239	;G
    515  5398		       80		      .byte.b	128	;B
    516  5399		       29		      .byte.b	41	;R (29)
    517  539a		       e9		      .byte.b	233	;G
    518  539b		       c2		      .byte.b	194	;B
    519  539c		       29		      .byte.b	41	;R (28)
    520  539d		       e9		      .byte.b	233	;G
    521  539e		       c2		      .byte.b	194	;B
    522  539f		       29		      .byte.b	41	;R (27)
    523  53a0		       e9		      .byte.b	233	;G
    524  53a1		       c2		      .byte.b	194	;B
    525  53a2		       29		      .byte.b	41	;R (26)
    526  53a3		       e9		      .byte.b	233	;G
    527  53a4		       c2		      .byte.b	194	;B
    528  53a5		       69		      .byte.b	105	;R (25)
    529  53a6		       e9		      .byte.b	233	;G
    530  53a7		       82		      .byte.b	130	;B
    531  53a8		       69		      .byte.b	105	;R (24)
    532  53a9		       e9		      .byte.b	233	;G
    533  53aa		       82		      .byte.b	130	;B
    534  53ab		       69		      .byte.b	105	;R (23)
    535  53ac		       69		      .byte.b	105	;G
    536  53ad		       02		      .byte.b	2	;B
    537  53ae		       e9		      .byte.b	233	;R (22)
    538  53af		       e9		      .byte.b	233	;G
    539  53b0		       02		      .byte.b	2	;B
    540  53b1		       c9		      .byte.b	201	;R (21)
    541  53b2		       c9		      .byte.b	201	;G
    542  53b3		       12		      .byte.b	18	;B
    543  53b4		       c9		      .byte.b	201	;R (20)
    544  53b5		       c9		      .byte.b	201	;G
    545  53b6		       12		      .byte.b	18	;B
    546  53b7		       c9		      .byte.b	201	;R (19)
    547  53b8		       c9		      .byte.b	201	;G
    548  53b9		       12		      .byte.b	18	;B
    549  53ba		       49		      .byte.b	73	;R (18)
    550  53bb		       49		      .byte.b	73	;G
    551  53bc		       12		      .byte.b	18	;B
    552  53bd		       e9		      .byte.b	233	;R (17)
    553  53be		       29		      .byte.b	41	;G
    554  53bf		       02		      .byte.b	2	;B
    555  53c0		       e9		      .byte.b	233	;R (16)
    556  53c1		       29		      .byte.b	41	;G
    557  53c2		       02		      .byte.b	2	;B
    558  53c3		       e9		      .byte.b	233	;R (15)
    559  53c4		       29		      .byte.b	41	;G
    560  53c5		       02		      .byte.b	2	;B
    561  53c6		       e9		      .byte.b	233	;R (14)
    562  53c7		       29		      .byte.b	41	;G
    563  53c8		       02		      .byte.b	2	;B
    564  53c9		       e9		      .byte.b	233	;R (13)
    565  53ca		       29		      .byte.b	41	;G
    566  53cb		       02		      .byte.b	2	;B
    567  53cc		       e9		      .byte.b	233	;R (12)
    568  53cd		       29		      .byte.b	41	;G
    569  53ce		       02		      .byte.b	2	;B
    570  53cf		       e9		      .byte.b	233	;R (11)
    571  53d0		       69		      .byte.b	105	;G
    572  53d1		       02		      .byte.b	2	;B
    573  53d2		       e9		      .byte.b	233	;R (10)
    574  53d3		       69		      .byte.b	105	;G
    575  53d4		       02		      .byte.b	2	;B
    576  53d5		       6d		      .byte.b	109	;R (9)
    577  53d6		       6d		      .byte.b	109	;G
    578  53d7		       00		      .byte.b	0	;B
    579  53d8		       dd		      .byte.b	221	;R (8)
    580  53d9		       cd		      .byte.b	205	;G
    581  53da		       00		      .byte.b	0	;B
    582  53db		       df		      .byte.b	223	;R (7)
    583  53dc		       cf		      .byte.b	207	;G
    584  53dd		       00		      .byte.b	0	;B
    585  53de		       df		      .byte.b	223	;R (6)
    586  53df		       c7		      .byte.b	199	;G
    587  53e0		       00		      .byte.b	0	;B
    588  53e1		       9f		      .byte.b	159	;R (5)
    589  53e2		       87		      .byte.b	135	;G
    590  53e3		       00		      .byte.b	0	;B
    591  53e4		       be		      .byte.b	190	;R (4)
    592  53e5		       82		      .byte.b	130	;G
    593  53e6		       00		      .byte.b	0	;B
    594  53e7		       3f		      .byte.b	63	;R (3)
    595  53e8		       c0		      .byte.b	192	;G
    596  53e9		       00		      .byte.b	0	;B
    597  53ea		       1f		      .byte.b	31	;R (2)
    598  53eb		       e0		      .byte.b	224	;G
    599  53ec		       00		      .byte.b	0	;B
    600  53ed		       ff		      .byte.b	255	;R (1)
    601  53ee		       ff		      .byte.b	255	;G
    602  53ef		       ff		      .byte.b	255	;B
    603  53f0		       ff		      .byte.b	255	;R (0)
    604  53f1		       ff		      .byte.b	255	;G
    605  53f2		       ff		      .byte.b	255	;B
    606  53f3				   COL_5
    607  53f3		       3f		      .byte.b	63	;R (39)
    608  53f4		       3f		      .byte.b	63	;G
    609  53f5		       3f		      .byte.b	63	;B
    610  53f6		       7f		      .byte.b	127	;R (38)
    611  53f7		       7f		      .byte.b	127	;G
    612  53f8		       7f		      .byte.b	127	;B
    613  53f9		       40		      .byte.b	64	;R (37)
    614  53fa		       7f		      .byte.b	127	;G
    615  53fb		       7f		      .byte.b	127	;B
    616  53fc		       c0		      .byte.b	192	;R (36)
    617  53fd		       f3		      .byte.b	243	;G
    618  53fe		       f3		      .byte.b	243	;B
    619  53ff		       8c		      .byte.b	140	;R (35)
    620  5400		       ef		      .byte.b	239	;G
    621  5401		       e3		      .byte.b	227	;B
    622  5402		       8c		      .byte.b	140	;R (34)
    623  5403		       ef		      .byte.b	239	;G
    624  5404		       e3		      .byte.b	227	;B
    625  5405		       8e		      .byte.b	142	;R (33)
    626  5406		       ef		      .byte.b	239	;G
    627  5407		       e1		      .byte.b	225	;B
    628  5408		       8e		      .byte.b	142	;R (32)
    629  5409		       ef		      .byte.b	239	;G
    630  540a		       e1		      .byte.b	225	;B
    631  540b		       9e		      .byte.b	158	;R (31)
    632  540c		       9e		      .byte.b	158	;G
    633  540d		       c0		      .byte.b	192	;B
    634  540e		       9e		      .byte.b	158	;R (30)
    635  540f		       9e		      .byte.b	158	;G
    636  5410		       c0		      .byte.b	192	;B
    637  5411		       92		      .byte.b	146	;R (29)
    638  5412		       92		      .byte.b	146	;G
    639  5413		       c8		      .byte.b	200	;B
    640  5414		       92		      .byte.b	146	;R (28)
    641  5415		       92		      .byte.b	146	;G
    642  5416		       c8		      .byte.b	200	;B
    643  5417		       92		      .byte.b	146	;R (27)
    644  5418		       92		      .byte.b	146	;G
    645  5419		       c8		      .byte.b	200	;B
    646  541a		       92		      .byte.b	146	;R (26)
    647  541b		       92		      .byte.b	146	;G
    648  541c		       c8		      .byte.b	200	;B
    649  541d		       92		      .byte.b	146	;R (25)
    650  541e		       92		      .byte.b	146	;G
    651  541f		       c8		      .byte.b	200	;B
    652  5420		       92		      .byte.b	146	;R (24)
    653  5421		       92		      .byte.b	146	;G
    654  5422		       c8		      .byte.b	200	;B
    655  5423		       92		      .byte.b	146	;R (23)
    656  5424		       92		      .byte.b	146	;G
    657  5425		       c8		      .byte.b	200	;B
    658  5426		       92		      .byte.b	146	;R (22)
    659  5427		       92		      .byte.b	146	;G
    660  5428		       c8		      .byte.b	200	;B
    661  5429		       92		      .byte.b	146	;R (21)
    662  542a		       92		      .byte.b	146	;G
    663  542b		       c8		      .byte.b	200	;B
    664  542c		       92		      .byte.b	146	;R (20)
    665  542d		       92		      .byte.b	146	;G
    666  542e		       c8		      .byte.b	200	;B
    667  542f		       92		      .byte.b	146	;R (19)
    668  5430		       92		      .byte.b	146	;G
    669  5431		       c8		      .byte.b	200	;B
    670  5432		       92		      .byte.b	146	;R (18)
    671  5433		       92		      .byte.b	146	;G
    672  5434		       c8		      .byte.b	200	;B
    673  5435		       92		      .byte.b	146	;R (17)
    674  5436		       92		      .byte.b	146	;G
    675  5437		       c8		      .byte.b	200	;B
    676  5438		       92		      .byte.b	146	;R (16)
    677  5439		       92		      .byte.b	146	;G
    678  543a		       c8		      .byte.b	200	;B
    679  543b		       92		      .byte.b	146	;R (15)
    680  543c		       92		      .byte.b	146	;G
    681  543d		       c8		      .byte.b	200	;B
    682  543e		       92		      .byte.b	146	;R (14)
    683  543f		       92		      .byte.b	146	;G
    684  5440		       c8		      .byte.b	200	;B
    685  5441		       92		      .byte.b	146	;R (13)
    686  5442		       92		      .byte.b	146	;G
    687  5443		       c8		      .byte.b	200	;B
    688  5444		       92		      .byte.b	146	;R (12)
    689  5445		       92		      .byte.b	146	;G
    690  5446		       c8		      .byte.b	200	;B
    691  5447		       92		      .byte.b	146	;R (11)
    692  5448		       92		      .byte.b	146	;G
    693  5449		       c8		      .byte.b	200	;B
    694  544a		       92		      .byte.b	146	;R (10)
    695  544b		       92		      .byte.b	146	;G
    696  544c		       c8		      .byte.b	200	;B
    697  544d		       96		      .byte.b	150	;R (9)
    698  544e		       96		      .byte.b	150	;G
    699  544f		       c0		      .byte.b	192	;B
    700  5450		       96		      .byte.b	150	;R (8)
    701  5451		       96		      .byte.b	150	;G
    702  5452		       c0		      .byte.b	192	;B
    703  5453		       9e		      .byte.b	158	;R (7)
    704  5454		       9e		      .byte.b	158	;G
    705  5455		       c0		      .byte.b	192	;B
    706  5456		       9e		      .byte.b	158	;R (6)
    707  5457		       9c		      .byte.b	156	;G
    708  5458		       c0		      .byte.b	192	;B
    709  5459		       9e		      .byte.b	158	;R (5)
    710  545a		       9c		      .byte.b	156	;G
    711  545b		       c0		      .byte.b	192	;B
    712  545c		       ef		      .byte.b	239	;R (4)
    713  545d		       88		      .byte.b	136	;G
    714  545e		       80		      .byte.b	128	;B
    715  545f		       7f		      .byte.b	127	;R (3)
    716  5460		       40		      .byte.b	64	;G
    717  5461		       40		      .byte.b	64	;B
    718  5462		       7f		      .byte.b	127	;R (2)
    719  5463		       40		      .byte.b	64	;G
    720  5464		       40		      .byte.b	64	;B
    721  5465		       7f		      .byte.b	127	;R (1)
    722  5466		       7f		      .byte.b	127	;G
    723  5467		       7f		      .byte.b	127	;B
    724  5468		       3f		      .byte.b	63	;R (0)
    725  5469		       3f		      .byte.b	63	;G
    726  546a		       3f		      .byte.b	63	;B
------- FILE titleScreen.asm
    165  546b
      0  546b					      CHECK_BANK_SIZE	"INITBANK"
      1  546b		       04 6b	   .TEMP      =	* - BANK_START
 INITBANK (2K) SIZE =  $46b , FREE= $395
      2  546b					      ECHO	"INITBANK", "(2K) SIZE = ", .TEMP, ", FREE=", ROM_BANK_SIZE - .TEMP
      3  546b				  -	      if	( .TEMP ) > ROM_BANK_SIZE
      4  546b				  -	      ECHO	"BANK OVERFLOW @ ", * - ORIGIN
      5  546b				  -	      ERR
      6  546b					      endif
------- FILE ./sokoboo.asm
------- FILE BANK_INITBANK.asm LEVEL 2 PASS 4
      0  546b					      include	"BANK_INITBANK.asm"	; MUST be after banks that include levels -- otherwise MAX_LEVELBANK is not calculated properly
      1  546b							;    Sokoboo - a Sokoban implementation
      2  546b							;    using a generic tile-based display engine for the Atari 2600
      3  546b							;    Sokoban (倉庫番)™ is © Falcon Co., Ltd.
      4  546b							;
      5  546b							;    Code related to this Sokoban™ implementation was developed by Andrew Davie.
      6  546b							;
      7  546b							;    Code related to the generic tile-based display engine was developed by
      8  546b							;    Andrew Davie and Thomas Jentzsch during 2003-2011 and is
      9  546b							;    Copyright(C)2003-2019 Thomas Jentzsch and Andrew Davie - contacts details:
     10  546b							;    Andrew Davie (andrew@taswegian.com), Thomas Jentzsch (tjentzsch@yahoo.de).
     11  546b							;
     12  546b							;    Code related to music and sound effects uses the TIATracker music player
     13  546b							;    Copyright 2016 Andre "Kylearan" Wichmann - see source code in the "sound"
     14  546b							;    directory for Apache licensing details.
     15  546b							;
     16  546b							;    Some level data incorporated in this program were created by Lee J Haywood.
     17  546b							;    See the copyright notices in the License directory for a list of level
     18  546b							;    contributors.
     19  546b							;
     20  546b							;    Except where otherwise indicated, this software is released under the
     21  546b							;    following licensing arrangement...
     22  546b							;
     23  546b							;    This program is free software: you can redistribute it and/or modify
     24  546b							;    it under the terms of the GNU General Public License as published by
     25  546b							;    the Free Software Foundation, either version 3 of the License, or
     26  546b							;    (at your option) any later version.
     27  546b							;    see https://www.gnu.org/licenses/gpl-3.0.en.html
     28  546b
     29  546b							;    This program is distributed in the hope that it will be useful,
     30  546b							;    but WITHOUT ANY WARRANTY; without even the implied warranty of
     31  546b							;    MERCHANTABILITY or FITNESS FOR A PARTICULAR PURPOSE.  See the
     32  546b							;    GNU General Public License for more details.
     33  546b
      0  546b					      NEWBANK	INITBANK
      1  5b15 ????				      SEG	INITBANK
      2  5800					      ORG	ORIGIN
      3  5800					      RORG	$F000
      4  5800				   BANK_START SET	*
      5  5800				   INITBANK   SET	ORIGIN / 2048
      6  5800				   ORIGIN     SET	ORIGIN + 2048
      7  5800				   _CURRENT_BANK SET	INITBANK
     35  5800
     36  5800		       00		      .byte.b	0	; to avoid extra cycle when accessing via BoardLineStartLO-1,y
     37  5801
      0  5801					      DEFINE_SUBROUTINE	BoardLineStartLO
      1  5801		       00 0b	   BANK_BoardLineStartLO =	_CURRENT_BANK
      2  5801					      SUBROUTINE
      3  5801				   BoardLineStartLO
     39  5801
     40  5801							; Gives the start address (LO) of each board line
     41  5801					      if	1
     42  5801				   .BOARD_LOCATION SET	Board
     43  5801					      REPEAT	SIZE_BOARD_Y
     44  5801				  -	      IF	>.BOARD_LOCATION != >(.BOARD_LOCATION + SIZE_BOARD_X-1)
     45  5801				  -.BOARD_LOCATION SET	.BOARD_LOCATION - <.BOARD_LOCATION + 256
     46  5801					      ENDIF
     47  5801		       00		      .byte.b	<.BOARD_LOCATION
     48  5801				   .BOARD_LOCATION SET	.BOARD_LOCATION + SIZE_BOARD_X
     43  5801					      REPEND
     44  5802				  -	      IF	>.BOARD_LOCATION != >(.BOARD_LOCATION + SIZE_BOARD_X-1)
     45  5802				  -.BOARD_LOCATION SET	.BOARD_LOCATION - <.BOARD_LOCATION + 256
     46  5802					      ENDIF
     47  5802		       18		      .byte.b	<.BOARD_LOCATION
     48  5802				   .BOARD_LOCATION SET	.BOARD_LOCATION + SIZE_BOARD_X
     43  5802					      REPEND
     44  5803				  -	      IF	>.BOARD_LOCATION != >(.BOARD_LOCATION + SIZE_BOARD_X-1)
     45  5803				  -.BOARD_LOCATION SET	.BOARD_LOCATION - <.BOARD_LOCATION + 256
     46  5803					      ENDIF
     47  5803		       30		      .byte.b	<.BOARD_LOCATION
     48  5803				   .BOARD_LOCATION SET	.BOARD_LOCATION + SIZE_BOARD_X
     43  5803					      REPEND
     44  5804				  -	      IF	>.BOARD_LOCATION != >(.BOARD_LOCATION + SIZE_BOARD_X-1)
     45  5804				  -.BOARD_LOCATION SET	.BOARD_LOCATION - <.BOARD_LOCATION + 256
     46  5804					      ENDIF
     47  5804		       48		      .byte.b	<.BOARD_LOCATION
     48  5804				   .BOARD_LOCATION SET	.BOARD_LOCATION + SIZE_BOARD_X
     43  5804					      REPEND
     44  5805				  -	      IF	>.BOARD_LOCATION != >(.BOARD_LOCATION + SIZE_BOARD_X-1)
     45  5805				  -.BOARD_LOCATION SET	.BOARD_LOCATION - <.BOARD_LOCATION + 256
     46  5805					      ENDIF
     47  5805		       60		      .byte.b	<.BOARD_LOCATION
     48  5805				   .BOARD_LOCATION SET	.BOARD_LOCATION + SIZE_BOARD_X
     43  5805					      REPEND
     44  5806				  -	      IF	>.BOARD_LOCATION != >(.BOARD_LOCATION + SIZE_BOARD_X-1)
     45  5806				  -.BOARD_LOCATION SET	.BOARD_LOCATION - <.BOARD_LOCATION + 256
     46  5806					      ENDIF
     47  5806		       78		      .byte.b	<.BOARD_LOCATION
     48  5806				   .BOARD_LOCATION SET	.BOARD_LOCATION + SIZE_BOARD_X
     43  5806					      REPEND
     44  5807				  -	      IF	>.BOARD_LOCATION != >(.BOARD_LOCATION + SIZE_BOARD_X-1)
     45  5807				  -.BOARD_LOCATION SET	.BOARD_LOCATION - <.BOARD_LOCATION + 256
     46  5807					      ENDIF
     47  5807		       90		      .byte.b	<.BOARD_LOCATION
     48  5807				   .BOARD_LOCATION SET	.BOARD_LOCATION + SIZE_BOARD_X
     43  5807					      REPEND
     44  5808				  -	      IF	>.BOARD_LOCATION != >(.BOARD_LOCATION + SIZE_BOARD_X-1)
     45  5808				  -.BOARD_LOCATION SET	.BOARD_LOCATION - <.BOARD_LOCATION + 256
     46  5808					      ENDIF
     47  5808		       a8		      .byte.b	<.BOARD_LOCATION
     48  5808				   .BOARD_LOCATION SET	.BOARD_LOCATION + SIZE_BOARD_X
     43  5808					      REPEND
     44  5809				  -	      IF	>.BOARD_LOCATION != >(.BOARD_LOCATION + SIZE_BOARD_X-1)
     45  5809				  -.BOARD_LOCATION SET	.BOARD_LOCATION - <.BOARD_LOCATION + 256
     46  5809					      ENDIF
     47  5809		       c0		      .byte.b	<.BOARD_LOCATION
     48  5809				   .BOARD_LOCATION SET	.BOARD_LOCATION + SIZE_BOARD_X
     43  5809					      REPEND
     44  580a				  -	      IF	>.BOARD_LOCATION != >(.BOARD_LOCATION + SIZE_BOARD_X-1)
     45  580a				  -.BOARD_LOCATION SET	.BOARD_LOCATION - <.BOARD_LOCATION + 256
     46  580a					      ENDIF
     47  580a		       d8		      .byte.b	<.BOARD_LOCATION
     48  580a				   .BOARD_LOCATION SET	.BOARD_LOCATION + SIZE_BOARD_X
     43  580a					      REPEND
     44  580b					      IF	>.BOARD_LOCATION != >(.BOARD_LOCATION + SIZE_BOARD_X-1)
     45  580b				   .BOARD_LOCATION SET	.BOARD_LOCATION - <.BOARD_LOCATION + 256
     46  580b					      ENDIF
     47  580b		       00		      .byte.b	<.BOARD_LOCATION
     48  580b				   .BOARD_LOCATION SET	.BOARD_LOCATION + SIZE_BOARD_X
     43  580b					      REPEND
     44  580c				  -	      IF	>.BOARD_LOCATION != >(.BOARD_LOCATION + SIZE_BOARD_X-1)
     45  580c				  -.BOARD_LOCATION SET	.BOARD_LOCATION - <.BOARD_LOCATION + 256
     46  580c					      ENDIF
     47  580c		       18		      .byte.b	<.BOARD_LOCATION
     48  580c				   .BOARD_LOCATION SET	.BOARD_LOCATION + SIZE_BOARD_X
     43  580c					      REPEND
     44  580d				  -	      IF	>.BOARD_LOCATION != >(.BOARD_LOCATION + SIZE_BOARD_X-1)
     45  580d				  -.BOARD_LOCATION SET	.BOARD_LOCATION - <.BOARD_LOCATION + 256
     46  580d					      ENDIF
     47  580d		       30		      .byte.b	<.BOARD_LOCATION
     48  580d				   .BOARD_LOCATION SET	.BOARD_LOCATION + SIZE_BOARD_X
     43  580d					      REPEND
     44  580e				  -	      IF	>.BOARD_LOCATION != >(.BOARD_LOCATION + SIZE_BOARD_X-1)
     45  580e				  -.BOARD_LOCATION SET	.BOARD_LOCATION - <.BOARD_LOCATION + 256
     46  580e					      ENDIF
     47  580e		       48		      .byte.b	<.BOARD_LOCATION
     48  580e				   .BOARD_LOCATION SET	.BOARD_LOCATION + SIZE_BOARD_X
     43  580e					      REPEND
     44  580f				  -	      IF	>.BOARD_LOCATION != >(.BOARD_LOCATION + SIZE_BOARD_X-1)
     45  580f				  -.BOARD_LOCATION SET	.BOARD_LOCATION - <.BOARD_LOCATION + 256
     46  580f					      ENDIF
     47  580f		       60		      .byte.b	<.BOARD_LOCATION
     48  580f				   .BOARD_LOCATION SET	.BOARD_LOCATION + SIZE_BOARD_X
     43  580f					      REPEND
     44  5810				  -	      IF	>.BOARD_LOCATION != >(.BOARD_LOCATION + SIZE_BOARD_X-1)
     45  5810				  -.BOARD_LOCATION SET	.BOARD_LOCATION - <.BOARD_LOCATION + 256
     46  5810					      ENDIF
     47  5810		       78		      .byte.b	<.BOARD_LOCATION
     48  5810				   .BOARD_LOCATION SET	.BOARD_LOCATION + SIZE_BOARD_X
     43  5810					      REPEND
     44  5811				  -	      IF	>.BOARD_LOCATION != >(.BOARD_LOCATION + SIZE_BOARD_X-1)
     45  5811				  -.BOARD_LOCATION SET	.BOARD_LOCATION - <.BOARD_LOCATION + 256
     46  5811					      ENDIF
     47  5811		       90		      .byte.b	<.BOARD_LOCATION
     48  5811				   .BOARD_LOCATION SET	.BOARD_LOCATION + SIZE_BOARD_X
     43  5811					      REPEND
     44  5812				  -	      IF	>.BOARD_LOCATION != >(.BOARD_LOCATION + SIZE_BOARD_X-1)
     45  5812				  -.BOARD_LOCATION SET	.BOARD_LOCATION - <.BOARD_LOCATION + 256
     46  5812					      ENDIF
     47  5812		       a8		      .byte.b	<.BOARD_LOCATION
     48  5812				   .BOARD_LOCATION SET	.BOARD_LOCATION + SIZE_BOARD_X
     43  5812					      REPEND
     44  5813				  -	      IF	>.BOARD_LOCATION != >(.BOARD_LOCATION + SIZE_BOARD_X-1)
     45  5813				  -.BOARD_LOCATION SET	.BOARD_LOCATION - <.BOARD_LOCATION + 256
     46  5813					      ENDIF
     47  5813		       c0		      .byte.b	<.BOARD_LOCATION
     48  5813				   .BOARD_LOCATION SET	.BOARD_LOCATION + SIZE_BOARD_X
     43  5813					      REPEND
     44  5814				  -	      IF	>.BOARD_LOCATION != >(.BOARD_LOCATION + SIZE_BOARD_X-1)
     45  5814				  -.BOARD_LOCATION SET	.BOARD_LOCATION - <.BOARD_LOCATION + 256
     46  5814					      ENDIF
     47  5814		       d8		      .byte.b	<.BOARD_LOCATION
     48  5814				   .BOARD_LOCATION SET	.BOARD_LOCATION + SIZE_BOARD_X
     49  5815					      REPEND
      0  5815					      CHECKPAGEX	BoardLineStartLO, "BoardLineStartLO in BANK_INITBANK.asm"
      9  5815					      LIST	ON
     51  5815
     52  5815		       01 f0	   SIZE_BOARD =	.BOARD_LOCATION-Board	; verify calculated value
     53  5815					      endif
     54  5815
     55  5815							;------------------------------------------------------------------------------
     56  5815
     57  5815				   BoardLineStartHiR
     58  5815
     59  5815							; Gives the start address (HI) of each board line
     60  5815							; Note this caters for the memory wrapping when we go from bank to bank, as
     61  5815							; the board overlays multiple banks!
     62  5815
     63  5815				   .BOARD_LOCATION SET	Board
     64  5815					      REPEAT	SIZE_BOARD_Y
     65  5815				  -	      IF	>.BOARD_LOCATION != >(.BOARD_LOCATION + SIZE_BOARD_X-1)
     66  5815				  -.BOARD_LOCATION SET	.BOARD_LOCATION - <.BOARD_LOCATION + 256
     67  5815					      ENDIF
     68  5815		       10		      .byte.b	>( .BOARD_LOCATION & $13FF )	; cater for mirroring of memory images
     69  5815				   .BOARD_LOCATION SET	.BOARD_LOCATION + SIZE_BOARD_X
     64  5815					      REPEND
     65  5816				  -	      IF	>.BOARD_LOCATION != >(.BOARD_LOCATION + SIZE_BOARD_X-1)
     66  5816				  -.BOARD_LOCATION SET	.BOARD_LOCATION - <.BOARD_LOCATION + 256
     67  5816					      ENDIF
     68  5816		       10		      .byte.b	>( .BOARD_LOCATION & $13FF )	; cater for mirroring of memory images
     69  5816				   .BOARD_LOCATION SET	.BOARD_LOCATION + SIZE_BOARD_X
     64  5816					      REPEND
     65  5817				  -	      IF	>.BOARD_LOCATION != >(.BOARD_LOCATION + SIZE_BOARD_X-1)
     66  5817				  -.BOARD_LOCATION SET	.BOARD_LOCATION - <.BOARD_LOCATION + 256
     67  5817					      ENDIF
     68  5817		       10		      .byte.b	>( .BOARD_LOCATION & $13FF )	; cater for mirroring of memory images
     69  5817				   .BOARD_LOCATION SET	.BOARD_LOCATION + SIZE_BOARD_X
     64  5817					      REPEND
     65  5818				  -	      IF	>.BOARD_LOCATION != >(.BOARD_LOCATION + SIZE_BOARD_X-1)
     66  5818				  -.BOARD_LOCATION SET	.BOARD_LOCATION - <.BOARD_LOCATION + 256
     67  5818					      ENDIF
     68  5818		       10		      .byte.b	>( .BOARD_LOCATION & $13FF )	; cater for mirroring of memory images
     69  5818				   .BOARD_LOCATION SET	.BOARD_LOCATION + SIZE_BOARD_X
     64  5818					      REPEND
     65  5819				  -	      IF	>.BOARD_LOCATION != >(.BOARD_LOCATION + SIZE_BOARD_X-1)
     66  5819				  -.BOARD_LOCATION SET	.BOARD_LOCATION - <.BOARD_LOCATION + 256
     67  5819					      ENDIF
     68  5819		       10		      .byte.b	>( .BOARD_LOCATION & $13FF )	; cater for mirroring of memory images
     69  5819				   .BOARD_LOCATION SET	.BOARD_LOCATION + SIZE_BOARD_X
     64  5819					      REPEND
     65  581a				  -	      IF	>.BOARD_LOCATION != >(.BOARD_LOCATION + SIZE_BOARD_X-1)
     66  581a				  -.BOARD_LOCATION SET	.BOARD_LOCATION - <.BOARD_LOCATION + 256
     67  581a					      ENDIF
     68  581a		       10		      .byte.b	>( .BOARD_LOCATION & $13FF )	; cater for mirroring of memory images
     69  581a				   .BOARD_LOCATION SET	.BOARD_LOCATION + SIZE_BOARD_X
     64  581a					      REPEND
     65  581b				  -	      IF	>.BOARD_LOCATION != >(.BOARD_LOCATION + SIZE_BOARD_X-1)
     66  581b				  -.BOARD_LOCATION SET	.BOARD_LOCATION - <.BOARD_LOCATION + 256
     67  581b					      ENDIF
     68  581b		       10		      .byte.b	>( .BOARD_LOCATION & $13FF )	; cater for mirroring of memory images
     69  581b				   .BOARD_LOCATION SET	.BOARD_LOCATION + SIZE_BOARD_X
     64  581b					      REPEND
     65  581c				  -	      IF	>.BOARD_LOCATION != >(.BOARD_LOCATION + SIZE_BOARD_X-1)
     66  581c				  -.BOARD_LOCATION SET	.BOARD_LOCATION - <.BOARD_LOCATION + 256
     67  581c					      ENDIF
     68  581c		       10		      .byte.b	>( .BOARD_LOCATION & $13FF )	; cater for mirroring of memory images
     69  581c				   .BOARD_LOCATION SET	.BOARD_LOCATION + SIZE_BOARD_X
     64  581c					      REPEND
     65  581d				  -	      IF	>.BOARD_LOCATION != >(.BOARD_LOCATION + SIZE_BOARD_X-1)
     66  581d				  -.BOARD_LOCATION SET	.BOARD_LOCATION - <.BOARD_LOCATION + 256
     67  581d					      ENDIF
     68  581d		       10		      .byte.b	>( .BOARD_LOCATION & $13FF )	; cater for mirroring of memory images
     69  581d				   .BOARD_LOCATION SET	.BOARD_LOCATION + SIZE_BOARD_X
     64  581d					      REPEND
     65  581e				  -	      IF	>.BOARD_LOCATION != >(.BOARD_LOCATION + SIZE_BOARD_X-1)
     66  581e				  -.BOARD_LOCATION SET	.BOARD_LOCATION - <.BOARD_LOCATION + 256
     67  581e					      ENDIF
     68  581e		       10		      .byte.b	>( .BOARD_LOCATION & $13FF )	; cater for mirroring of memory images
     69  581e				   .BOARD_LOCATION SET	.BOARD_LOCATION + SIZE_BOARD_X
     64  581e					      REPEND
     65  581f					      IF	>.BOARD_LOCATION != >(.BOARD_LOCATION + SIZE_BOARD_X-1)
     66  581f				   .BOARD_LOCATION SET	.BOARD_LOCATION - <.BOARD_LOCATION + 256
     67  581f					      ENDIF
     68  581f		       11		      .byte.b	>( .BOARD_LOCATION & $13FF )	; cater for mirroring of memory images
     69  581f				   .BOARD_LOCATION SET	.BOARD_LOCATION + SIZE_BOARD_X
     64  581f					      REPEND
     65  5820				  -	      IF	>.BOARD_LOCATION != >(.BOARD_LOCATION + SIZE_BOARD_X-1)
     66  5820				  -.BOARD_LOCATION SET	.BOARD_LOCATION - <.BOARD_LOCATION + 256
     67  5820					      ENDIF
     68  5820		       11		      .byte.b	>( .BOARD_LOCATION & $13FF )	; cater for mirroring of memory images
     69  5820				   .BOARD_LOCATION SET	.BOARD_LOCATION + SIZE_BOARD_X
     64  5820					      REPEND
     65  5821				  -	      IF	>.BOARD_LOCATION != >(.BOARD_LOCATION + SIZE_BOARD_X-1)
     66  5821				  -.BOARD_LOCATION SET	.BOARD_LOCATION - <.BOARD_LOCATION + 256
     67  5821					      ENDIF
     68  5821		       11		      .byte.b	>( .BOARD_LOCATION & $13FF )	; cater for mirroring of memory images
     69  5821				   .BOARD_LOCATION SET	.BOARD_LOCATION + SIZE_BOARD_X
     64  5821					      REPEND
     65  5822				  -	      IF	>.BOARD_LOCATION != >(.BOARD_LOCATION + SIZE_BOARD_X-1)
     66  5822				  -.BOARD_LOCATION SET	.BOARD_LOCATION - <.BOARD_LOCATION + 256
     67  5822					      ENDIF
     68  5822		       11		      .byte.b	>( .BOARD_LOCATION & $13FF )	; cater for mirroring of memory images
     69  5822				   .BOARD_LOCATION SET	.BOARD_LOCATION + SIZE_BOARD_X
     64  5822					      REPEND
     65  5823				  -	      IF	>.BOARD_LOCATION != >(.BOARD_LOCATION + SIZE_BOARD_X-1)
     66  5823				  -.BOARD_LOCATION SET	.BOARD_LOCATION - <.BOARD_LOCATION + 256
     67  5823					      ENDIF
     68  5823		       11		      .byte.b	>( .BOARD_LOCATION & $13FF )	; cater for mirroring of memory images
     69  5823				   .BOARD_LOCATION SET	.BOARD_LOCATION + SIZE_BOARD_X
     64  5823					      REPEND
     65  5824				  -	      IF	>.BOARD_LOCATION != >(.BOARD_LOCATION + SIZE_BOARD_X-1)
     66  5824				  -.BOARD_LOCATION SET	.BOARD_LOCATION - <.BOARD_LOCATION + 256
     67  5824					      ENDIF
     68  5824		       11		      .byte.b	>( .BOARD_LOCATION & $13FF )	; cater for mirroring of memory images
     69  5824				   .BOARD_LOCATION SET	.BOARD_LOCATION + SIZE_BOARD_X
     64  5824					      REPEND
     65  5825				  -	      IF	>.BOARD_LOCATION != >(.BOARD_LOCATION + SIZE_BOARD_X-1)
     66  5825				  -.BOARD_LOCATION SET	.BOARD_LOCATION - <.BOARD_LOCATION + 256
     67  5825					      ENDIF
     68  5825		       11		      .byte.b	>( .BOARD_LOCATION & $13FF )	; cater for mirroring of memory images
     69  5825				   .BOARD_LOCATION SET	.BOARD_LOCATION + SIZE_BOARD_X
     64  5825					      REPEND
     65  5826				  -	      IF	>.BOARD_LOCATION != >(.BOARD_LOCATION + SIZE_BOARD_X-1)
     66  5826				  -.BOARD_LOCATION SET	.BOARD_LOCATION - <.BOARD_LOCATION + 256
     67  5826					      ENDIF
     68  5826		       11		      .byte.b	>( .BOARD_LOCATION & $13FF )	; cater for mirroring of memory images
     69  5826				   .BOARD_LOCATION SET	.BOARD_LOCATION + SIZE_BOARD_X
     64  5826					      REPEND
     65  5827				  -	      IF	>.BOARD_LOCATION != >(.BOARD_LOCATION + SIZE_BOARD_X-1)
     66  5827				  -.BOARD_LOCATION SET	.BOARD_LOCATION - <.BOARD_LOCATION + 256
     67  5827					      ENDIF
     68  5827		       11		      .byte.b	>( .BOARD_LOCATION & $13FF )	; cater for mirroring of memory images
     69  5827				   .BOARD_LOCATION SET	.BOARD_LOCATION + SIZE_BOARD_X
     64  5827					      REPEND
     65  5828				  -	      IF	>.BOARD_LOCATION != >(.BOARD_LOCATION + SIZE_BOARD_X-1)
     66  5828				  -.BOARD_LOCATION SET	.BOARD_LOCATION - <.BOARD_LOCATION + 256
     67  5828					      ENDIF
     68  5828		       11		      .byte.b	>( .BOARD_LOCATION & $13FF )	; cater for mirroring of memory images
     69  5828				   .BOARD_LOCATION SET	.BOARD_LOCATION + SIZE_BOARD_X
     70  5829					      REPEND
      0  5829					      CHECKPAGEX	BoardLineStartHiR, "BoardLineStartHiR in BANK_INITBANK"
      9  5829					      LIST	ON
     72  5829							;------------------------------------------------------------------------------
     73  5829
     74  5829				   BoardLineStartHiW
     75  5829
     76  5829							; Gives the start address (HI) of each board line
     77  5829							; Note this caters for the memory wrapping when we go from bank to bank, as
     78  5829							; the board overlays multiple banks!
     79  5829
     80  5829				   .BOARD_LOCATION SET	Board
     81  5829					      REPEAT	SIZE_BOARD_Y
     82  5829				  -	      IF	>.BOARD_LOCATION != >(.BOARD_LOCATION + SIZE_BOARD_X-1)
     83  5829				  -.BOARD_LOCATION SET	.BOARD_LOCATION - <.BOARD_LOCATION + 256
     84  5829					      ENDIF
     85  5829		       14		      .byte.b	>( ( .BOARD_LOCATION & $13FF ) + RAM_WRITE )	; cater for mirroring of memory images
     86  5829				   .BOARD_LOCATION SET	.BOARD_LOCATION + SIZE_BOARD_X
     81  5829					      REPEND
     82  582a				  -	      IF	>.BOARD_LOCATION != >(.BOARD_LOCATION + SIZE_BOARD_X-1)
     83  582a				  -.BOARD_LOCATION SET	.BOARD_LOCATION - <.BOARD_LOCATION + 256
     84  582a					      ENDIF
     85  582a		       14		      .byte.b	>( ( .BOARD_LOCATION & $13FF ) + RAM_WRITE )	; cater for mirroring of memory images
     86  582a				   .BOARD_LOCATION SET	.BOARD_LOCATION + SIZE_BOARD_X
     81  582a					      REPEND
     82  582b				  -	      IF	>.BOARD_LOCATION != >(.BOARD_LOCATION + SIZE_BOARD_X-1)
     83  582b				  -.BOARD_LOCATION SET	.BOARD_LOCATION - <.BOARD_LOCATION + 256
     84  582b					      ENDIF
     85  582b		       14		      .byte.b	>( ( .BOARD_LOCATION & $13FF ) + RAM_WRITE )	; cater for mirroring of memory images
     86  582b				   .BOARD_LOCATION SET	.BOARD_LOCATION + SIZE_BOARD_X
     81  582b					      REPEND
     82  582c				  -	      IF	>.BOARD_LOCATION != >(.BOARD_LOCATION + SIZE_BOARD_X-1)
     83  582c				  -.BOARD_LOCATION SET	.BOARD_LOCATION - <.BOARD_LOCATION + 256
     84  582c					      ENDIF
     85  582c		       14		      .byte.b	>( ( .BOARD_LOCATION & $13FF ) + RAM_WRITE )	; cater for mirroring of memory images
     86  582c				   .BOARD_LOCATION SET	.BOARD_LOCATION + SIZE_BOARD_X
     81  582c					      REPEND
     82  582d				  -	      IF	>.BOARD_LOCATION != >(.BOARD_LOCATION + SIZE_BOARD_X-1)
     83  582d				  -.BOARD_LOCATION SET	.BOARD_LOCATION - <.BOARD_LOCATION + 256
     84  582d					      ENDIF
     85  582d		       14		      .byte.b	>( ( .BOARD_LOCATION & $13FF ) + RAM_WRITE )	; cater for mirroring of memory images
     86  582d				   .BOARD_LOCATION SET	.BOARD_LOCATION + SIZE_BOARD_X
     81  582d					      REPEND
     82  582e				  -	      IF	>.BOARD_LOCATION != >(.BOARD_LOCATION + SIZE_BOARD_X-1)
     83  582e				  -.BOARD_LOCATION SET	.BOARD_LOCATION - <.BOARD_LOCATION + 256
     84  582e					      ENDIF
     85  582e		       14		      .byte.b	>( ( .BOARD_LOCATION & $13FF ) + RAM_WRITE )	; cater for mirroring of memory images
     86  582e				   .BOARD_LOCATION SET	.BOARD_LOCATION + SIZE_BOARD_X
     81  582e					      REPEND
     82  582f				  -	      IF	>.BOARD_LOCATION != >(.BOARD_LOCATION + SIZE_BOARD_X-1)
     83  582f				  -.BOARD_LOCATION SET	.BOARD_LOCATION - <.BOARD_LOCATION + 256
     84  582f					      ENDIF
     85  582f		       14		      .byte.b	>( ( .BOARD_LOCATION & $13FF ) + RAM_WRITE )	; cater for mirroring of memory images
     86  582f				   .BOARD_LOCATION SET	.BOARD_LOCATION + SIZE_BOARD_X
     81  582f					      REPEND
     82  5830				  -	      IF	>.BOARD_LOCATION != >(.BOARD_LOCATION + SIZE_BOARD_X-1)
     83  5830				  -.BOARD_LOCATION SET	.BOARD_LOCATION - <.BOARD_LOCATION + 256
     84  5830					      ENDIF
     85  5830		       14		      .byte.b	>( ( .BOARD_LOCATION & $13FF ) + RAM_WRITE )	; cater for mirroring of memory images
     86  5830				   .BOARD_LOCATION SET	.BOARD_LOCATION + SIZE_BOARD_X
     81  5830					      REPEND
     82  5831				  -	      IF	>.BOARD_LOCATION != >(.BOARD_LOCATION + SIZE_BOARD_X-1)
     83  5831				  -.BOARD_LOCATION SET	.BOARD_LOCATION - <.BOARD_LOCATION + 256
     84  5831					      ENDIF
     85  5831		       14		      .byte.b	>( ( .BOARD_LOCATION & $13FF ) + RAM_WRITE )	; cater for mirroring of memory images
     86  5831				   .BOARD_LOCATION SET	.BOARD_LOCATION + SIZE_BOARD_X
     81  5831					      REPEND
     82  5832				  -	      IF	>.BOARD_LOCATION != >(.BOARD_LOCATION + SIZE_BOARD_X-1)
     83  5832				  -.BOARD_LOCATION SET	.BOARD_LOCATION - <.BOARD_LOCATION + 256
     84  5832					      ENDIF
     85  5832		       14		      .byte.b	>( ( .BOARD_LOCATION & $13FF ) + RAM_WRITE )	; cater for mirroring of memory images
     86  5832				   .BOARD_LOCATION SET	.BOARD_LOCATION + SIZE_BOARD_X
     81  5832					      REPEND
     82  5833					      IF	>.BOARD_LOCATION != >(.BOARD_LOCATION + SIZE_BOARD_X-1)
     83  5833				   .BOARD_LOCATION SET	.BOARD_LOCATION - <.BOARD_LOCATION + 256
     84  5833					      ENDIF
     85  5833		       15		      .byte.b	>( ( .BOARD_LOCATION & $13FF ) + RAM_WRITE )	; cater for mirroring of memory images
     86  5833				   .BOARD_LOCATION SET	.BOARD_LOCATION + SIZE_BOARD_X
     81  5833					      REPEND
     82  5834				  -	      IF	>.BOARD_LOCATION != >(.BOARD_LOCATION + SIZE_BOARD_X-1)
     83  5834				  -.BOARD_LOCATION SET	.BOARD_LOCATION - <.BOARD_LOCATION + 256
     84  5834					      ENDIF
     85  5834		       15		      .byte.b	>( ( .BOARD_LOCATION & $13FF ) + RAM_WRITE )	; cater for mirroring of memory images
     86  5834				   .BOARD_LOCATION SET	.BOARD_LOCATION + SIZE_BOARD_X
     81  5834					      REPEND
     82  5835				  -	      IF	>.BOARD_LOCATION != >(.BOARD_LOCATION + SIZE_BOARD_X-1)
     83  5835				  -.BOARD_LOCATION SET	.BOARD_LOCATION - <.BOARD_LOCATION + 256
     84  5835					      ENDIF
     85  5835		       15		      .byte.b	>( ( .BOARD_LOCATION & $13FF ) + RAM_WRITE )	; cater for mirroring of memory images
     86  5835				   .BOARD_LOCATION SET	.BOARD_LOCATION + SIZE_BOARD_X
     81  5835					      REPEND
     82  5836				  -	      IF	>.BOARD_LOCATION != >(.BOARD_LOCATION + SIZE_BOARD_X-1)
     83  5836				  -.BOARD_LOCATION SET	.BOARD_LOCATION - <.BOARD_LOCATION + 256
     84  5836					      ENDIF
     85  5836		       15		      .byte.b	>( ( .BOARD_LOCATION & $13FF ) + RAM_WRITE )	; cater for mirroring of memory images
     86  5836				   .BOARD_LOCATION SET	.BOARD_LOCATION + SIZE_BOARD_X
     81  5836					      REPEND
     82  5837				  -	      IF	>.BOARD_LOCATION != >(.BOARD_LOCATION + SIZE_BOARD_X-1)
     83  5837				  -.BOARD_LOCATION SET	.BOARD_LOCATION - <.BOARD_LOCATION + 256
     84  5837					      ENDIF
     85  5837		       15		      .byte.b	>( ( .BOARD_LOCATION & $13FF ) + RAM_WRITE )	; cater for mirroring of memory images
     86  5837				   .BOARD_LOCATION SET	.BOARD_LOCATION + SIZE_BOARD_X
     81  5837					      REPEND
     82  5838				  -	      IF	>.BOARD_LOCATION != >(.BOARD_LOCATION + SIZE_BOARD_X-1)
     83  5838				  -.BOARD_LOCATION SET	.BOARD_LOCATION - <.BOARD_LOCATION + 256
     84  5838					      ENDIF
     85  5838		       15		      .byte.b	>( ( .BOARD_LOCATION & $13FF ) + RAM_WRITE )	; cater for mirroring of memory images
     86  5838				   .BOARD_LOCATION SET	.BOARD_LOCATION + SIZE_BOARD_X
     81  5838					      REPEND
     82  5839				  -	      IF	>.BOARD_LOCATION != >(.BOARD_LOCATION + SIZE_BOARD_X-1)
     83  5839				  -.BOARD_LOCATION SET	.BOARD_LOCATION - <.BOARD_LOCATION + 256
     84  5839					      ENDIF
     85  5839		       15		      .byte.b	>( ( .BOARD_LOCATION & $13FF ) + RAM_WRITE )	; cater for mirroring of memory images
     86  5839				   .BOARD_LOCATION SET	.BOARD_LOCATION + SIZE_BOARD_X
     81  5839					      REPEND
     82  583a				  -	      IF	>.BOARD_LOCATION != >(.BOARD_LOCATION + SIZE_BOARD_X-1)
     83  583a				  -.BOARD_LOCATION SET	.BOARD_LOCATION - <.BOARD_LOCATION + 256
     84  583a					      ENDIF
     85  583a		       15		      .byte.b	>( ( .BOARD_LOCATION & $13FF ) + RAM_WRITE )	; cater for mirroring of memory images
     86  583a				   .BOARD_LOCATION SET	.BOARD_LOCATION + SIZE_BOARD_X
     81  583a					      REPEND
     82  583b				  -	      IF	>.BOARD_LOCATION != >(.BOARD_LOCATION + SIZE_BOARD_X-1)
     83  583b				  -.BOARD_LOCATION SET	.BOARD_LOCATION - <.BOARD_LOCATION + 256
     84  583b					      ENDIF
     85  583b		       15		      .byte.b	>( ( .BOARD_LOCATION & $13FF ) + RAM_WRITE )	; cater for mirroring of memory images
     86  583b				   .BOARD_LOCATION SET	.BOARD_LOCATION + SIZE_BOARD_X
     81  583b					      REPEND
     82  583c				  -	      IF	>.BOARD_LOCATION != >(.BOARD_LOCATION + SIZE_BOARD_X-1)
     83  583c				  -.BOARD_LOCATION SET	.BOARD_LOCATION - <.BOARD_LOCATION + 256
     84  583c					      ENDIF
     85  583c		       15		      .byte.b	>( ( .BOARD_LOCATION & $13FF ) + RAM_WRITE )	; cater for mirroring of memory images
     86  583c				   .BOARD_LOCATION SET	.BOARD_LOCATION + SIZE_BOARD_X
     87  583d					      REPEND
      0  583d					      CHECKPAGEX	BoardLineStartHiW, "BoardLineStartHiW in BANK_INITBANK"
      9  583d					      LIST	ON
     89  583d
     90  583d							;------------------------------------------------------------------------------
     91  583d				  -	      IF	MULTI_BANK_BOARD = YES
     92  583d				  -BoardBank
     93  583d					      ENDIF
     94  583d							; Gives the RAM bank of the start of the board row for a given row.
     95  583d
     96  583d				   .BOARD_LOCATION SET	Board - RAM_3E
     97  583d					      REPEAT	SIZE_BOARD_Y
     98  583d				  -	      IF	>.BOARD_LOCATION != >(.BOARD_LOCATION + SIZE_BOARD_X-1)
     99  583d				  -.BOARD_LOCATION SET	.BOARD_LOCATION - <.BOARD_LOCATION + 256
    100  583d					      ENDIF
    101  583d				  -	      IF	MULTI_BANK_BOARD = YES
    102  583d				  -	      .byte	BANK_BOARD + (.BOARD_LOCATION / RAM_SIZE)	; actual bank #
    103  583d					      ENDIF
    104  583d				   .BOARD_LOCATION SET	.BOARD_LOCATION + SIZE_BOARD_X	; note, we CANNOT cross a page boundary within a row
     97  583d					      REPEND
     98  583d				  -	      IF	>.BOARD_LOCATION != >(.BOARD_LOCATION + SIZE_BOARD_X-1)
     99  583d				  -.BOARD_LOCATION SET	.BOARD_LOCATION - <.BOARD_LOCATION + 256
    100  583d					      ENDIF
    101  583d				  -	      IF	MULTI_BANK_BOARD = YES
    102  583d				  -	      .byte	BANK_BOARD + (.BOARD_LOCATION / RAM_SIZE)	; actual bank #
    103  583d					      ENDIF
    104  583d				   .BOARD_LOCATION SET	.BOARD_LOCATION + SIZE_BOARD_X	; note, we CANNOT cross a page boundary within a row
     97  583d					      REPEND
     98  583d				  -	      IF	>.BOARD_LOCATION != >(.BOARD_LOCATION + SIZE_BOARD_X-1)
     99  583d				  -.BOARD_LOCATION SET	.BOARD_LOCATION - <.BOARD_LOCATION + 256
    100  583d					      ENDIF
    101  583d				  -	      IF	MULTI_BANK_BOARD = YES
    102  583d				  -	      .byte	BANK_BOARD + (.BOARD_LOCATION / RAM_SIZE)	; actual bank #
    103  583d					      ENDIF
    104  583d				   .BOARD_LOCATION SET	.BOARD_LOCATION + SIZE_BOARD_X	; note, we CANNOT cross a page boundary within a row
     97  583d					      REPEND
     98  583d				  -	      IF	>.BOARD_LOCATION != >(.BOARD_LOCATION + SIZE_BOARD_X-1)
     99  583d				  -.BOARD_LOCATION SET	.BOARD_LOCATION - <.BOARD_LOCATION + 256
    100  583d					      ENDIF
    101  583d				  -	      IF	MULTI_BANK_BOARD = YES
    102  583d				  -	      .byte	BANK_BOARD + (.BOARD_LOCATION / RAM_SIZE)	; actual bank #
    103  583d					      ENDIF
    104  583d				   .BOARD_LOCATION SET	.BOARD_LOCATION + SIZE_BOARD_X	; note, we CANNOT cross a page boundary within a row
     97  583d					      REPEND
     98  583d				  -	      IF	>.BOARD_LOCATION != >(.BOARD_LOCATION + SIZE_BOARD_X-1)
     99  583d				  -.BOARD_LOCATION SET	.BOARD_LOCATION - <.BOARD_LOCATION + 256
    100  583d					      ENDIF
    101  583d				  -	      IF	MULTI_BANK_BOARD = YES
    102  583d				  -	      .byte	BANK_BOARD + (.BOARD_LOCATION / RAM_SIZE)	; actual bank #
    103  583d					      ENDIF
    104  583d				   .BOARD_LOCATION SET	.BOARD_LOCATION + SIZE_BOARD_X	; note, we CANNOT cross a page boundary within a row
     97  583d					      REPEND
     98  583d				  -	      IF	>.BOARD_LOCATION != >(.BOARD_LOCATION + SIZE_BOARD_X-1)
     99  583d				  -.BOARD_LOCATION SET	.BOARD_LOCATION - <.BOARD_LOCATION + 256
    100  583d					      ENDIF
    101  583d				  -	      IF	MULTI_BANK_BOARD = YES
    102  583d				  -	      .byte	BANK_BOARD + (.BOARD_LOCATION / RAM_SIZE)	; actual bank #
    103  583d					      ENDIF
    104  583d				   .BOARD_LOCATION SET	.BOARD_LOCATION + SIZE_BOARD_X	; note, we CANNOT cross a page boundary within a row
     97  583d					      REPEND
     98  583d				  -	      IF	>.BOARD_LOCATION != >(.BOARD_LOCATION + SIZE_BOARD_X-1)
     99  583d				  -.BOARD_LOCATION SET	.BOARD_LOCATION - <.BOARD_LOCATION + 256
    100  583d					      ENDIF
    101  583d				  -	      IF	MULTI_BANK_BOARD = YES
    102  583d				  -	      .byte	BANK_BOARD + (.BOARD_LOCATION / RAM_SIZE)	; actual bank #
    103  583d					      ENDIF
    104  583d				   .BOARD_LOCATION SET	.BOARD_LOCATION + SIZE_BOARD_X	; note, we CANNOT cross a page boundary within a row
     97  583d					      REPEND
     98  583d				  -	      IF	>.BOARD_LOCATION != >(.BOARD_LOCATION + SIZE_BOARD_X-1)
     99  583d				  -.BOARD_LOCATION SET	.BOARD_LOCATION - <.BOARD_LOCATION + 256
    100  583d					      ENDIF
    101  583d				  -	      IF	MULTI_BANK_BOARD = YES
    102  583d				  -	      .byte	BANK_BOARD + (.BOARD_LOCATION / RAM_SIZE)	; actual bank #
    103  583d					      ENDIF
    104  583d				   .BOARD_LOCATION SET	.BOARD_LOCATION + SIZE_BOARD_X	; note, we CANNOT cross a page boundary within a row
     97  583d					      REPEND
     98  583d				  -	      IF	>.BOARD_LOCATION != >(.BOARD_LOCATION + SIZE_BOARD_X-1)
     99  583d				  -.BOARD_LOCATION SET	.BOARD_LOCATION - <.BOARD_LOCATION + 256
    100  583d					      ENDIF
    101  583d				  -	      IF	MULTI_BANK_BOARD = YES
    102  583d				  -	      .byte	BANK_BOARD + (.BOARD_LOCATION / RAM_SIZE)	; actual bank #
    103  583d					      ENDIF
    104  583d				   .BOARD_LOCATION SET	.BOARD_LOCATION + SIZE_BOARD_X	; note, we CANNOT cross a page boundary within a row
     97  583d					      REPEND
     98  583d				  -	      IF	>.BOARD_LOCATION != >(.BOARD_LOCATION + SIZE_BOARD_X-1)
     99  583d				  -.BOARD_LOCATION SET	.BOARD_LOCATION - <.BOARD_LOCATION + 256
    100  583d					      ENDIF
    101  583d				  -	      IF	MULTI_BANK_BOARD = YES
    102  583d				  -	      .byte	BANK_BOARD + (.BOARD_LOCATION / RAM_SIZE)	; actual bank #
    103  583d					      ENDIF
    104  583d				   .BOARD_LOCATION SET	.BOARD_LOCATION + SIZE_BOARD_X	; note, we CANNOT cross a page boundary within a row
     97  583d					      REPEND
     98  583d					      IF	>.BOARD_LOCATION != >(.BOARD_LOCATION + SIZE_BOARD_X-1)
     99  583d				   .BOARD_LOCATION SET	.BOARD_LOCATION - <.BOARD_LOCATION + 256
    100  583d					      ENDIF
    101  583d				  -	      IF	MULTI_BANK_BOARD = YES
    102  583d				  -	      .byte	BANK_BOARD + (.BOARD_LOCATION / RAM_SIZE)	; actual bank #
    103  583d					      ENDIF
    104  583d				   .BOARD_LOCATION SET	.BOARD_LOCATION + SIZE_BOARD_X	; note, we CANNOT cross a page boundary within a row
     97  583d					      REPEND
     98  583d				  -	      IF	>.BOARD_LOCATION != >(.BOARD_LOCATION + SIZE_BOARD_X-1)
     99  583d				  -.BOARD_LOCATION SET	.BOARD_LOCATION - <.BOARD_LOCATION + 256
    100  583d					      ENDIF
    101  583d				  -	      IF	MULTI_BANK_BOARD = YES
    102  583d				  -	      .byte	BANK_BOARD + (.BOARD_LOCATION / RAM_SIZE)	; actual bank #
    103  583d					      ENDIF
    104  583d				   .BOARD_LOCATION SET	.BOARD_LOCATION + SIZE_BOARD_X	; note, we CANNOT cross a page boundary within a row
     97  583d					      REPEND
     98  583d				  -	      IF	>.BOARD_LOCATION != >(.BOARD_LOCATION + SIZE_BOARD_X-1)
     99  583d				  -.BOARD_LOCATION SET	.BOARD_LOCATION - <.BOARD_LOCATION + 256
    100  583d					      ENDIF
    101  583d				  -	      IF	MULTI_BANK_BOARD = YES
    102  583d				  -	      .byte	BANK_BOARD + (.BOARD_LOCATION / RAM_SIZE)	; actual bank #
    103  583d					      ENDIF
    104  583d				   .BOARD_LOCATION SET	.BOARD_LOCATION + SIZE_BOARD_X	; note, we CANNOT cross a page boundary within a row
     97  583d					      REPEND
     98  583d				  -	      IF	>.BOARD_LOCATION != >(.BOARD_LOCATION + SIZE_BOARD_X-1)
     99  583d				  -.BOARD_LOCATION SET	.BOARD_LOCATION - <.BOARD_LOCATION + 256
    100  583d					      ENDIF
    101  583d				  -	      IF	MULTI_BANK_BOARD = YES
    102  583d				  -	      .byte	BANK_BOARD + (.BOARD_LOCATION / RAM_SIZE)	; actual bank #
    103  583d					      ENDIF
    104  583d				   .BOARD_LOCATION SET	.BOARD_LOCATION + SIZE_BOARD_X	; note, we CANNOT cross a page boundary within a row
     97  583d					      REPEND
     98  583d				  -	      IF	>.BOARD_LOCATION != >(.BOARD_LOCATION + SIZE_BOARD_X-1)
     99  583d				  -.BOARD_LOCATION SET	.BOARD_LOCATION - <.BOARD_LOCATION + 256
    100  583d					      ENDIF
    101  583d				  -	      IF	MULTI_BANK_BOARD = YES
    102  583d				  -	      .byte	BANK_BOARD + (.BOARD_LOCATION / RAM_SIZE)	; actual bank #
    103  583d					      ENDIF
    104  583d				   .BOARD_LOCATION SET	.BOARD_LOCATION + SIZE_BOARD_X	; note, we CANNOT cross a page boundary within a row
     97  583d					      REPEND
     98  583d				  -	      IF	>.BOARD_LOCATION != >(.BOARD_LOCATION + SIZE_BOARD_X-1)
     99  583d				  -.BOARD_LOCATION SET	.BOARD_LOCATION - <.BOARD_LOCATION + 256
    100  583d					      ENDIF
    101  583d				  -	      IF	MULTI_BANK_BOARD = YES
    102  583d				  -	      .byte	BANK_BOARD + (.BOARD_LOCATION / RAM_SIZE)	; actual bank #
    103  583d					      ENDIF
    104  583d				   .BOARD_LOCATION SET	.BOARD_LOCATION + SIZE_BOARD_X	; note, we CANNOT cross a page boundary within a row
     97  583d					      REPEND
     98  583d				  -	      IF	>.BOARD_LOCATION != >(.BOARD_LOCATION + SIZE_BOARD_X-1)
     99  583d				  -.BOARD_LOCATION SET	.BOARD_LOCATION - <.BOARD_LOCATION + 256
    100  583d					      ENDIF
    101  583d				  -	      IF	MULTI_BANK_BOARD = YES
    102  583d				  -	      .byte	BANK_BOARD + (.BOARD_LOCATION / RAM_SIZE)	; actual bank #
    103  583d					      ENDIF
    104  583d				   .BOARD_LOCATION SET	.BOARD_LOCATION + SIZE_BOARD_X	; note, we CANNOT cross a page boundary within a row
     97  583d					      REPEND
     98  583d				  -	      IF	>.BOARD_LOCATION != >(.BOARD_LOCATION + SIZE_BOARD_X-1)
     99  583d				  -.BOARD_LOCATION SET	.BOARD_LOCATION - <.BOARD_LOCATION + 256
    100  583d					      ENDIF
    101  583d				  -	      IF	MULTI_BANK_BOARD = YES
    102  583d				  -	      .byte	BANK_BOARD + (.BOARD_LOCATION / RAM_SIZE)	; actual bank #
    103  583d					      ENDIF
    104  583d				   .BOARD_LOCATION SET	.BOARD_LOCATION + SIZE_BOARD_X	; note, we CANNOT cross a page boundary within a row
     97  583d					      REPEND
     98  583d				  -	      IF	>.BOARD_LOCATION != >(.BOARD_LOCATION + SIZE_BOARD_X-1)
     99  583d				  -.BOARD_LOCATION SET	.BOARD_LOCATION - <.BOARD_LOCATION + 256
    100  583d					      ENDIF
    101  583d				  -	      IF	MULTI_BANK_BOARD = YES
    102  583d				  -	      .byte	BANK_BOARD + (.BOARD_LOCATION / RAM_SIZE)	; actual bank #
    103  583d					      ENDIF
    104  583d				   .BOARD_LOCATION SET	.BOARD_LOCATION + SIZE_BOARD_X	; note, we CANNOT cross a page boundary within a row
     97  583d					      REPEND
     98  583d				  -	      IF	>.BOARD_LOCATION != >(.BOARD_LOCATION + SIZE_BOARD_X-1)
     99  583d				  -.BOARD_LOCATION SET	.BOARD_LOCATION - <.BOARD_LOCATION + 256
    100  583d					      ENDIF
    101  583d				  -	      IF	MULTI_BANK_BOARD = YES
    102  583d				  -	      .byte	BANK_BOARD + (.BOARD_LOCATION / RAM_SIZE)	; actual bank #
    103  583d					      ENDIF
    104  583d				   .BOARD_LOCATION SET	.BOARD_LOCATION + SIZE_BOARD_X	; note, we CANNOT cross a page boundary within a row
    105  583d					      REPEND
    106  583d				  -	      IF	MULTI_BANK_BOARD = YES
    107  583d				  -	      CHECKPAGEX	BoardBank, "BoardBank in BANK_INITBANK.asm"
    108  583d					      ENDIF
    109  583d
    110  583d
    111  583d							;------------------------------------------------------------------------------
    112  583d
    113  583d				   CopyROMShadowToRAM_F000
    114  583d		       a9 f0		      lda	#>$F000
    115  583f
      0  583f					      DEFINE_SUBROUTINE	CopyROMShadowToRAM	; in INITBANK
      1  583f		       00 0b	   BANK_CopyROMShadowToRAM =	_CURRENT_BANK
      2  583f					      SUBROUTINE
      3  583f				   CopyROMShadowToRAM
    117  583f
    118  583f							; Function copies a RAM prototype ROM bank into the destination RAM bank.  Typically
    119  583f							; the variable definitions are in the ROM shadow because this allows auto-initialisation
    120  583f							; of the variable contents from ROM declarations, but still allows access to them as
    121  583f							; variables when the correct RAM bank is switched in.	Code is also, of course, copied
    122  583f							; into the RAM destination so that code is callable whenever the ROM *or* RAM bank is
    123  583f							; switched in.  Further, if multiple copies are made to multiple RAM banks, then the
    124  583f							; code co-lives in all banks and may run even as bankswitching occurs between those
    125  583f							; banks -- by the very code itself.
    126  583f
    127  583f							; Note: Relies on ROM_Bank having being set via CALL mechanism to call this function
    128  583f		       85 c6		      sta	Board_AddressR+1
    129  5841		       86 e2		      stx	O_ROM_Source_Bank	; source bank
    130  5843		       84 ca		      sty	RAM_Bank	; destination bank
    131  5845
    132  5845		       a0 00		      ldy	#0
    133  5847		       84 c5		      sty	Board_AddressR
    134  5849		       84 c7		      sty	Board_AddressW
    135  584b		       a9 14		      lda	#>($1000+RAM_WRITE)
    136  584d		       85 c8		      sta	Board_AddressW+1
    137  584f
    138  584f							; Iterate 4 pages (1K) for complete bank copy
    139  584f
    140  584f		       a9 04		      lda	#4
    141  5851		       85 e1		      sta	O_CopyCount
    142  5853
    143  5853		       84 e3	   CopyPage   sty	O_Index
    144  5855		       a5 e2		      lda	O_ROM_Source_Bank
    145  5857		       20 0f f8 	      jsr	GetROMByte	; get byte from ROM shadow bank
    146  585a							;tax
    147  585a		       a4 e3		      ldy	O_Index
    148  585c		       a6 ca		      ldx	RAM_Bank
    149  585e		       20 1d f8 	      jsr	PutBoardCharacter	;6+21(A)	 write byte to RAM bank
    150  5861
    151  5861		       a4 e3		      ldy	O_Index
    152  5863		       c8		      iny
    153  5864		       d0 ed		      bne	CopyPage
    154  5866
    155  5866		       e6 c6		      inc	Board_AddressR+1
    156  5868		       e6 c8		      inc	Board_AddressW+1
    157  586a
    158  586a		       c6 e1		      dec	O_CopyCount
    159  586c		       d0 e5		      bne	CopyPage
    160  586e
    161  586e		       a4 ca		      ldy	RAM_Bank	; TODO: remove!?
    162  5870		       60		      rts
    163  5871
    164  5871
    165  5871							;------------------------------------------------------------------------------
      0  5871					      DEFINE_SUBROUTINE	SetPlatformColours	; in INITBANK
      1  5871		       00 0b	   BANK_SetPlatformColours =	_CURRENT_BANK
      2  5871					      SUBROUTINE
      3  5871				   SetPlatformColours
    167  5871
    168  5871							; Now modify the hardwired colours so that we're correctly switched for NTSC/PAL
    169  5871							; The platform (0=NTSC, 1=PAL) is set from the right difficulty switch
    170  5871							; Note: This relies on DrawTheScreen starting on page boundary so that the (),y
    171  5871							; addressing will not violate the page-crossing restriction of 3E.
    172  5871
    173  5871							;		  sty RAM_Bank			  ; we assume we called CopyROMShadowToRAM before
    174  5871
    175  5871		       a9 00		      lda	#<DrawTheScreen	; = 0
    176  5873		       85 c7		      sta	Board_AddressW
    177  5875		       a9 f4		      lda	#>( DrawTheScreen + RAM_WRITE )
    178  5877		       85 c8		      sta	Board_AddressW+1
    179  5879
    180  5879							; first, set the x index (with last one being a RTS ($60))
    181  5879
    182  5879		       a6 ca		      ldx	RAM_Bank
    183  587b		       e0 07		      cpx	#SCREEN_LINES-1	; might become variable when vertical scrolling
    184  587d		       d0 07		      bne	.skipPatch
    185  587f		       a9 60		      lda	#$60	; rts
    186  5881		       a0 41		      ldy	#<SELFMOD_X
    187  5883		       20 1d f8 	      jsr	PutBoardCharacter	;6+21(A)	 set index/rts
    188  5886				   .skipPatch
    189  5886
    190  5886		       a2 02		      ldx	#3-1
    191  5888				   .loopColor
    192  5888		       86 e1		      stx	colorIdx
    193  588a							; set PF colors
    194  588a		       b5 c2		      lda	color,x
    195  588c		       bc b1 f0 	      ldy	SelfModColOfsTbl,x
    196  588f							;tax
    197  588f		       a6 ca		      ldx	RAM_Bank
    198  5891		       20 1d f8 	      jsr	PutBoardCharacter	;6+21(A)	 copy PF colour RED/GREEN/BLUE to self-modifying RAM
    199  5894							; set player colors
    200  5894		       a6 e1		      ldx	colorIdx
    201  5896		       bd b4 f0 	      lda	SelfModePlayerTbl,x
    202  5899		       a4 81		      ldy	Platform
    203  589b		       c0 02		      cpy	#PAL
    204  589d		       90 02		      bcc	.platform0
    205  589f		       69 17		      adc	#LINES_PER_CHAR-1	; C==1!
    206  58a1				   .platform0
    207  58a1		       bc b7 f0 	      ldy	SelfModPlayerColOfsTbl,x
    208  58a4							;tax
    209  58a4		       a6 ca		      ldx	RAM_Bank
    210  58a6		       20 1d f8 	      jsr	PutBoardCharacter	;6+21(A)	 copy player colour RED/GREEN/BLUE to self-modifying RAM
    211  58a9							; loop
    212  58a9		       a6 e1		      ldx	colorIdx
    213  58ab		       ca		      dex
    214  58ac		       10 da		      bpl	.loopColor
    215  58ae
    216  58ae		       a4 ca		      ldy	RAM_Bank
    217  58b0		       60		      rts
    218  58b1
    219  58b1				   SelfModColOfsTbl
    220  58b1		       53 86 1c 	      .byte.b	<(SELFMOD_BLUE+1), <(SELFMOD_GREEN+1), <(SELFMOD_RED+1)
    221  58b4				   SelfModePlayerTbl
    222  58b4		       0f df af 	      .byte.b	<SpriteColourBLUE, <SpriteColourGREEN, <SpriteColourRED
    223  58b7				   SelfModPlayerColOfsTbl
    224  58b7		       4c 7f 15 	      .byte.b	<(SELFMOD_PLAYERCOL_BLUE+1), <(SELFMOD_PLAYERCOL_GREEN+1), <(SELFMOD_PLAYERCOL_RED+1)
    225  58ba
    226  58ba
    227  58ba				   DrawLineStartLO
    228  58ba
    229  58ba							; Gives the start address of each line in the draw flags buffer
    230  58ba
    231  58ba				   .DRAW_LOCATION SET	DrawFlag
    232  58ba					      REPEAT	SCREEN_LINES
    233  58ba		       50		      .byte.b	<.DRAW_LOCATION
    234  58ba				   .DRAW_LOCATION SET	.DRAW_LOCATION + SCREEN_WIDTH
    232  58ba					      REPEND
    233  58bb		       5a		      .byte.b	<.DRAW_LOCATION
    234  58bb				   .DRAW_LOCATION SET	.DRAW_LOCATION + SCREEN_WIDTH
    232  58bb					      REPEND
    233  58bc		       64		      .byte.b	<.DRAW_LOCATION
    234  58bc				   .DRAW_LOCATION SET	.DRAW_LOCATION + SCREEN_WIDTH
    232  58bc					      REPEND
    233  58bd		       6e		      .byte.b	<.DRAW_LOCATION
    234  58bd				   .DRAW_LOCATION SET	.DRAW_LOCATION + SCREEN_WIDTH
    232  58bd					      REPEND
    233  58be		       78		      .byte.b	<.DRAW_LOCATION
    234  58be				   .DRAW_LOCATION SET	.DRAW_LOCATION + SCREEN_WIDTH
    232  58be					      REPEND
    233  58bf		       82		      .byte.b	<.DRAW_LOCATION
    234  58bf				   .DRAW_LOCATION SET	.DRAW_LOCATION + SCREEN_WIDTH
    232  58bf					      REPEND
    233  58c0		       8c		      .byte.b	<.DRAW_LOCATION
    234  58c0				   .DRAW_LOCATION SET	.DRAW_LOCATION + SCREEN_WIDTH
    232  58c0					      REPEND
    233  58c1		       96		      .byte.b	<.DRAW_LOCATION
    234  58c1				   .DRAW_LOCATION SET	.DRAW_LOCATION + SCREEN_WIDTH
    235  58c2					      REPEND
    236  58c2
    237  58c2
    238  58c2							;------------------------------------------------------------------------------
    239  58c2
      0  58c2					      DEFINE_SUBROUTINE	GetBoardAddressRW	; in INITBANK
      1  58c2		       00 0b	   BANK_GetBoardAddressRW =	_CURRENT_BANK
      2  58c2					      SUBROUTINE
      3  58c2				   GetBoardAddressRW
    241  58c2							; Must share same bank as BoardLineStart tables
    242  58c2
    243  58c2		       b9 01 f0 	      lda	BoardLineStartLO,y	; 4
    244  58c5		       85 c5		      sta	Board_AddressR	; 3
    245  58c7		       85 c7		      sta	Board_AddressW	; 3
    246  58c9		       b9 15 f0 	      lda	BoardLineStartHiR,y	; 4
    247  58cc		       85 c6		      sta	Board_AddressR+1	; 3	     READ address
    248  58ce		       09 04		      ora	#>RAM_WRITE	; 2
    249  58d0		       85 c8		      sta	Board_AddressW+1	; 3	     WRITE address
    250  58d2				  -	      IF	MULTI_BANK_BOARD = YES
    251  58d2				  -	      ldx	BoardBank,y	; 4 = 26    switch this on return
    252  58d2					      ELSE
    253  58d2		       a2 0d		      ldx	#BANK_BOARD	; 2
    254  58d4					      ENDIF
    255  58d4		       60		      rts		; 6 = 32[-2]
    256  58d5
    257  58d5							;------------------------------------------------------------------------------
    258  58d5
      0  58d5					      DEFINE_SUBROUTINE	GetBoardAddressR	;=24[-2](A)
      1  58d5		       00 0b	   BANK_GetBoardAddressR =	_CURRENT_BANK
      2  58d5					      SUBROUTINE
      3  58d5				   GetBoardAddressR
    260  58d5
    261  58d5		       b9 01 f0 	      lda	BoardLineStartLO,y	; 4
    262  58d8		       85 c5		      sta	Board_AddressR	; 3
    263  58da		       b9 15 f0 	      lda	BoardLineStartHiR,y	; 4
    264  58dd		       85 c6		      sta	Board_AddressR+1	; 3	 READ address
    265  58df				  -	      IF	MULTI_BANK_BOARD = YES
    266  58df				  -	      lda	BoardBank,y	; 4	 switch this on return
    267  58df					      ELSE
    268  58df		       a9 0d		      lda	#BANK_BOARD	; 2
    269  58e1					      ENDIF
    270  58e1		       60		      rts		; 6[-2]
    271  58e2
    272  58e2							;------------------------------------------------------------------------------
    273  58e2
      0  58e2					      DEFINE_SUBROUTINE	GetBoardAddressW	;=24[-2](A)
      1  58e2		       00 0b	   BANK_GetBoardAddressW =	_CURRENT_BANK
      2  58e2					      SUBROUTINE
      3  58e2				   GetBoardAddressW
    275  58e2
    276  58e2							; Must share same bank as BoardLineStart tables
    277  58e2
    278  58e2		       b9 01 f0 	      lda	BoardLineStartLO,y	;4
    279  58e5		       85 c7		      sta	Board_AddressW	;3
    280  58e7		       b9 29 f0 	      lda	BoardLineStartHiW,y	;4
    281  58ea		       85 c8		      sta	Board_AddressW+1	;3 WRITE address
    282  58ec				  -	      IF	MULTI_BANK_BOARD = YES
    283  58ec				  -	      ldx	BoardBank,y	;4 switch this on return
    284  58ec					      ELSE
    285  58ec		       a2 0d		      ldx	#BANK_BOARD	;2
    286  58ee					      ENDIF
    287  58ee		       60	   QRet       rts		;6
    288  58ef
    289  58ef							;-------------------------------------------------------------------------------
    290  58ef
    291  58ef
    292  58ef							;------------------------------------------------------------------------------
    293  58ef
    294  58ef		       e6 aa	   cannotPush inc	ManPushCounter
    295  58f1		       60		      rts
    296  58f2
      0  58f2					      DEFINE_SUBROUTINE	PushBox	; in INITBANK
      1  58f2		       00 0b	   BANK_PushBox =	_CURRENT_BANK
      2  58f2					      SUBROUTINE
      3  58f2				   PushBox
    298  58f2
    299  58f2							; X = restoration character for square we are moving TO
    300  58f2							; so, if X = CHARACTER_TARGET AND we move, THEN we are pushing a box off a target
    301  58f2							; A = this bank!
    302  58f2
    303  58f2		       85 c9		      sta	ROM_Bank
    304  58f4
    305  58f4		       a5 aa		      lda	ManPushCounter
    306  58f6		       c9 01		      cmp	#PUSH_LIMIT
    307  58f8		       90 f5		      bcc	cannotPush
    308  58fa
    309  58fa		       86 e3		      stx	restorationCharacter	; players new location's restore
    310  58fc
    311  58fc							; Determine if the box is pushable
    312  58fc							; we use the joystick to calculate the subsequent square
    313  58fc
    314  58fc		       a5 95		      lda	BufferedJoystick
    315  58fe		       4a		      lsr
    316  58ff		       4a		      lsr
    317  5900		       4a		      lsr
    318  5901		       4a		      lsr
    319  5902		       48		      pha
    320  5903		       a8		      tay
    321  5904
    322  5904		       18		      clc
    323  5905		       a5 8d		      lda	POS_Y_NEW
    324  5907		       79 a4 f2 	      adc	JoyMoveY,y
    325  590a		       85 8b		      sta	POS_Y	; the box's pushed-to square
    326  590c		       a8		      tay
    327  590d		       20 c2 f0 	      jsr	GetBoardAddressRW
    328  5910
    329  5910		       68		      pla
    330  5911		       a8		      tay
    331  5912
    332  5912		       18		      clc
    333  5913		       a5 8c		      lda	POS_X_NEW
    334  5915		       79 98 f2 	      adc	JoyMoveX,y
    335  5918		       85 8a		      sta	POS_X	; the box's pushed-to square
    336  591a		       48		      pha
    337  591b		       a8		      tay
    338  591c
    339  591c				  -	      IF	MULTI_BANK_BOARD = YES
    340  591c				  -	      lda	RAM_Bank
    341  591c					      ELSE
    342  591c		       a9 0d		      lda	#BANK_BOARD	; 2
    343  591e					      ENDIF
    344  591e		       20 14 f8 	      jsr	GetBoardCharacter	;6+20(A)
    345  5921		       68		      pla
    346  5922		       a8		      tay
    347  5923
    348  5923		       a9 02		      lda	#CHARACTER_BOX
    349  5925		       e0 00		      cpx	#CHARACTER_BLANK
    350  5927		       f0 13		      beq	canPushTarget
    351  5929
    352  5929		       e0 03		      cpx	#CHARACTER_TARGET
    353  592b		       f0 04		      beq	decreaseTargets
    354  592d		       e0 04		      cpx	#CHARACTER_TARGET2
    355  592f		       d0 be		      bne	cannotPush
    356  5931
    357  5931							; Box is now on a target - so decrease the remaining targets
    358  5931
    359  5931		       f8	   decreaseTargets sed
    360  5932		       38		      sec
    361  5933		       a5 bd		      lda	targetsRequired
    362  5935		       e9 01		      sbc	#1
    363  5937		       85 bd		      sta	targetsRequired
    364  5939		       d8		      cld
    365  593a
    366  593a		       a9 08		      lda	#CHARACTER_BOX_ON_TARGET
    367  593c		       48	   canPushTarget pha
    368  593d
    369  593d							; If the box *WAS* on a target (restoration character = CHARACTER_TARGET)
    370  593d							; then we increase targets (as there is one more to get)
    371  593d
    372  593d		       a5 e3		      lda	restorationCharacter
    373  593f		       c9 03		      cmp	#CHARACTER_TARGET
    374  5941		       d0 09		      bne	notOnTargetAlready
    375  5943
    376  5943							; increase the required targets as box is leaving one
    377  5943
    378  5943		       f8		      sed
    379  5944		       18		      clc
    380  5945		       a5 bd		      lda	targetsRequired
    381  5947		       69 01		      adc	#1
    382  5949		       85 bd		      sta	targetsRequired
    383  594b		       d8		      cld
    384  594c
    385  594c				   notOnTargetAlready
    386  594c
    387  594c							; record the box takeback params for the player move to use
    388  594c
    389  594c		       86 94		      stx	TB_CHAR
    390  594e		       a5 8a		      lda	POS_X
    391  5950		       85 92		      sta	TB_PUSHX
    392  5952		       a5 8b		      lda	POS_Y
    393  5954		       85 93		      sta	TB_PUSHY
    394  5956
    395  5956		       68		      pla		; new char to go on board in box's new position
    396  5957
    397  5957
    398  5957				  -	      IF	MULTI_BANK_BOARD = YES
    399  5957				  -	      ldx	RAM_Bank	; <-- this will never work calling from INITBANK!!!
    400  5957					      ELSE
    401  5957		       a2 0d		      ldx	#BANK_BOARD	; 2
    402  5959					      ENDIF
    403  5959		       20 1d f8 	      jsr	PutBoardCharacter	;6+21(A)
    404  595c
    405  595c		       a5 8f		      lda	POS_VAR	; player's restoration character
    406  595e		       48		      pha
    407  595f
    408  595f							; Before the player moves to the new position, take away the box and replace with the
    409  595f							; character the box was sitting on (BLANK or TARGET). Then the player moves in "next"
    410  595f
    411  595f		       a5 8d		      lda	POS_Y_NEW
    412  5961		       85 8b		      sta	POS_Y
    413  5963		       a5 8c		      lda	POS_X_NEW
    414  5965		       85 8a		      sta	POS_X
    415  5967		       a5 e3		      lda	restorationCharacter
    416  5969		       85 8f		      sta	POS_VAR
    417  596b		       20 06 f9 	      jsr	PutCharacterAtXY	; put back BOX's restoration character
    418  596e
    419  596e		       68		      pla
    420  596f		       85 8f		      sta	POS_VAR
    421  5971
    422  5971							;START_SOUND SOUND_BOX
    423  5971
    424  5971							; Note: MovePlayer expects new position to be POS_X_NEW, POS_Y_NEW
    425  5971							; AND the current man's square to be ManX, ManY
    426  5971
    427  5971		       4c 5c f9 	      jmp	MovePlayer	; now there's a gap, player should move in
    428  5974
    429  5974
    430  5974							;------------------------------------------------------------------------------
    431  5974
    432  5974							; IF the creature runs out of time to do stuff, then rts HOWEVER the creature must eventually do something
    433  5974							;  as it will be continually called in available time-slices until it does. This can lockup the system.
    434  5974
    435  5974							; if the creature is done, and is alive next cycle, then jump ReInsertObject
    436  5974
    437  5974							; if the creature dies then jump NextObject
    438  5974
    439  5974
    440  5974
    441  5974		       ff	   RDirY      .byte.b	-1	;,0,1,0
    442  5975		       00 01	   RDirX      .byte.b	0,1	;,0,-1
    443  5977		       00 ff 01 00 DirPushModX .byte.b	0,-1,1,0
    444  597b		       ff 00 00 01 DirPushModY .byte.b	-1,0,0,1
    445  597f		       01 02 03 00*Directional .byte.b	1,2,3,0,1,2, 0,0, 11,8,9,10,11,8
    446  598d
    447  598d
    448  598d							;------------------------------------------------------------------------------
    449  598d
    450  598d							; the auto-calculation of these was causing DASM to get confused and abort assembling.
    451  598d							; I don't particularly know why; probably because of the level variable-size array and the values
    452  598d							; changing from pass to pass. I've put in the hardwired values and it seems to be OK now.
    453  598d
    454  598d		       00 00	   MANMODE_STARTUP =	0
    455  598d		       00 01	   MANMODE_NORMAL =	1
    456  598d		       00 02	   MANMODE_DEAD =	2
    457  598d		       00 03	   MANMODE_WAITING =	3
    458  598d		       00 04	   MANMODE_WAITING2 =	4
    459  598d		       00 05	   MANMODE_WAITING_NT =	5
    460  598d		       00 06	   MANMODE_WAITING_NT2 =	6
    461  598d		       00 07	   MANMODE_NEXTLEVEL =	7
    462  598d		       00 08	   MANMODE_NEXTLEVEL2 =	8
    463  598d		       00 09	   MANMODE_SWITCH =	9
    464  598d
      0  598d					      DEFINE_SUBROUTINE	ManProcess
      1  598d		       00 0b	   BANK_ManProcess =	_CURRENT_BANK
      2  598d					      SUBROUTINE
      3  598d				   ManProcess
    466  598d
    467  598d							; ManMode tells the player what it is currently doing.  State machine.
    468  598d
    469  598d							; Check the switches....
    470  598d							; RESET to restart this level
    471  598d							; SELECT to start next level
    472  598d
    473  598d		       ad 82 02 	      lda	SWCHB
    474  5990		       29 03		      and	#3
    475  5992		       aa		      tax
    476  5993		       bd ac f1 	      lda	newMode,x
    477  5996		       30 02		      bmi	skipModeChange
    478  5998		       85 a4		      sta	ManMode
    479  599a				   skipModeChange
    480  599a
    481  599a		       20 00 f8 	      jsr	DrawTimeFromROM	; Z-flag == 0!
    482  599d
    483  599d		       a4 a4		      ldy	ManMode
    484  599f		       b9 b0 f1 	      lda	ManActionLO,y
    485  59a2		       85 e1		      sta	actionVector
    486  59a4		       b9 ba f1 	      lda	ManActionHI,y
    487  59a7		       85 e2		      sta	actionVector+1
    488  59a9		       6c e1 00 	      jmp	(actionVector)
    489  59ac
    490  59ac		       ff 09 04 ff newMode    .byte.b	-1, MANMODE_SWITCH, MANMODE_WAITING2, -1
    491  59b0
    492  59b0				   ManActionLO
    493  59b0		       c4		      .byte.b	<manStartup	; 0		 no timer
    494  59b1		       fb		      .byte.b	<normalMan	; 1		 timer
    495  59b2		       00		      .byte.b	<0	; 2		 timer
    496  59b3		       f4		      .byte.b	<waitingMan	; 3		 timer
    497  59b4		       f4		      .byte.b	<waitingManPress	; 4		 timer
    498  59b5		       f4		      .byte.b	<waitingMan	; 5		 no timer
    499  59b6		       f4		      .byte.b	<waitingManPress	; 6		 no timer
    500  59b7		       36		      .byte.b	<nextLevelMan	; 7		 no timer
    501  59b8		       4b		      .byte.b	<nextLevelMan2	; 8		 no timer
    502  59b9		       56		      .byte.b	<switchLevels	; 9		 no timer
    503  59ba
    504  59ba				   ManActionHI
    505  59ba		       f1		      .byte.b	>manStartup	; no timer
    506  59bb		       f1		      .byte.b	>normalMan	; timer
    507  59bc		       00		      .byte.b	>0	; timer
    508  59bd		       f1		      .byte.b	>waitingMan	; timer
    509  59be		       f1		      .byte.b	>waitingManPress	; timer
    510  59bf		       f1		      .byte.b	>waitingMan	; no timer
    511  59c0		       f1		      .byte.b	>waitingManPress	; no timer
    512  59c1		       fd		      .byte.b	>nextLevelMan	; no timer
    513  59c2		       fd		      .byte.b	>nextLevelMan2	; no timer
    514  59c3		       fd		      .byte.b	>switchLevels	;9  no timer
    515  59c4
    516  59c4							;------------------------------------------------------------------------------
      0  59c4					      DEFINE_SUBROUTINE	manStartup
      1  59c4		       00 0b	   BANK_manStartup =	_CURRENT_BANK
      2  59c4					      SUBROUTINE
      3  59c4				   manStartup
    518  59c4
    519  59c4					      IF	WAIT_FOR_INITIAL_DRAW
    520  59c4							; Delay turning on the visible screen until the background has completed drawing.
    521  59c4							; This is simple - is there anything still in the draw stack?
    522  59c4		       a5 84		      lda	DrawStackPointer
    523  59c6		       10 04		      bpl	midDraw
    524  59c8		       a9 00		      lda	#0
    525  59ca		       85 b4		      sta	blankState
    526  59cc				   midDraw
    527  59cc					      ENDIF
    528  59cc
    529  59cc							;		  lda ManX
    530  59cc							;		  sta POS_X
    531  59cc							;		  lda ManY
    532  59cc							;		  sta POS_Y
    533  59cc
    534  59cc				  -	      if	0
    535  59cc				  -anotherC   inc	POS_X
    536  59cc				  -	      lda	#CHARACTER_2
    537  59cc				  -	      sta	POS_Type
    538  59cc				  -	      lda	#BANK_manStartup
    539  59cc				  -	      jsr	PutBoardCharacterFromROM
    540  59cc				  -	      inc	POS_Type
    541  59cc				  -	      lda	POS_Type
    542  59cc				  -	      cmp	#CHARACTER_2
    543  59cc				  -			;bcc anotherC
    544  59cc					      endif
    545  59cc
    546  59cc
    547  59cc		       a5 a0		      lda	ManX
    548  59ce		       85 8c		      sta	POS_X_NEW	;NewX
    549  59d0		       85 8a		      sta	POS_X
    550  59d2		       a5 a1		      lda	ManY
    551  59d4		       85 8d		      sta	POS_Y_NEW	;NewY
    552  59d6		       85 8b		      sta	POS_Y
    553  59d8
    554  59d8		       e6 9f		      inc	manAnimationIndex
    555  59da		       a6 9f		      ldx	manAnimationIndex	; animation index
    556  59dc		       bd ec f1 	      lda	.ManStartup-1,x
    557  59df		       30 09		      bmi	CreateThePlayer
    558  59e1		       85 8e		      sta	POS_Type
    559  59e3
    560  59e3		       a9 ff		      lda	#$FF
    561  59e5		       85 a5		      sta	ManDelayCount	; anything, just non-0
    562  59e7
    563  59e7		       4c 3a f8 	      jmp	PutBoardCharacterFromRAM	;70 --> switches this bank out but who cares!
    564  59ea
    565  59ea				   CreateThePlayer
    566  59ea
    567  59ea		       e6 a4		      inc	ManMode	; --> MANMODE_NORMAL
    568  59ec				   RTS_CF
    569  59ec		       60		      rts
    570  59ed
    571  59ed				   .ManStartup
    572  59ed		       09		      .byte.b	CHARACTER_NOGO
    573  59ee		       09		      .byte.b	CHARACTER_NOGO
    574  59ef		       06		      .byte.b	CHARACTER_STEEL
    575  59f0							;    .byte CHARACTER_STEEL
    576  59f0		       09		      .byte.b	CHARACTER_NOGO
    577  59f1							;    .byte CHARACTER_NOGO
    578  59f1		       06		      .byte.b	CHARACTER_STEEL
    579  59f2							;    .byte CHARACTER_NOGO
    580  59f2							;    .byte CHARACTER_STEEL
    581  59f2							;    .byte CHARACTER_NOGO
    582  59f2							;    .byte CHARACTER_STEEL
    583  59f2							;    .byte CHARACTER_NOGO
    584  59f2							;    .byte CHARACTER_STEEL
    585  59f2							;    .byte CHARACTER_NOGO
    586  59f2							;    .byte CHARACTER_STEEL
    587  59f2							;    .byte CHARACTER_NOGO
    588  59f2							;    .byte CHARACTER_STEEL
    589  59f2							;.byte CHARACTER_NOGO
    590  59f2		       05		      .byte.b	CHARACTER_MANOCCUPIED
    591  59f3		       ff		      .byte.b	-1
    592  59f4
    593  59f4							;------------------------------------------------------------------------------
    594  59f4
    595  59f4				   waitingMan
    596  59f4				   waitingManPress
    597  59f4
    598  59f4							;		  lda #50
    599  59f4							;		  sta ColourTimer
    600  59f4
    601  59f4
    602  59f4		       a5 d0		      lda	NextLevelTrigger
    603  59f6		       09 40		      ora	#BIT_NEXTLIFE
    604  59f8		       85 d0		      sta	NextLevelTrigger
    605  59fa		       60		      rts
    606  59fb
    607  59fb
    608  59fb							;------------------------------------------------------------------------------
    609  59fb							; Normal man state
    610  59fb
    611  59fb
    612  59fb				   normalMan
    613  59fb
    614  59fb							; Calling code uses 'POS_X_NEW' and 'POS_Y_NEW' as new player position, so these must be set
    615  59fb							; before exiting via (for example) look-around option :)
    616  59fb
    617  59fb		       a5 a0		      lda	ManX
    618  59fd		       85 8c		      sta	POS_X_NEW
    619  59ff		       a5 a1		      lda	ManY
    620  5a01		       85 8d		      sta	POS_Y_NEW
    621  5a03
    622  5a03							;------------------------------------------------------------------------------
    623  5a03							; Look around is triggered by holding down the fire button for a while, without any other
    624  5a03							; joystick directions chosen. The variable LookingAround has a negative value ($FF) when looking
    625  5a03							; is active. Otherwise, it is counting down to the time where it will trigger.
    626  5a03
    627  5a03		       00 00	   LOOK_DELAY =	0
    628  5a03
    629  5a03
    630  5a03							;------------------------------------------------------------------------------
    631  5a03							; Take-back is a press/release of the button, with the press being limited in duratino
    632  5a03							; to allow the action to be "cancelled". Meanwhile, a button press + direction triggers
    633  5a03							; "look-around mode"
    634  5a03
    635  5a03		       a5 97		      lda	BufferedButton
    636  5a05		       30 36		      bmi	noLook	; button?
    637  5a07
    638  5a07							; button pressed, so in looking-around mode
    639  5a07
    640  5a07		       a2 ff		      ldx	#$FF
    641  5a09		       86 97		      stx	BufferedButton	; "release" button
    642  5a0b
    643  5a0b		       a5 ab		      lda	LookingAround
    644  5a0d		       30 02		      bmi	LookAround
    645  5a0f		       86 ab		      stx	LookingAround
    646  5a11				   LookAround
    647  5a11
    648  5a11							; Use the joystick as a window-scroller to change the viewport
    649  5a11
    650  5a11		       a5 95		      lda	BufferedJoystick
    651  5a13		       4a		      lsr
    652  5a14		       4a		      lsr
    653  5a15		       4a		      lsr
    654  5a16		       4a		      lsr
    655  5a17		       a8		      tay
    656  5a18
    657  5a18		       b9 98 f2 	      lda	JoyMoveX,y
    658  5a1b		       19 a4 f2 	      ora	JoyMoveY,y
    659  5a1e		       f0 1c		      beq	AbandonY
    660  5a20
    661  5a20		       a9 fe		      lda	#$FE
    662  5a22		       85 ab		      sta	LookingAround
    663  5a24
    664  5a24		       b9 98 f2 	      lda	JoyMoveX,y
    665  5a27							;asl
    666  5a27		       18		      clc
    667  5a28		       65 9c		      adc	BoardScrollX
    668  5a2a		       c5 99		      cmp	BoardEdge_Right
    669  5a2c		       b0 02		      bcs	AbandonX
    670  5a2e		       85 9c		      sta	BoardScrollX
    671  5a30
    672  5a30		       b9 a4 f2    AbandonX   lda	JoyMoveY,y
    673  5a33							;asl
    674  5a33		       18		      clc
    675  5a34		       65 9b		      adc	BoardScrollY
    676  5a36		       c5 9a		      cmp	BoardEdge_Bottom
    677  5a38		       b0 02		      bcs	AbandonY
    678  5a3a		       85 9b		      sta	BoardScrollY
    679  5a3c
    680  5a3c		       60	   AbandonY   rts
    681  5a3d
    682  5a3d		       a2 00	   noLook     ldx	#0
    683  5a3f		       a5 ab		      lda	LookingAround
    684  5a41		       c9 ff		      cmp	#$FF
    685  5a43		       86 ab		      stx	LookingAround
    686  5a45		       d0 12		      bne	bProcComp	; $FE means there was a lookaround, so skip
    687  5a47
    688  5a47							; button was presssed and now released and we didn't actually look around
    689  5a47							; so we do a take-back
    690  5a47		       a5 81		      lda	Platform
    691  5a49		       69 04		      adc	#4
    692  5a4b		       85 cc		      sta	ColourFlash
    693  5a4d		       a9 05		      lda	#5
    694  5a4f		       85 cb		      sta	ColourTimer
    695  5a51
    696  5a51		       a9 0b		      lda	#BANK_ManProcess
    697  5a53		       85 c9		      sta	ROM_Bank	;? might already be set
    698  5a55		       20 17 fa 	      jsr	takebackRestoreEarlierPosition
    699  5a58
    700  5a58		       60		      rts
    701  5a59
    702  5a59				   bProcComp
    703  5a59							;------------------------------------------------------------------------------
    704  5a59
    705  5a59							; control the scrolling via the joystick
    706  5a59
    707  5a59		       a5 a9		      lda	ManLastDirection
    708  5a5b		       29 07		      and	#DIRECTION_BITS
    709  5a5d		       a8		      tay
    710  5a5e
    711  5a5e		       a5 95		      lda	BufferedJoystick	; joystick
    712  5a60		       25 96		      and	BufferedJoystick+1
    713  5a62
    714  5a62		       a2 00		      ldx	#0
    715  5a64		       0a	   .loopDirs  asl
    716  5a65		       90 07		      bcc	.dirFound
    717  5a67		       88		      dey
    718  5a68		       e8		      inx
    719  5a69		       e0 04		      cpx	#4
    720  5a6b		       d0 f7		      bne	.loopDirs
    721  5a6d		       18		      clc
    722  5a6e				   .dirFound
    723  5a6e		       a5 8c		      lda	POS_X_NEW	;NewX
    724  5a70		       7d b1 f2 	      adc	JoyDirX,x
    725  5a73		       85 8c		      sta	POS_X_NEW	;NewX
    726  5a75		       a5 8d		      lda	POS_Y_NEW	;NewY
    727  5a77		       18		      clc
    728  5a78		       7d af f2 	      adc	JoyDirY,x
    729  5a7b		       85 8d		      sta	POS_Y_NEW	;NewY
    730  5a7d
    731  5a7d		       98		      tya
    732  5a7e		       f0 12		      beq	noMovement	; animation OK
    733  5a80
    734  5a80		       8a		      txa
    735  5a81		       45 a9		      eor	ManLastDirection
    736  5a83		       29 07		      and	#DIRECTION_BITS
    737  5a85		       45 a9		      eor	ManLastDirection
    738  5a87		       85 a9		      sta	ManLastDirection
    739  5a89		       bd 93 f2 	      lda	ManAnimTblLo,x
    740  5a8c		       85 a6		      sta	ManAnimation
    741  5a8e							;lda ManAnimTblHi,x
    742  5a8e							;sta ManAnimation+1
    743  5a8e		       a9 00		      lda	#0
    744  5a90		       85 a5		      sta	ManDelayCount
    745  5a92				   phase0		;jsr MovePlayer
    746  5a92				   noMovement		;ldx MAN_Player
    747  5a92
    748  5a92		       60	   DFS_rts    rts
    749  5a93
    750  5a93
    751  5a93				   ManAnimTblLo
    752  5a93		       00 00 00 00*	      .byte.b	AnimateRIGHT-Manimate, AnimateLEFT-Manimate, AnimateUP-Manimate, AnimateUP-Manimate, AnimateSTOPPED-Manimate
    753  5a98							;ManAnimTblHi
    754  5a98							;    .byte   >AnimateRIGHT, >AnimateLEFT, >AnimateUP, >AnimateUP, >AnimateSTOPPED
    755  5a98
    756  5a98
    757  5a98
    758  5a98		       00 00 00 00*JoyMoveX   .byte.b	0,0,0,0,0,1, 1,1,0,-1,-1,-1	;,0, 0,0,0
    759  5aa4		       00 00 00 00*JoyMoveY   .byte.b	0,0,0,0,0,1,-1,0,0, 1,-1	;, 0,0,1,-1,0
    760  5aaf
    761  5aaf				   JoyDirY
    762  5aaf		       00 00		      .byte.b	0,0	;,1,-1,0
    763  5ab1				   JoyDirX
    764  5ab1		       01 ff 00 00*	      .byte.b	1,-1,0,0,0
    765  5ab6
    766  5ab6
    767  5ab6							;------------------------------------------------------------------------------
    768  5ab6
    769  5ab6
      0  5ab6					      DEFINE_SUBROUTINE	DrawFullScreen	; = 2568[-96]
      1  5ab6		       00 0b	   BANK_DrawFullScreen =	_CURRENT_BANK
      2  5ab6					      SUBROUTINE
      3  5ab6				   DrawFullScreen
    771  5ab6
    772  5ab6							; 83[-7] + 2484[-89] = 2567[-96]
    773  5ab6
    774  5ab6
    775  5ab6		       ad 84 02 	      lda	INTIM	; 4
    776  5ab9		       c9 26		      cmp	#SEGTIME_BDF	; 2
    777  5abb		       90 d5		      bcc	DFS_rts	; 2/3
      0  5abd					      STRESS_TIME	SEGTIME_BDF
      1  5abd				  -	      IF	TEST_SEGTIME_BDF = 1
      2  5abd				  -
      3  5abd				  -
      4  5abd				  -
      5  5abd				  -
      6  5abd				  -
      7  5abd				  -	      echo	"***** WARNING! STRESS_TIME enabled @", ., "! *****"
      8  5abd				  -	      bne	. - 7
      9  5abd					      ENDIF
    779  5abd
    780  5abd		       a9 f4		      lda	#>( DrawFlag + RAM_WRITE )	; 2
    781  5abf		       85 e2		      sta	BDF_DrawFlagAddress+1	; 3
    782  5ac1		       85 e4		      sta	BDF_DrawFlagAddress2+1	; 3
    783  5ac3
    784  5ac3		       ba		      tsx		; 2
    785  5ac4		       86 eb		      stx	DHS_Stack	; 3
    786  5ac6
    787  5ac6		       e6 89		      inc	ScreenDrawPhase	; 5
    788  5ac8
    789  5ac8		       18		      clc		; 2	     required clear for DrawScreenRowPreparation
    790  5ac9		       a2 08		      ldx	#SCREEN_LINES	; 2
    791  5acb		       8a		      txa		; 2 = *32
    792  5acc
    793  5acc							; fall through
    794  5acc
    795  5acc							;------------------------------------------------------------------------------
    796  5acc
      0  5acc					      DEFINE_SUBROUTINE	DrawScreenRowPreparation	; = *59[-7 if not multi-bank-board]
      1  5acc		       00 0b	   BANK_DrawScreenRowPreparation =	_CURRENT_BANK
      2  5acc					      SUBROUTINE
      3  5acc				   DrawScreenRowPreparation
    798  5acc
    799  5acc							;clc
    800  5acc		       ca		      dex		; 2
    801  5acd		       86 ea		      stx	DHS_Line	; 3
    802  5acf		       65 9b		      adc	BoardScrollY	; 3	     the Y offset of screen into board
    803  5ad1		       a8		      tay		; 2 = 10
    804  5ad2
    805  5ad2							;clc
    806  5ad2		       b9 00 f0 	      lda	BoardLineStartLO-1,y	; 4	     Y is one too big!
    807  5ad5		       65 9c		      adc	BoardScrollX	; 3	     the X offset of screen into board
    808  5ad7		       85 e5		      sta	BDF_BoardAddress	; 3
    809  5ad9		       69 05		      adc	#SCREEN_WIDTH/2	; 2
    810  5adb		       85 e7		      sta	BDF_BoardAddress2	; 3
    811  5add
    812  5add		       b9 14 f0 	      lda	BoardLineStartHiR-1,y	; 4	     a board line *WILL NOT CROSS* page boundary
    813  5ae0		       85 e6		      sta	BDF_BoardAddress+1	; 3
    814  5ae2		       85 e8		      sta	BDF_BoardAddress2+1	; 3 = 25
    815  5ae4
    816  5ae4		       bd ba f0 	      lda	DrawLineStartLO,x	; 4
    817  5ae7		       85 e1		      sta	BDF_DrawFlagAddress	; 3
    818  5ae9		       69 05		      adc	#SCREEN_WIDTH/2	; 2
    819  5aeb		       85 e3		      sta	BDF_DrawFlagAddress2	; 3 = 12
    820  5aed
    821  5aed				  -	      IF	MULTI_BANK_BOARD = YES
    822  5aed				  -	      lda	BoardBank-1,y	; 4
    823  5aed				  -	      sta	BDF_BoardBank	; 3
    824  5aed					      ENDIF
    825  5aed		       a0 04		      ldy	#SCREEN_WIDTH/2-1	; 2
    826  5aef		       4c 31 fb 	      jmp	CopyRow2	; 3 = 12[-7]
    827  5af2
    828  5af2							;------------------------------------------------------------------------------
    829  5af2
      0  5af2					      DEFINE_SUBROUTINE	VectorProcess	;=19(A)
      1  5af2		       00 0b	   BANK_VectorProcess =	_CURRENT_BANK
      2  5af2					      SUBROUTINE
      3  5af2				   VectorProcess
    831  5af2
    832  5af2							;sta ROM_Bank			  ;3		  processors can assume bank is stored
    833  5af2
    834  5af2		       bd 00 f3 	      lda	OSPointerHI,x	;4
    835  5af5		       85 e2		      sta	POS_Vector+1	;3
    836  5af7		       bd ff f2 	      lda	OSPointerLO,x	;4
    837  5afa		       85 e1		      sta	POS_Vector	;3
    838  5afc
    839  5afc		       6c e1 00 	      jmp	(POS_Vector)	;5 = 19	 vector to processor for particular object type
    840  5aff							;		 NOTE: Bank is either INITBANK or FIXED.
    841  5aff
    842  5aff
    843  5aff				   OBJTYPE    SET	0
    844  5aff					      MAC	define
    845  5aff				   TYPE_{1}   =	OBJTYPE
    846  5aff				   OBJTYPE    .SET	OBJTYPE + 1
    847  5aff					      ENDM
    848  5aff
    849  5aff							; If adding/removing types, the following must also be updated...
    850  5aff							;   InitialFace[...]		     in UnpackLevel.asm
    851  5aff							;   BaseTypeCharacter[...]	     in BANK_FIXED.asm
    852  5aff							;   BaseTypeCharacterFalling[...]   in BANK_FIXED.asm
    853  5aff							;   OSPointerLO[...]		     in BANK_INITBANK.asm
    854  5aff							;   OSPointerHI[...]		     in BANK_INITBANK.asm
    855  5aff							;   CharReplacement[...]	     in BANK_ROM_SHADOW_DRAWBUFFERS.asm
    856  5aff							;   Sortable[...]		     in BANK_FIXED.asm
    857  5aff
    858  5aff
      0  5aff					      DEFINE	MAN
      1  5aff		       00 00	   TYPE_MAN   =	OBJTYPE
      2  5aff				   OBJTYPE    .SET	OBJTYPE + 1
    860  5aff							;DEFINE CIRCLE
    861  5aff							;DEFINE CIRCLE_HELPER
    862  5aff							;DEFINE CIRCLE_DRAWER
    863  5aff
      0  5aff					      DEFINE	MAXIMUM
      1  5aff		       00 01	   TYPE_MAXIMUM =	OBJTYPE
      2  5aff				   OBJTYPE    .SET	OBJTYPE + 1
    865  5aff
    866  5aff
      0  5aff					      DEFINE_SUBROUTINE	OSPointerLO
      1  5aff		       00 0b	   BANK_OSPointerLO =	_CURRENT_BANK
      2  5aff					      SUBROUTINE
      3  5aff				   OSPointerLO
    868  5aff		       d0		      .byte.b	<PROCESS_MAN
    869  5b00							;.byte <PROCESS_CIRCLE
    870  5b00							;.byte <PROCESS_CIRCLE_HELPER
    871  5b00
    872  5b00				  -	      IF	* - OSPointerLO < TYPE_MAXIMUM-4
    873  5b00				  -	      ECHO	"ERROR: Missing entry in OSPointerLO table!"
    874  5b00				  -	      ERR
    875  5b00					      ENDIF
    876  5b00
    877  5b00
      0  5b00					      DEFINE_SUBROUTINE	OSPointerHI
      1  5b00		       00 0b	   BANK_OSPointerHI =	_CURRENT_BANK
      2  5b00					      SUBROUTINE
      3  5b00				   OSPointerHI
    879  5b00		       f8		      .byte.b	>PROCESS_MAN
    880  5b01							;.byte >PROCESS_CIRCLE
    881  5b01							;.byte >PROCESS_CIRCLE_HELPER
    882  5b01
    883  5b01				  -	      IF	* - OSPointerHI < TYPE_MAXIMUM-4
    884  5b01				  -	      ECHO	"ERROR: Missing entry in OSPointerHI table!"
    885  5b01				  -	      ERR
    886  5b01					      ENDIF
    887  5b01
    888  5b01							;------------------------------------------------------------------------------
    889  5b01
      0  5b01					      DEFINE_SUBROUTINE	MoveVecLO	; [character type]
      1  5b01		       00 0b	   BANK_MoveVecLO =	_CURRENT_BANK
      2  5b01					      SUBROUTINE
      3  5b01				   MoveVecLO
    891  5b01
    892  5b01		       d6		      .byte.b	<MOVE_BLANK
    893  5b02		       d6		      .byte.b	<MOVE_SOIL
    894  5b03		       05		      .byte.b	<MOVE_BOX
    895  5b04		       d6		      .byte.b	<MOVE_TARGET
    896  5b05		       d6		      .byte.b	<MOVE_TARGET
    897  5b06		       00		      .byte.b	<MOVE_GENERIC	;man occupied
    898  5b07		       00		      .byte.b	<MOVE_GENERIC	;steel
    899  5b08		       00		      .byte.b	<MOVE_GENERIC	;wall
    900  5b09		       0e		      .byte.b	<MOVE_BOX_ON_TARGET	;box on target
    901  5b0a		       00		      .byte.b	<MOVE_GENERIC	;nogo
    902  5b0b
    903  5b0b				  -	      if	DIGITS
    904  5b0b				  -	      REPEAT	10	; DIGITS 0-9
    905  5b0b				  -	      .byte	<MOVE_BLANK
    906  5b0b				  -	      REPEND
    907  5b0b					      endif
    908  5b0b
    909  5b0b				  -	      if	TROPHY
    910  5b0b				  -	      REPEAT	20	; 4x5
    911  5b0b				  -	      .byte	<MOVE_BLANK
    912  5b0b				  -	      REPEND
    913  5b0b					      endif
    914  5b0b
    915  5b0b				  -	      IF	* - MoveVecLO != CHARACTER_MAXIMUM
    916  5b0b				  -	      ECHO	"ERROR: Incorrect number of entries in MoveVecLO table!"
    917  5b0b				  -	      ERR
    918  5b0b					      ENDIF
    919  5b0b
    920  5b0b
      0  5b0b					      DEFINE_SUBROUTINE	MoveVecHI	;[character type]
      1  5b0b		       00 0b	   BANK_MoveVecHI =	_CURRENT_BANK
      2  5b0b					      SUBROUTINE
      3  5b0b				   MoveVecHI
    922  5b0b
    923  5b0b		       f9		      .byte.b	>MOVE_BLANK
    924  5b0c		       f9		      .byte.b	>MOVE_SOIL
    925  5b0d		       fa		      .byte.b	>MOVE_BOX
    926  5b0e		       f9		      .byte.b	>MOVE_TARGET
    927  5b0f		       f9		      .byte.b	>MOVE_TARGET
    928  5b10		       fa		      .byte.b	>MOVE_GENERIC	;man occupied
    929  5b11		       fa		      .byte.b	>MOVE_GENERIC	;steel
    930  5b12		       fa		      .byte.b	>MOVE_GENERIC	;wall
    931  5b13		       fa		      .byte.b	>MOVE_BOX_ON_TARGET	;box on target
    932  5b14		       fa		      .byte.b	>MOVE_GENERIC	;nogo
    933  5b15
    934  5b15				  -	      if	DIGITS
    935  5b15				  -	      REPEAT	10	; DIGITS 0-9
    936  5b15				  -	      .byte	>MOVE_BLANK
    937  5b15				  -	      REPEND
    938  5b15					      endif
    939  5b15
    940  5b15				  -	      if	TROPHY
    941  5b15				  -	      REPEAT	20	; 4x5
    942  5b15				  -	      .byte	>MOVE_BLANK
    943  5b15				  -	      REPEND
    944  5b15					      endif
    945  5b15
    946  5b15				  -	      IF	* - MoveVecHI != CHARACTER_MAXIMUM
    947  5b15				  -	      ECHO	"ERROR: Incorrect number of entries in MoveVecHI table!"
    948  5b15				  -	      ERR
    949  5b15					      ENDIF
    950  5b15
    951  5b15
      0  5b15					      CHECK_BANK_SIZE	"INITBANK"
      1  5b15		       03 15	   .TEMP      =	* - BANK_START
 INITBANK (2K) SIZE =  $315 , FREE= $4eb
      2  5b15					      ECHO	"INITBANK", "(2K) SIZE = ", .TEMP, ", FREE=", ROM_BANK_SIZE - .TEMP
      3  5b15				  -	      if	( .TEMP ) > ROM_BANK_SIZE
      4  5b15				  -	      ECHO	"BANK OVERFLOW @ ", * - ORIGIN
      5  5b15				  -	      ERR
      6  5b15					      endif
------- FILE ./sokoboo.asm
------- FILE BANK_FIXED.asm LEVEL 2 PASS 4
      0  5b15					      include	"BANK_FIXED.asm"
      1  5b15							;    Sokoboo - a Sokoban implementation
      2  5b15							;    using a generic tile-based display engine for the Atari 2600
      3  5b15							;    Sokoban (倉庫番)™ is © Falcon Co., Ltd.
      4  5b15							;
      5  5b15							;    Code related to this Sokoban™ implementation was developed by Andrew Davie.
      6  5b15							;
      7  5b15							;    Code related to the generic tile-based display engine was developed by
      8  5b15							;    Andrew Davie and Thomas Jentzsch during 2003-2011 and is
      9  5b15							;    Copyright(C)2003-2019 Thomas Jentzsch and Andrew Davie - contacts details:
     10  5b15							;    Andrew Davie (andrew@taswegian.com), Thomas Jentzsch (tjentzsch@yahoo.de).
     11  5b15							;
     12  5b15							;    Code related to music and sound effects uses the TIATracker music player
     13  5b15							;    Copyright 2016 Andre "Kylearan" Wichmann - see source code in the "sound"
     14  5b15							;    directory for Apache licensing details.
     15  5b15							;
     16  5b15							;    Some level data incorporated in this program were created by Lee J Haywood.
     17  5b15							;    See the copyright notices in the License directory for a list of level
     18  5b15							;    contributors.
     19  5b15							;
     20  5b15							;    Except where otherwise indicated, this software is released under the
     21  5b15							;    following licensing arrangement...
     22  5b15							;
     23  5b15							;    This program is free software: you can redistribute it and/or modify
     24  5b15							;    it under the terms of the GNU General Public License as published by
     25  5b15							;    the Free Software Foundation, either version 3 of the License, or
     26  5b15							;    (at your option) any later version.
     27  5b15							;    see https://www.gnu.org/licenses/gpl-3.0.en.html
     28  5b15
     29  5b15							;    This program is distributed in the hope that it will be useful,
     30  5b15							;    but WITHOUT ANY WARRANTY; without even the implied warranty of
     31  5b15							;    MERCHANTABILITY or FITNESS FOR A PARTICULAR PURPOSE.  See the
     32  5b15							;    GNU General Public License for more details.
     33  5b15
     34  5b15							;------------------------------------------------------------------------------
     35  5b15							;###############################  FIXED BANK  #################################
     36  5b15							;------------------------------------------------------------------------------
     37  5b15
     38  5b15
     39  5b15				   ORIGIN     SET	FIXED_BANK
     40  5b15
      0  5b15					      NEWBANK	THE_FIXED_BANK
      1  7f90 ????				      SEG	THE_FIXED_BANK
      2  7800					      ORG	ORIGIN
      3  7800					      RORG	$F000
      4  7800				   BANK_START SET	*
      5  7800				   THE_FIXED_BANK SET	ORIGIN / 2048
      6  7800				   ORIGIN     SET	ORIGIN + 2048
      7  7800				   _CURRENT_BANK SET	THE_FIXED_BANK
     42  7800					      RORG	$f800
     43  7800
     44  7800
     45  7800
     46  7800							;------------------------------------------------------------------------------
     47  7800
      0  7800					      DEFINE_SUBROUTINE	DrawTimeFromROM
      1  7800		       00 0f	   BANK_DrawTimeFromROM =	_CURRENT_BANK
      2  7800					      SUBROUTINE
      3  7800				   DrawTimeFromROM
     49  7800
     50  7800		       a9 09		      lda	#BANK_SCORING
     51  7802		       85 3e		      sta	SET_BANK_RAM
     52  7804		       20 cd f2 	      jsr	DrawTime
     53  7807		       20 b8 f2 	      jsr	DrawTargetsRequired
     54  780a		       a5 c9		      lda	ROM_Bank
     55  780c		       85 3f		      sta	SET_BANK
     56  780e		       60		      rts
     57  780f
     58  780f							;------------------------------------------------------------------------------
     59  780f
      0  780f					      DEFINE_SUBROUTINE	GetROMByte	;=23(A)
      1  780f		       00 0f	   BANK_GetROMByte =	_CURRENT_BANK
      2  780f					      SUBROUTINE
      3  780f				   GetROMByte
     61  780f
     62  780f							; a = ROM bank to retrieve
     63  780f							; y = page index
     64  780f							; ROM_Bank = bank to return to
     65  780f							; (Board_AddressR) = page
     66  780f							; out a = byte from (Board_AddressR)
     67  780f
     68  780f		       85 3f		      sta	SET_BANK	;3
     69  7811		       4c 16 f8 	      jmp	GetBoardCharacter2	;3+17(A)	 unconditional
     70  7814
     71  7814							;------------------------------------------------------------------------------
     72  7814
      0  7814					      DEFINE_SUBROUTINE	GetBoardCharacter	;=20(A)
      1  7814		       00 0f	   BANK_GetBoardCharacter =	_CURRENT_BANK
      2  7814					      SUBROUTINE
      3  7814				   GetBoardCharacter
     74  7814
     75  7814							; call from ROM bank
     76  7814							; switches back to ROM_Bank on exit
     77  7814
     78  7814							; pass A = bank containing character
     79  7814							; Y = x character position
     80  7814							; (Board_AddressR) points to character position
     81  7814							; returns character from board
     82  7814
     83  7814
     84  7814		       85 3e		      sta	SET_BANK_RAM	;3   switch to bank to read
     85  7816
     86  7816				   GetBoardCharacter2		;=17(A)
     87  7816
     88  7816		       b3 c5		      lax	(Board_AddressR),y	;5
     89  7818		       a4 c9		      ldy	ROM_Bank	;3
     90  781a		       84 3f		      sty	SET_BANK	;3   switch back caller's bank
     91  781c		       60		      rts		;6   and go back
     92  781d
     93  781d							;---------------------------------------------------------------------------
     94  781d
      0  781d					      DEFINE_SUBROUTINE	PutBoardCharacter	;=21(A)
      1  781d		       00 0f	   BANK_PutBoardCharacter =	_CURRENT_BANK
      2  781d					      SUBROUTINE
      3  781d				   PutBoardCharacter
     96  781d
     97  781d		       86 3e		      stx	SET_BANK_RAM	; 3
     98  781f
     99  781f				   PutBoardCharacterSB		; =18
    100  781f		       91 c7		      sta	(Board_AddressW),y	; 6
    101  7821		       a5 c9		      lda	ROM_Bank	; 3
    102  7823		       85 3f		      sta	SET_BANK	; 3
    103  7825		       60		      rts		; 6 = 21
    104  7826
    105  7826							;---------------------------------------------------------------------------
    106  7826
      0  7826					      DEFINE_SUBROUTINE	GetBoardCharacter__CALL_FROM_RAM__	;=61[-2](A)
      1  7826		       00 0f	   BANK_GetBoardCharacter__CALL_FROM_RAM__ =	_CURRENT_BANK
      2  7826					      SUBROUTINE
      3  7826				   GetBoardCharacter__CALL_FROM_RAM__
    108  7826
    109  7826		       a4 8b		      ldy	POS_Y	;3
    110  7828
    111  7828		       a9 0b		      lda	#BANK_GetBoardAddressR	;
    112  782a		       85 3f		      sta	SET_BANK	;
    113  782c		       20 d5 f0 	      jsr	GetBoardAddressR	;11+24[-2](A)
    114  782f
    115  782f
    116  782f							;DEFINE_SUBROUTINE PartialGetBoardCharacter ;=23
    117  782f
    118  782f		       85 3e		      sta	SET_BANK_RAM	;3
    119  7831		       a4 8a		      ldy	POS_X	;3
    120  7833		       b3 c5		      lax	(Board_AddressR),y	;5
    121  7835		       a4 ca		      ldy	RAM_Bank	;3
    122  7837		       84 3e		      sty	SET_BANK_RAM	;3		 return to RAM caller
    123  7839		       60		      rts		;6		 and go back
    124  783a
    125  783a							;---------------------------------------------------------------------------
    126  783a
      0  783a					      DEFINE_SUBROUTINE	PutBoardCharacterFromRAM	;=71[-2]
      1  783a		       00 0f	   BANK_PutBoardCharacterFromRAM =	_CURRENT_BANK
      2  783a					      SUBROUTINE
      3  783a				   PutBoardCharacterFromRAM
    128  783a
    129  783a							; POS_Y  = row
    130  783a							; POS_Type = character to write
    131  783a							; POS_X     = column
    132  783a							; RAM_Bank = caller's bank
    133  783a
    134  783a		       a4 8b		      ldy	POS_Y	;3
    135  783c
    136  783c		       a9 0b		      lda	#BANK_GetBoardAddressW	;
    137  783e		       85 3f		      sta	SET_BANK	;
    138  7840		       20 e2 f0 	      jsr	GetBoardAddressW	;11+24[-2](A)
    139  7843
    140  7843		       86 3e		      stx	SET_BANK_RAM	;3
    141  7845
    142  7845		       a4 8a		      ldy	POS_X	;3
    143  7847		       a5 8e		      lda	POS_Type	;3
    144  7849		       91 c7		      sta	(Board_AddressW),y	;6
    145  784b		       a4 ca		      ldy	RAM_Bank	;3
    146  784d		       84 3e		      sty	SET_BANK_RAM	;3 return to RAM caller
    147  784f		       60		      rts		;6
    148  7850
    149  7850
      0  7850					      DEFINE_SUBROUTINE	PutBoardCharacterFromROM
      1  7850		       00 0f	   BANK_PutBoardCharacterFromROM =	_CURRENT_BANK
      2  7850					      SUBROUTINE
      3  7850				   PutBoardCharacterFromROM
    151  7850		       48		      pha
    152  7851		       20 3a f8 	      jsr	PutBoardCharacterFromRAM
    153  7854		       68		      pla
    154  7855		       85 3f		      sta	SET_BANK
    155  7857		       60		      rts
    156  7858
    157  7858							;---------------------------------------------------------------------------
    158  7858
      0  7858					      DEFINE_SUBROUTINE	ProcessObjStack	; 15 minimum segtime abort
      1  7858		       00 0f	   BANK_ProcessObjStack =	_CURRENT_BANK
      2  7858					      SUBROUTINE
      3  7858				   ProcessObjStack
    160  7858
    161  7858		       ad 84 02 	      lda	INTIM	;4
    162  785b		       c9 02		      cmp	#MINIMUM_SEGTIME	;2
    163  785d		       90 3b		      bcc	EarlyAbort	;2/3= 8
      0  785f					      STRESS_TIME	MINIMUM_SEGTIME
      1  785f				  -	      IF	TEST_MINIMUM_SEGTIME = 1
      2  785f				  -
      3  785f				  -
      4  785f				  -
      5  785f				  -
      6  785f				  -
      7  785f				  -	      echo	"***** WARNING! STRESS_TIME enabled @", ., "! *****"
      8  785f				  -	      bne	. - 7
      9  785f					      ENDIF
    165  785f
    166  785f		       a5 85		      lda	ObjStackNum	;3
    167  7861		       49 01		      eor	#1	;2
    168  7863		       aa		      tax		;2
    169  7864
    170  7864		       a5 d3		      lda	ObjIterator	;3
    171  7866		       d5 86		      cmp	ObjStackPtr,x	;5
    172  7868		       b0 2e		      bcs	nextPhase	;2/3
    173  786a
    174  786a
    175  786a							; Process an object...
    176  786a							; Actual object code (the handlers) starts 82 cycles after previous segtime check!
    177  786a
    178  786a		       bc 5a f9 	      ldy	BankObjStack,x	;4
    179  786d		       84 3e		      sty	SET_BANK_RAM	;3
    180  786f
    181  786f		       aa		      tax		;2
    182  7870		       bc 80 11 	      ldy	SortedObjPtr,x	;4		 indirect object pointer list (sorted)
    183  7873
    184  7873		       b9 00 10 	      lda	ObjStackX,y	;4
    185  7876		       85 8a		      sta	POS_X	;3
    186  7878		       b9 80 10 	      lda	ObjStackY,y	;4
    187  787b		       85 8b		      sta	POS_Y	;3
    188  787d		       b9 00 11 	      lda	ObjStackVar,y	;4
    189  7880		       85 8f		      sta	POS_VAR	;3
    190  7882		       be 00 12 	      ldx	ObjStackType,y	;4
    191  7885		       86 8e		      stx	POS_Type	;3
    192  7887
    193  7887		       a9 0b		      lda	#BANK_VectorProcess	;2
    194  7889		       85 3f		      sta	SET_BANK	;3
    195  788b
    196  788b		       bd 00 f3 	      lda	OSPointerHI,x	;4
    197  788e		       85 e2		      sta	POS_Vector+1	;3
    198  7890		       bd ff f2 	      lda	OSPointerLO,x	;4
    199  7893		       85 e1		      sta	POS_Vector	;3
    200  7895
    201  7895		       6c e1 00 	      jmp	(POS_Vector)	;5 = 87	 vector to processor for particular object type
    202  7898
    203  7898
    204  7898							;---------------------------------------------------------------------------
    205  7898							; Now process the blank stack.  This stack holds all the recently blanked squares
    206  7898							; and determines (and moves) BOXs or TARGETs into these squares.  The space vacated
    207  7898							; by these objects are added again to the blank stack.
    208  7898
    209  7898				   nextPhase
    210  7898
    211  7898							;clc
    212  7898							;lda circle_d
    213  7898							;adc #255
    214  7898							;sta circle_d
    215  7898							;bcc nocirc
    216  7898							;nocirc
    217  7898
    218  7898		       e6 89		      inc	ScreenDrawPhase	;5		 obj/blank finished -- let the draw stuff proceed
    219  789a		       60	   EarlyAbort rts		;6
    220  789b
    221  789b							;---------------------------------------------------------------------------
    222  789b
      0  789b					      DEFINE_SUBROUTINE	SwitchObjects	;=72
      1  789b		       00 0f	   BANK_SwitchObjects =	_CURRENT_BANK
      2  789b					      SUBROUTINE
      3  789b				   SwitchObjects
    224  789b
    225  789b							; The game loop has come to an end. The only possible "still happening" thing is the sort, which runs
    226  789b							; in parallel with other processes (objects, draw stack, etc). We may or may not want to wait for the
    227  789b							; sort to complete.  This code does all the checks needed to switch to the next game frame.
    228  789b
    229  789b		       ad 84 02 	      lda	INTIM	; 4
    230  789e		       c9 02		      cmp	#SEGTIME_SWITCHOBJECTS	; 2
    231  78a0		       90 f8		      bcc	EarlyAbort	; 2/3= 8
      0  78a2					      STRESS_TIME	SEGTIME_SWITCHOBJECTS
      1  78a2				  -	      IF	TEST_SEGTIME_SWITCHOBJECTS = 1
      2  78a2				  -
      3  78a2				  -
      4  78a2				  -
      5  78a2				  -
      6  78a2				  -
      7  78a2				  -	      echo	"***** WARNING! STRESS_TIME enabled @", ., "! *****"
      8  78a2				  -	      bne	. - 7
      9  78a2					      ENDIF
    233  78a2
    234  78a2							; If we're undertime, then abort. The sort will continue to run, and that's great. Only when
    235  78a2							; we're at the throttle cutoff do we switch game-frames.
    236  78a2
    237  78a2							;sec
    238  78a2		       a5 bb		      lda	Throttle	;3
    239  78a4		       e9 a0		      sbc	#MAX_THROTTLE	;2
    240  78a6		       90 f2		      bcc	EarlyAbort	;2/3		 plenty of time left!
    241  78a8
    242  78a8							; Time is up. But we may be in a level which requires perfect sorting
    243  78a8							; So we check for these levels, and wait for the sort to complete for those.
    244  78a8
    245  78a8		       24 ba		      bit	levelDisplay	;3
    246  78aa		       50 08		      bvc	keepFractional	;2/3		 screen does not require complete sort
    247  78ac
    248  78ac							; We have a level which requires the sort to go to completion
    249  78ac							; Check to see if the sort is finished...
    250  78ac
    251  78ac		       a4 d2		      ldy	sortPtr	;3
    252  78ae		       d0 ea		      bne	EarlyAbort	;2/3		 sort still in progress, so wait
    253  78b0		       a4 d1		      ldy	sortRequired	;3
    254  78b2		       10 e6		      bpl	EarlyAbort	;2/3		 sort still in progress, so wait
    255  78b4
    256  78b4		       85 bb	   keepFractional sta	Throttle	;3		 save fractional 'left over' bit
    257  78b6
    258  78b6							; Pause the game with B/W switch:
    259  78b6
    260  78b6		       a5 80		      lda	gameMode
    261  78b8		       30 14		      bmi	.paused	; pause flag set
    262  78ba
    263  78ba							; Now that we have completed processing the object stack, we switch
    264  78ba							; the stack bank pointers for the next time around.
    265  78ba
    266  78ba		       a5 85		      lda	ObjStackNum	;3
    267  78bc		       49 01		      eor	#1	;2
    268  78be		       aa		      tax		;2
    269  78bf		       86 85		      stx	ObjStackNum	;3		 swap stacks @here
    270  78c1
    271  78c1							; STOP the sort so it doesn't corrupt the "other" object stack. Sort may get a look-in immediately after
    272  78c1							; this code is finished, so we don't want it to do something unexpected!
    273  78c1
    274  78c1		       a0 ff		      ldy	#<(-1)	;2
    275  78c3		       84 d1		      sty	sortRequired	;3
    276  78c5		       c8		      iny		;2		 Y==0
    277  78c6		       84 d2		      sty	sortPtr	;3
    278  78c8
    279  78c8							; Initialise the iterator and stack pointer for next time around.
    280  78c8							; Previously the stack pointer auto-initialised by popping the stack. Now we have an iterator it's
    281  78c8							; necessary to initialise both.
    282  78c8
    283  78c8		       84 d3		      sty	ObjIterator	;3		 Y==0
    284  78ca		       94 86		      sty	ObjStackPtr,x	;4
    285  78cc
    286  78cc		       84 89		      sty	ScreenDrawPhase	;3
    287  78ce				   .paused
    288  78ce		       60	   quickExit  rts		;6
    289  78cf
    290  78cf							;---------------------------------------------------------------------------
    291  78cf
    292  78cf				  -	      if	0
    293  78cf				  -	      DEFINE_SUBROUTINE	PROCESS_CIRCLE_DRAWER
    294  78cf				  -
    295  78cf				  -	      ldy	#CHARACTER_BLANK
    296  78cf				  -	      lda	circle_d+1
    297  78cf				  -			;jsr DrawCircle
    298  78cf				  -			;bcc finCircle
    299  78cf				  -			;lda #TYPE_CIRCLE_DRAWER
    300  78cf				  -			;sta POS_Type
    301  78cf				  -			;jsr InsertObjectStack
    302  78cf				  -finCircle  jmp	NextObject
    303  78cf				  -
    304  78cf				  -	      DEFINE_SUBROUTINE	PROCESS_CIRCLE_HELPER
    305  78cf				  -
    306  78cf				  -	      lda	INTIM
    307  78cf				  -	      cmp	#SEGTIME_CIRCLE_HELPER
    308  78cf				  -	      bcc	EarlyAbort
    309  78cf				  -
    310  78cf				  -
    311  78cf				  -	      jmp	NextObject	; and die
    312  78cf				  -
    313  78cf				  -
    314  78cf				  -	      DEFINE_SUBROUTINE	PROCESS_CIRCLE
    315  78cf				  -
    316  78cf				  -	      lda	INTIM
    317  78cf				  -	      cmp	#SEGTIME_CIRCLE
    318  78cf				  -	      bcc	EarlyAbort
    319  78cf				  -
    320  78cf				  -	      clc
    321  78cf				  -	      lda	circle_d
    322  78cf				  -	      adc	#255
    323  78cf				  -	      sta	circle_d
    324  78cf				  -	      bcc	inactiveCircle
    325  78cf				  -
    326  78cf				  -	      inc	circle_d+1
    327  78cf				  -	      lda	circle_d+1
    328  78cf				  -	      cmp	#20
    329  78cf				  -	      beq	circleComplete
    330  78cf				  -			; time to fire off another "ring" of the clearing circle
    331  78cf				  -
    332  78cf				  -			;sta POS_VAR		    ; diameter for helper to use
    333  78cf				  -			;lda #TYPE_CIRCLE_HELPER
    334  78cf				  -			;sta POS_Type
    335  78cf				  -			;jsr InsertObjectStack
    336  78cf				  -
    337  78cf				  -
    338  78cf				  -			; a = radius
    339  78cf				  -
    340  78cf				  -	      ldy	#CHARACTER_BLANK
    341  78cf				  -	      sty	circ_char
    342  78cf				  -
    343  78cf				  -	      lda	circle_d+1
    344  78cf				  -	      sec
    345  78cf				  -	      sbc	#1
    346  78cf				  -	      sta	circ_x
    347  78cf				  -	      eor	#255
    348  78cf				  -	      clc
    349  78cf				  -	      adc	#1
    350  78cf				  -	      sta	circ_scratch	; "d" --> "1-r" in unit terms
    351  78cf				  -
    352  78cf				  -	      lda	#0
    353  78cf				  -	      sta	circ_y
    354  78cf				  -
    355  78cf				  -			;lda circle_d+1		     ; radius
    356  78cf				  -			;lda #TYPE_CIRCLE_DRAWER
    357  78cf				  -			;sta POS_Type
    358  78cf				  -			;jsr InsertObjectStack
    359  78cf				  -
    360  78cf				  -	      ldy	#CHARACTER_BLANK
    361  78cf				  -	      lda	circle_d+1
    362  78cf				  -			;	      sec
    363  78cf				  -			;	      sbc #1
    364  78cf				  -	      jsr	DrawCircle
    365  78cf				  -
    366  78cf				  -			;	      ldy #CHARACTER_STEEL
    367  78cf				  -			;		sty circ_char
    368  78cf				  -	      lda	circle_d+1
    369  78cf				  -	      sta	circ_x
    370  78cf				  -	      eor	#255
    371  78cf				  -	      clc
    372  78cf				  -	      adc	#1
    373  78cf				  -	      sta	circ_scratch	; "d" --> "1-r" in unit terms
    374  78cf				  -
    375  78cf				  -	      lda	#0
    376  78cf				  -	      sta	circ_y
    377  78cf				  -
    378  78cf				  -			;lda circle_d+1		     ; radius
    379  78cf				  -			;lda #TYPE_CIRCLE_DRAWER
    380  78cf				  -			;sta POS_Type
    381  78cf				  -			;jsr InsertObjectStack
    382  78cf				  -
    383  78cf				  -			;	      ldy #CHARACTER_BLANK
    384  78cf				  -			;	      lda circle_d+1
    385  78cf				  -			;	      ;jsr DrawCircle
    386  78cf				  -
    387  78cf				  -
    388  78cf				  -
    389  78cf				  -			;			      inc circle_d+1
    390  78cf				  -			;			      ldy #CHARACTER_STEEL
    391  78cf				  -			;			      lda circle_d+1
    392  78cf				  -			;			      jsr DrawCircle
    393  78cf				  -
    394  78cf				  -inactiveCircle lda	#TYPE_CIRCLE
    395  78cf				  -	      sta	POS_Type
    396  78cf				  -	      jsr	InsertObjectStack
    397  78cf				  -
    398  78cf				  -circleComplete jmp	NextObject
    399  78cf					      endif
    400  78cf
    401  78cf							;---------------------------------------------------------------------------
    402  78cf
    403  78cf		       60	   EarlyAbort4 rts
    404  78d0
      0  78d0					      DEFINE_SUBROUTINE	PROCESS_MAN
      1  78d0		       00 0f	   BANK_PROCESS_MAN =	_CURRENT_BANK
      2  78d0					      SUBROUTINE
      3  78d0				   PROCESS_MAN
    406  78d0
    407  78d0		       ad 84 02 	      lda	INTIM
    408  78d3		       c9 0a		      cmp	#SEGTIME_MAN
    409  78d5		       90 f8		      bcc	EarlyAbort4
      0  78d7					      STRESS_TIME	SEGTIME_MAN
      1  78d7				  -	      IF	TEST_SEGTIME_MAN = 1
      2  78d7				  -
      3  78d7				  -
      4  78d7				  -
      5  78d7				  -
      6  78d7				  -
      7  78d7				  -	      echo	"***** WARNING! STRESS_TIME enabled @", ., "! *****"
      8  78d7				  -	      bne	. - 7
      9  78d7					      ENDIF
    411  78d7
    412  78d7		       a9 0b		      lda	#BANK_ManProcess
    413  78d9		       85 c9		      sta	ROM_Bank
    414  78db		       85 3f		      sta	SET_BANK
    415  78dd		       20 8d f1 	      jsr	ManProcess
    416  78e0
    417  78e0		       a9 ff		      lda	#-1
    418  78e2		       85 94		      sta	TB_CHAR	; pre-set box takeback to NONE
    419  78e4
    420  78e4		       20 5c f9 	      jsr	MovePlayer	; 6+{}
    421  78e7
    422  78e7		       a5 a4		      lda	ManMode
    423  78e9		       c9 07		      cmp	#MANMODE_NEXTLEVEL	; kludge
    424  78eb		       b0 08		      bcs	notComplete
    425  78ed		       a5 bd		      lda	targetsRequired
    426  78ef		       d0 04		      bne	notComplete
    427  78f1		       a9 07		      lda	#MANMODE_NEXTLEVEL
    428  78f3		       85 a4		      sta	ManMode
    429  78f5				   notComplete
    430  78f5
    431  78f5
    432  78f5		       a9 03		      lda	#BANK_TrackPlayer	;
    433  78f7		       85 3f		      sta	SET_BANK	;
    434  78f9		       20 c6 f4 	      jsr	TrackPlayer	;11+145
    435  78fc
    436  78fc		       a9 00		      lda	#TYPE_MAN	; 2
    437  78fe		       85 8e		      sta	POS_Type	; 3
    438  7900
    439  7900		       20 2c f9 	      jsr	InsertObjectStack	; 6+76(B)	    re-insert man (POS X/Y DOESN'T MATTER)
    440  7903		       4c 1f f9    gnobj      jmp	NextObject
    441  7906
    442  7906							;---------------------------------------------------------------------------
    443  7906
      0  7906					      DEFINE_SUBROUTINE	PutCharacterAtXY
      1  7906		       00 0f	   BANK_PutCharacterAtXY =	_CURRENT_BANK
      2  7906					      SUBROUTINE
      3  7906				   PutCharacterAtXY
    445  7906
    446  7906							; POS_X	 character location
    447  7906							; POS_Y
    448  7906							; POS_VAR	 character to put on board
    449  7906							; ROM_Bank	 ROM bank to return to
    450  7906
    451  7906		       a4 8b		      ldy	POS_Y
    452  7908
    453  7908		       a9 0b		      lda	#BANK_GetBoardAddressW
    454  790a		       85 3f		      sta	SET_BANK
    455  790c		       20 e2 f0 	      jsr	GetBoardAddressW
    456  790f		       86 3e		      stx	SET_BANK_RAM
    457  7911
    458  7911		       a4 8a		      ldy	POS_X
    459  7913		       a5 8f		      lda	POS_VAR
    460  7915		       91 c7		      sta	(Board_AddressW),y
    461  7917
    462  7917		       a5 c9		      lda	ROM_Bank
    463  7919		       85 3f		      sta	SET_BANK
    464  791b		       60		      rts
    465  791c
    466  791c							;---------------------------------------------------------------------------
    467  791c
    468  791c							; IF the creature runs out of time to do stuff, then rts HOWEVER the creature must eventually do something
    469  791c							;  as it will be continually called in available time-slices until it does. This can lockup the system.
    470  791c
    471  791c							; if the creature is done, and is alive next cycle, then jump ReInsertObject
    472  791c
    473  791c							; if the creature dies then jump NextObject
    474  791c
    475  791c
    476  791c		       20 2c f9    ReInsertObject jsr	InsertObjectStack	; 6+76(B)  = 98 (if jumping here)	  place on stack so it keeps moving
    477  791f
    478  791f		       e6 d3	   NextObject inc	ObjIterator	; 5
    479  7921							;		  dec ObjStackPtr,x		  ; 6
    480  7921		       4c 58 f8 	      jmp	ProcessObjStack	; 3 = 16
    481  7924
    482  7924							;---------------------------------------------------------------------------
    483  7924
      0  7924					      DEFINE_SUBROUTINE	InsertObjectStackFromRAM	;=94(B)
      1  7924		       00 0f	   BANK_InsertObjectStackFromRAM =	_CURRENT_BANK
      2  7924					      SUBROUTINE
      3  7924				   InsertObjectStackFromRAM
    485  7924
    486  7924		       20 2c f9 	      jsr	InsertObjectStack	;6+76(B)
    487  7927		       a5 ca		      lda	RAM_Bank	;3
    488  7929		       85 3e		      sta	SET_BANK_RAM	;3
    489  792b
    490  792b		       60	   NotEnoughTime rts		;6
    491  792c
    492  792c							;---------------------------------------------------------------------------
    493  792c
      0  792c					      DEFINE_SUBROUTINE	InsertObjectStack	;=81(B)
      1  792c		       00 0f	   BANK_InsertObjectStack =	_CURRENT_BANK
      2  792c					      SUBROUTINE
      3  792c				   InsertObjectStack
    495  792c							; POS_X     x position
    496  792c							; POS_Y     y position
    497  792c							; POS_VAR   direction or other variable
    498  792c							; POS_Type  type of object
    499  792c
    500  792c		       a6 85		      ldx	ObjStackNum	; 3
    501  792e		       bc 5a f9 	      ldy	BankObjStack,x	; 4
    502  7931		       84 3e		      sty	SET_BANK_RAM	; 3
    503  7933		       b4 86		      ldy	ObjStackPtr,x	; 4 = 14
    504  7935
    505  7935
    506  7935		       a5 8b		      lda	POS_Y	; 3
    507  7937		       99 80 14 	      sta	ObjStackY+RAM_WRITE,y	; 5
    508  793a		       a5 8a		      lda	POS_X	; 3
    509  793c		       99 00 14 	      sta	ObjStackX+RAM_WRITE,y	; 5
    510  793f		       a5 8f		      lda	POS_VAR	; 3
    511  7941		       99 00 15 	      sta	ObjStackVar+RAM_WRITE,y	; 5
    512  7944		       a5 8e		      lda	POS_Type	; 3
    513  7946		       99 00 16 	      sta	ObjStackType+RAM_WRITE,y	; 5 = 32
    514  7949
    515  7949							; Nice addition limits overflow of the stack, BUT always reserves a spot for the man.
    516  7949							; Objects are unceremoniously dumped when there's not enough space.  This is just trying to cater
    517  7949							; for a no-win situation. Try and preserve the player at the cost of correct gameplay. Avoid crashing.
    518  7949
    519  7949
    520  7949				  -	      IF	TYPE_MAN != 0
    521  7949				  -	      cmp	#TYPE_MAN	; 2
    522  7949					      ENDIF
    523  7949		       f0 04		      beq	alwaysAllowMan	; 2/3
    524  794b
    525  794b		       c0 7e		      cpy	#OBJ_STACK_SIZE-2	; 2	     reserve 1 last-gasp slot for man only
    526  794d		       b0 06		      bcs	insertDone	; 2/3= 6    no room -- drop object
    527  794f				   alwaysAllowMan
    528  794f
    529  794f		       98		      tya		; 2
    530  7950		       99 80 15 	      sta	SortedObjPtr+RAM_WRITE,y	; 5	     indirection pointer for later sorting
    531  7953
    532  7953		       f6 86		      inc	ObjStackPtr,x	; 7	     overflow is assumed not to happen!
    533  7955
    534  7955		       a4 c9	   insertDone ldy	ROM_Bank	; 3
    535  7957		       84 3f		      sty	SET_BANK	; 3
    536  7959
    537  7959				   ManIsDead2
    538  7959
    539  7959
    540  7959
    541  7959		       60		      rts		; 6 = 29
    542  795a
    543  795a							;---------------------------------------------------------------------------
    544  795a
    545  795a		       0b 0c	   BankObjStack .byte.b	BANK_OBJSTACK, BANK_OBJSTACK2
    546  795c
    547  795c							;---------------------------------------------------------------------------
    548  795c
      0  795c					      DEFINE_SUBROUTINE	MovePlayer
      1  795c		       00 0f	   BANK_MovePlayer =	_CURRENT_BANK
      2  795c					      SUBROUTINE
      3  795c				   MovePlayer
    550  795c
    551  795c		       a5 a4		      lda	ManMode
    552  795e		       c9 02		      cmp	#MANMODE_DEAD
    553  7960		       b0 f7		      bcs	ManIsDead2
    554  7962
    555  7962		       a4 8d		      ldy	POS_Y_NEW
    556  7964
    557  7964		       a9 0b		      lda	#BANK_GetBoardAddressRW	;2
    558  7966		       85 3f		      sta	SET_BANK	;3
    559  7968		       85 c9		      sta	ROM_Bank	;3
    560  796a		       20 c2 f0 	      jsr	GetBoardAddressRW	;6+32[-2]
    561  796d				  -	      IF	MULTI_BANK_BOARD = YES
    562  796d				  -	      stx	RAM_Bank
    563  796d					      ENDIF
    564  796d		       86 3e		      stx	SET_BANK_RAM	; 3
    565  796f
    566  796f		       a4 8c		      ldy	POS_X_NEW
    567  7971		       b3 c5		      lax	(Board_AddressR),y
    568  7973
    569  7973		       a9 0b		      lda	#BANK_MoveVecLO
    570  7975		       85 3f		      sta	SET_BANK
    571  7977
    572  7977		       bd 01 f3 	      lda	MoveVecLO,x
    573  797a		       85 e1		      sta	MAN_Move
    574  797c		       bd 0b f3 	      lda	MoveVecHI,x
    575  797f		       85 e2		      sta	MAN_Move+1
    576  7981
    577  7981				  -	      IF	MULTI_BANK_BOARD = YES
    578  7981				  -	      lda	RAM_Bank
    579  7981					      ELSE
    580  7981		       a9 0d		      lda	#BANK_BOARD
    581  7983					      ENDIF
    582  7983		       85 3e		      sta	SET_BANK_RAM
    583  7985		       6c e1 00 	      jmp	(MAN_Move)
    584  7988
    585  7988							;---------------------------------------------------------------------------
    586  7988
      0  7988					      DEFINE_SUBROUTINE	RecordTakeBackPosition
      1  7988		       00 0f	   BANK_RecordTakeBackPosition =	_CURRENT_BANK
      2  7988					      SUBROUTINE
      3  7988				   RecordTakeBackPosition
    588  7988
    589  7988							; Pass...
    590  7988							; TB_X 	 the man's position before he moved
    591  7988							; TB_Y
    592  7988							; TB_CHAR	 if -1 then there is no box push involved, else..
    593  7988							;		 holds the character that was under the box in its new position
    594  7988							; TB_PUSHX	 Position of pushed box AFTER it is pushed
    595  7988							; TB_PUSHY
    596  7988
    597  7988							; On making a move,
    598  7988							; man's position before move --> TB_X,TB_Y
    599  7988							; TB_CHAR = -1
    600  7988							; IF a box was pushed,
    601  7988							;   TB_CHAR = character under the box's new position (i.e., restoration char)
    602  7988							;   box's new position --> TB_PUSHX, TB_PUSHY
    603  7988							; ENDIF
    604  7988							; moveCounter++
    605  7988
    606  7988		       a5 d5		      lda	TakebackInhibit
    607  798a		       d0 45		      bne	noLog
    608  798c
    609  798c		       a9 0e		      lda	#BANK_TAKEBACK
    610  798e		       85 3e		      sta	SET_BANK_RAM
    611  7990
    612  7990		       a6 c0		      ldx	moveCounterBinary
    613  7992
    614  7992		       a5 90		      lda	TB_X
    615  7994		       9d 00 14 	      sta	RAM_WRITE+TakeBackPreviousX,x
    616  7997		       a5 91		      lda	TB_Y
    617  7999		       9d 40 14 	      sta	RAM_WRITE+TakeBackPreviousY,x
    618  799c		       a5 94		      lda	TB_CHAR
    619  799e		       9d 00 15 	      sta	RAM_WRITE+TakeBackPushChar,x
    620  79a1
    621  79a1							; if TB_CHAR is -1 that means there is no box component, and the following values are random
    622  79a1
    623  79a1		       a5 92		      lda	TB_PUSHX
    624  79a3		       9d 80 14 	      sta	RAM_WRITE+TakeBackPushX,x
    625  79a6		       a5 93		      lda	TB_PUSHY
    626  79a8		       9d c0 14 	      sta	RAM_WRITE+TakeBackPushY,x
    627  79ab
    628  79ab		       a5 c9		      lda	ROM_Bank
    629  79ad		       85 3f		      sta	SET_BANK
    630  79af
    631  79af							; fall through
    632  79af
      0  79af					      DEFINE_SUBROUTINE	IncrementMoveCount
      1  79af		       00 0f	   BANK_IncrementMoveCount =	_CURRENT_BANK
      2  79af					      SUBROUTINE
      3  79af				   IncrementMoveCount
    634  79af
    635  79af		       18		      clc
    636  79b0		       a5 c0		      lda	moveCounterBinary
    637  79b2		       69 01		      adc	#1
    638  79b4		       29 3f		      and	#TAKEBACK_MASK
    639  79b6		       85 c0		      sta	moveCounterBinary
    640  79b8		       c5 c1		      cmp	moveCounterBase
    641  79ba		       d0 06		      bne	baseOK
    642  79bc		       69 00		      adc	#0
    643  79be		       29 3f		      and	#TAKEBACK_MASK
    644  79c0		       85 c1		      sta	moveCounterBase
    645  79c2				   baseOK
    646  79c2
    647  79c2		       f8		      sed
    648  79c3		       18		      clc
    649  79c4		       a5 be		      lda	moveCounter
    650  79c6		       69 01		      adc	#1
    651  79c8		       85 be		      sta	moveCounter
    652  79ca		       a5 bf		      lda	moveCounter+1
    653  79cc		       69 00		      adc	#0
    654  79ce		       85 bf		      sta	moveCounter+1
    655  79d0		       d8		      cld
    656  79d1
    657  79d1
    658  79d1		       a9 00	   noLog      lda	#0
    659  79d3		       85 d5		      sta	TakebackInhibit
    660  79d5		       60		      rts
    661  79d6
    662  79d6							;---------------------------------------------------------------------------
    663  79d6
      0  79d6					      DEFINE_SUBROUTINE	MOVE_BLANK
      1  79d6		       00 0f	   BANK_MOVE_BLANK =	_CURRENT_BANK
      2  79d6					      SUBROUTINE
      3  79d6				   MOVE_BLANK
      0  79d6					      DEFINE_SUBROUTINE	MOVE_SOIL
      1  79d6		       00 0f	   BANK_MOVE_SOIL =	_CURRENT_BANK
      2  79d6					      SUBROUTINE
      3  79d6				   MOVE_SOIL
      0  79d6					      DEFINE_SUBROUTINE	MOVE_TARGET
      1  79d6		       00 0f	   BANK_MOVE_TARGET =	_CURRENT_BANK
      2  79d6					      SUBROUTINE
      3  79d6				   MOVE_TARGET
    667  79d6
    668  79d6		       8a		      txa		; character man will be standing on
    669  79d7		       48		      pha
    670  79d8
    671  79d8		       a5 a0		      lda	ManX
    672  79da		       85 8a		      sta	POS_X
    673  79dc		       85 90		      sta	TB_X
    674  79de		       a5 a1		      lda	ManY
    675  79e0		       85 8b		      sta	POS_Y
    676  79e2		       85 91		      sta	TB_Y
    677  79e4		       20 06 f9 	      jsr	PutCharacterAtXY	; RESTORE (previous XY) under-man character
    678  79e7
    679  79e7		       a5 8c		      lda	POS_X_NEW
    680  79e9		       85 a0		      sta	ManX
    681  79eb		       85 8a		      sta	POS_X
    682  79ed		       a5 8d		      lda	POS_Y_NEW
    683  79ef		       85 a1		      sta	ManY
    684  79f1		       85 8b		      sta	POS_Y
    685  79f3		       a9 05		      lda	#CHARACTER_MANOCCUPIED
    686  79f5		       85 8f		      sta	POS_VAR
    687  79f7		       20 06 f9 	      jsr	PutCharacterAtXY
    688  79fa
    689  79fa							; TB_X 	 the man's position before he moved
    690  79fa							; TB_Y
    691  79fa							; TB_CHAR	 if -1 then there is no box push involved, else..
    692  79fa							;		 holds the character that was under the box in its new position
    693  79fa							;		 this can be inferred by the box character (ONTARGET)
    694  79fa							; TB_PUSHX	 Position of pushed box AFTER it is pushed
    695  79fa							; TB_PUSHY
    696  79fa
    697  79fa		       20 88 f9 	      jsr	RecordTakeBackPosition
    698  79fd
    699  79fd		       68		      pla
    700  79fe		       85 8f		      sta	POS_VAR	; save 'restore' character
    701  7a00
    702  7a00		       a9 00	   MOVE_GENERIC lda	#0	; 2
    703  7a02		       85 aa		      sta	ManPushCounter	; 3
    704  7a04		       60	   noMovesToTake rts		; 6 = 11
    705  7a05
    706  7a05							;---------------------------------------------------------------------------
    707  7a05
      0  7a05					      DEFINE_SUBROUTINE	MOVE_BOX
      1  7a05		       00 0f	   BANK_MOVE_BOX =	_CURRENT_BANK
      2  7a05					      SUBROUTINE
      3  7a05				   MOVE_BOX
    709  7a05
    710  7a05		       a2 00		      ldx	#CHARACTER_BLANK	; restoration character
    711  7a07		       a9 0b		      lda	#BANK_PushBox
    712  7a09		       85 3f		      sta	SET_BANK
    713  7a0b		       4c f2 f0 	      jmp	PushBox
    714  7a0e
      0  7a0e					      DEFINE_SUBROUTINE	MOVE_BOX_ON_TARGET
      1  7a0e		       00 0f	   BANK_MOVE_BOX_ON_TARGET =	_CURRENT_BANK
      2  7a0e					      SUBROUTINE
      3  7a0e				   MOVE_BOX_ON_TARGET
    716  7a0e
    717  7a0e		       a2 03		      ldx	#CHARACTER_TARGET	; restoration character
    718  7a10		       a9 0b		      lda	#BANK_PushBox
    719  7a12		       85 3f		      sta	SET_BANK
    720  7a14		       4c f2 f0 	      jmp	PushBox
    721  7a17
    722  7a17							;---------------------------------------------------------------------------
    723  7a17
      0  7a17					      DEFINE_SUBROUTINE	takebackRestoreEarlierPosition
      1  7a17		       00 0f	   BANK_takebackRestoreEarlierPosition =	_CURRENT_BANK
      2  7a17					      SUBROUTINE
      3  7a17				   takebackRestoreEarlierPosition
    725  7a17
    726  7a17		       e6 d5		      inc	TakebackInhibit	; non-zero
    727  7a19
    728  7a19							; on reverting a move
    729  7a19							; IF moveCounter > 0
    730  7a19							;   moveCounter--
    731  7a19							;   IF TakeBackPushChar != -1
    732  7a19							;	 //restore the character under box (and remove box)
    733  7a19							;	 board[TakeBackPreviousX,TakeBackPreviousY] = TakeBackPushChar
    734  7a19							;   ENDIF
    735  7a19							; // We will "fix" any box going back on the board through the man's restoration char
    736  7a19							; board[ManX,ManY] = POS_VAR
    737  7a19							; POS_VAR = board[TakeBackX,TakeBackY]
    738  7a19							; board[TakeBackX,TakeBackY] = MANOCCUPIED
    739  7a19							; ManX,ManY = TakeBackX, TakeBackY
    740  7a19
    741  7a19		       a6 c0		      ldx	moveCounterBinary
    742  7a1b		       e4 c1		      cpx	moveCounterBase
    743  7a1d		       f0 e5		      beq	noMovesToTake
    744  7a1f
    745  7a1f		       ca		      dex
    746  7a20		       8a		      txa
    747  7a21		       29 3f		      and	#TAKEBACK_MASK
    748  7a23		       85 c0		      sta	moveCounterBinary
    749  7a25		       aa		      tax
    750  7a26
    751  7a26		       f8		      sed
    752  7a27		       38		      sec
    753  7a28		       a5 be		      lda	moveCounter
    754  7a2a		       e9 01		      sbc	#1
    755  7a2c		       85 be		      sta	moveCounter
    756  7a2e		       a5 bf		      lda	moveCounter+1
    757  7a30		       e9 00		      sbc	#0
    758  7a32		       85 bf		      sta	moveCounter+1
    759  7a34		       d8		      cld
    760  7a35
    761  7a35		       a5 81		      lda	Platform
    762  7a37		       18		      clc
    763  7a38		       69 04		      adc	#4
    764  7a3a		       85 cc		      sta	ColourFlash	; red flash
    765  7a3c		       a9 05		      lda	#5
    766  7a3e							;sta ColourTimer
    767  7a3e
    768  7a3e		       a9 0e		      lda	#BANK_TAKEBACK
    769  7a40		       85 3e		      sta	SET_BANK_RAM
    770  7a42
    771  7a42							; TB_X 	 the man's position before he moved
    772  7a42							; TB_Y
    773  7a42							; TB_CHAR	 if -1 then there is no box push involved, else..
    774  7a42							;		 holds the character that was under the box in its new position
    775  7a42							; TB_PUSHX	 Position of pushed box AFTER it is pushed
    776  7a42							; TB_PUSHY
    777  7a42
    778  7a42							;	 //restore the character under box (and remove box)
    779  7a42							;	 board[TakeBackPreviousX,TakeBackPreviousY] = TakeBackPushChar
    780  7a42
    781  7a42		       a5 8f		      lda	POS_VAR
    782  7a44		       48		      pha
    783  7a45
    784  7a45		       a6 c0		      ldx	moveCounterBinary
    785  7a47		       bd 00 11 	      lda	TakeBackPushChar,x
    786  7a4a		       30 23		      bmi	noPushInvolved	; -1 = no box
    787  7a4c
    788  7a4c		       85 8f		      sta	POS_VAR
    789  7a4e		       c9 03		      cmp	#CHARACTER_TARGET
    790  7a50		       d0 02		      bne	notTarget1
    791  7a52		       e6 bd		      inc	targetsRequired
    792  7a54				   notTarget1
    793  7a54
    794  7a54
    795  7a54		       bd 80 10 	      lda	TakeBackPushX,x
    796  7a57		       85 8a		      sta	POS_X
    797  7a59		       bd c0 10 	      lda	TakeBackPushY,x
    798  7a5c		       85 8b		      sta	POS_Y
    799  7a5e
    800  7a5e		       20 06 f9 	      jsr	PutCharacterAtXY	; fixup BOX!
    801  7a61
    802  7a61		       68		      pla
    803  7a62
    804  7a62		       f0 06		      beq	blnkre
    805  7a64		       a9 08		      lda	#CHARACTER_BOX_ON_TARGET
    806  7a66		       c6 bd		      dec	targetsRequired
    807  7a68		       10 02		      bpl	skls
    808  7a6a		       a9 02	   blnkre     lda	#CHARACTER_BOX
    809  7a6c		       85 8f	   skls       sta	POS_VAR
    810  7a6e
    811  7a6e		       48		      pha
    812  7a6f
    813  7a6f		       68	   noPushInvolved pla		; man's replacement char
    814  7a70		       85 8f		      sta	POS_VAR
    815  7a72
    816  7a72							; // We will "fix" any box going back on the board through the man's restoration char
    817  7a72							; board[ManX,ManY] = POS_VAR
    818  7a72							; POS_VAR = board[TakeBackX,TakeBackY]
    819  7a72							; board[TakeBackX,TakeBackY] = MANOCCUPIED
    820  7a72							; ManX,ManY = TakeBackX, TakeBackY
    821  7a72
    822  7a72		       a5 a0		      lda	ManX
    823  7a74		       85 8a		      sta	POS_X
    824  7a76		       a5 a1		      lda	ManY
    825  7a78		       85 8b		      sta	POS_Y
    826  7a7a		       20 06 f9 	      jsr	PutCharacterAtXY	; put what man was on... back
    827  7a7d
    828  7a7d
    829  7a7d		       a9 0e		      lda	#BANK_TAKEBACK
    830  7a7f		       85 3e		      sta	SET_BANK_RAM
    831  7a81
    832  7a81		       a6 c0		      ldx	moveCounterBinary
    833  7a83		       bd 00 10 	      lda	TakeBackPreviousX,x
    834  7a86		       85 8c		      sta	POS_X_NEW
    835  7a88		       85 a0		      sta	ManX
    836  7a8a		       bd 40 10 	      lda	TakeBackPreviousY,x
    837  7a8d		       85 8d		      sta	POS_Y_NEW
    838  7a8f		       85 a1		      sta	ManY
    839  7a91
    840  7a91							; Grab the character from the board at man's location and use as "restore character" for man
    841  7a91							; POS_VAR = board[takebackx,takebacky]
    842  7a91
    843  7a91		       a9 0b		      lda	#BANK_GetBoardAddressR
    844  7a93		       85 3f		      sta	SET_BANK
    845  7a95		       a4 8d		      ldy	POS_Y_NEW
    846  7a97		       20 d5 f0 	      jsr	GetBoardAddressR
    847  7a9a		       85 3e		      sta	SET_BANK_RAM
    848  7a9c
    849  7a9c		       a4 8c		      ldy	POS_X_NEW	;3
    850  7a9e		       b1 c5		      lda	(Board_AddressR),y	;5
    851  7aa0		       48		      pha
    852  7aa1
    853  7aa1		       a9 05		      lda	#CHARACTER_MANOCCUPIED
    854  7aa3		       85 8f		      sta	POS_VAR
    855  7aa5							;jsr PutCharacterAtXY
    856  7aa5
    857  7aa5		       68		      pla
    858  7aa6		       85 8f		      sta	POS_VAR
    859  7aa8
    860  7aa8		       a5 c9		      lda	ROM_Bank
    861  7aaa		       85 3f		      sta	SET_BANK
    862  7aac
    863  7aac		       60	   timeExit   rts
    864  7aad
    865  7aad							;---------------------------------------------------------------------------
    866  7aad
      0  7aad					      DEFINE_SUBROUTINE	StealCharDraw	; in FIXED_BANK
      1  7aad		       00 0f	   BANK_StealCharDraw =	_CURRENT_BANK
      2  7aad					      SUBROUTINE
      3  7aad				   StealCharDraw
    868  7aad
    869  7aad		       a9 08		      lda	#BANK_DRAW_BUFFERS	; 2
    870  7aaf		       85 3e		      sta	SET_BANK_RAM	; 3
    871  7ab1		       a4 84		      ldy	DrawStackPointer	; 3	     MUST have been set by BuildDrawStack!
    872  7ab3		       10 35		      bpl	EnterStealCharDraw	; 3 = 10(11)
    873  7ab5
    874  7ab5				   ExitStealCharDraw
    875  7ab5
    876  7ab5							; fall through...
    877  7ab5
    878  7ab5							;---------------------------------------------------------------------------
    879  7ab5
      0  7ab5					      DEFINE_SUBROUTINE	TimeSlice
      1  7ab5		       00 0f	   BANK_TimeSlice =	_CURRENT_BANK
      2  7ab5					      SUBROUTINE
      3  7ab5				   TimeSlice
    881  7ab5
    882  7ab5							; FIRST check the time is sufficient for the smallest of the timeslices. Not much point
    883  7ab5							; going ahead if there's insufficient time. This allows the previous character drawing to
    884  7ab5							; be much smaller in time, as they don't have to include the timeslice code overhead.
    885  7ab5
    886  7ab5		       ad 84 02 	      lda	INTIM	; 4
    887  7ab8		       c9 03		      cmp	#SEGTIME_MINIMUM_TIMESLICE	; 2
    888  7aba		       90 f0		      bcc	timeExit	; 2(3)
    889  7abc
    890  7abc							; Uses the phase variable to vector to the correct processing code for the given timeslice
    891  7abc							; Code may be in any bank. Avoid the fixed bank at all costs!	Once a section is complete
    892  7abc							; it should increment ScreenDrawPhase.
    893  7abc
    894  7abc							; Switched-in bank(s) are undefined after this function is called!
    895  7abc
    896  7abc		       a9 03		      lda	#BANK_TS_PhaseVectorLO	; 2
    897  7abe		       85 3f		      sta	SET_BANK	; 3
    898  7ac0
    899  7ac0		       a6 89		      ldx	ScreenDrawPhase	; 3		 current phase of drawing
    900  7ac2		       bd 4d f5 	      lda	TS_PhaseVectorLO,x	; 4
    901  7ac5		       85 e1		      sta	TS_Vector	; 3
    902  7ac7		       bd 52 f5 	      lda	TS_PhaseVectorHI,x	; 4
    903  7aca		       85 e2		      sta	TS_Vector+1	; 3
    904  7acc
    905  7acc		       bd 57 f5 	      lda	TS_PhaseBank,x	; 4
    906  7acf		       85 3f		      sta	SET_BANK	; 3		 switch bank
    907  7ad1
    908  7ad1		       6c e1 00 	      jmp	(TS_Vector)	; 3 = 40	 vector to timeslice handler
    909  7ad4
    910  7ad4							; = 55 minimum return time (if segtime abort)
    911  7ad4
    912  7ad4							;---------------------------------------------------------------------------
    913  7ad4
    914  7ad4
    915  7ad4				   DrawAnother
    916  7ad4
    917  7ad4		       a9 08		      lda	#BANK_DRAW_BUFFERS	; 2	     A = SCREEN_LINES
    918  7ad6		       85 3e		      sta	SET_BANK_RAM	; 3 =	5
    919  7ad8
    920  7ad8		       a4 84		      ldy	DrawStackPointer	; 3 =	3    MUST have been set by BuildDrawStack!
    921  7ada
    922  7ada		       be 00 f0 	      ldx	DrawStack,y	; 4	     in actuality a character index
    923  7add		       bd a0 f0 	      lda	ScreenBuffer,x	; 4	     new character to draw
    924  7ae0		       29 7f		      and	#~128	; 2
    925  7ae2		       9d a0 f4 	      sta	ScreenBuffer+RAM_WRITE,x	; 4 = 14    clear hint bit
    926  7ae5
    927  7ae5		       88		      dey		; 2
    928  7ae6		       84 84		      sty	DrawStackPointer	; 3	     one less to draw
    929  7ae8		       30 cb		      bmi	ExitStealCharDraw	; 2(3)=7
    930  7aea
    931  7aea				   EnterStealCharDraw		;	     RAM bank MUST be at BANK_DRAW_BUFFERS
    932  7aea
    933  7aea		       ad 84 02 	      lda	INTIM	; 4
    934  7aed		       c9 03		      cmp	#SEGTIME_SCD_MIN	; 2
    935  7aef		       90 c4		      bcc	ExitStealCharDraw	; 2/3= 8
    936  7af1
    937  7af1		       be 00 f0 	      ldx	DrawStack,y	; 4	     in actuality a character index
    938  7af4		       bc a0 f0 	      ldy	ScreenBuffer,x	; 4 =	8    new character to draw
    939  7af7
    940  7af7		       bd 00 f2 	      lda	ROW_BankChar,x	; 4	     A = 0..SCREEN_LINES-1
    941  7afa		       85 3e		      sta	SET_BANK_RAM	; 3
    942  7afc		       4c b9 f1 	      jmp	StealPart3	; 3 = 10    --> 18 cycles after check for SEGTIME_SCD_MIN
    943  7aff
    944  7aff
    945  7aff		       00 00 00 00*	      ds	50
    946  7b31
      0  7b31					      DEFINE_SUBROUTINE	DrawFullScreenMain	;=2484[-89]
      1  7b31		       00 0f	   BANK_DrawFullScreenMain =	_CURRENT_BANK
      2  7b31					      SUBROUTINE
      3  7b31				   DrawFullScreenMain
    948  7b31
    949  7b31							; Check the screen for all those characters that need to be redrawn
    950  7b31							; Just copies the mxn grid from the board to a DrawFlags array.  If the entry in
    951  7b31							; the drawflags array is different to the ScreenBuffer array entry, then the
    952  7b31							; screenbuffer will need redrawing.
    953  7b31
    954  7b31				   CopyRow2
    955  7b31
    956  7b31				  -	      IF	MULTI_BANK_BOARD = YES
    957  7b31				  -	      lda	BDF_BoardBank	; 3
    958  7b31					      ELSE
    959  7b31		       a9 0d		      lda	#BANK_BOARD	; 2	 saves 5*8 = 40 cyles
    960  7b33					      ENDIF
    961  7b33		       85 3e		      sta	SET_BANK_RAM	; 3
    962  7b35		       b3 e5		      lax	(BDF_BoardAddress),y	; 5
    963  7b37		       9a		      txs		; 2
    964  7b38		       b3 e7		      lax	(BDF_BoardAddress2),y	; 5(= 18[-1])
    965  7b3a
    966  7b3a		       a9 08		      lda	#BANK_DRAW_BUFFERS	; 2
    967  7b3c		       85 3e		      sta	SET_BANK_RAM	; 3
    968  7b3e		       bd cd f1 	      lda	CharReplacement,x	; 4
    969  7b41		       91 e3		      sta	(BDF_DrawFlagAddress2),y	; 6
    970  7b43		       ba		      tsx		; 2
    971  7b44		       bd cd f1 	      lda	CharReplacement,x	; 4
    972  7b47		       91 e1		      sta	(BDF_DrawFlagAddress),y	; 6(= 27)
    973  7b49
    974  7b49		       88		      dey		; 2
    975  7b4a		       10 e5		      bpl	CopyRow2	; 2/3=49/50[-1]
    976  7b4c							; total: 5*(50[-1])-1 = 244 *OR*  249 (MB)
    977  7b4c
    978  7b4c		       a7 ea		      lax	DHS_Line	; 3
    979  7b4e		       f0 07		      beq	.exitCopy	; 2/3= 5/6
    980  7b50
    981  7b50		       a0 0b		      ldy	#BANK_DrawScreenRowPreparation	;2
    982  7b52		       84 3f		      sty	SET_BANK	; 3
    983  7b54		       4c cc f2 	      jmp	DrawScreenRowPreparation	;55[-7] = 60[-7]
    984  7b57
    985  7b57							; total: (244[-5]+5)*8 + 60[-7]*7 + 1 + 11 = 2424[-89]
    986  7b57
    987  7b57
      0  7b57					      CHECKPAGEX	CopyRow2, "CopyRow2 in BANK_FIXED.asm"
      9  7b57					      LIST	ON
    989  7b57
    990  7b57		       a6 eb	   .exitCopy  ldx	DHS_Stack	; 3
    991  7b59		       9a		      txs		; 2
    992  7b5a
    993  7b5a							; fall through
    994  7b5a
      0  7b5a					      DEFINE_SUBROUTINE	BuildDrawStack
      1  7b5a		       00 0f	   BANK_BuildDrawStack =	_CURRENT_BANK
      2  7b5a					      SUBROUTINE
      3  7b5a				   BuildDrawStack
    996  7b5a
    997  7b5a		       a9 08		      lda	#BANK_DRAW_BUFFERS
    998  7b5c		       85 3e		      sta	SET_BANK_RAM
    999  7b5e		       4c f1 f0 	      jmp	DrawStackUpdate
   1000  7b61
   1001  7b61							;---------------------------------------------------------------------------
   1002  7b61
      0  7b61					      DEFINE_SUBROUTINE	DrawAIntoStack
      1  7b61		       00 0f	   BANK_DrawAIntoStack =	_CURRENT_BANK
      2  7b61					      SUBROUTINE
      3  7b61				   DrawAIntoStack
   1004  7b61
   1005  7b61		       a9 08		      lda	#BANK_DRAW_BUFFERS
   1006  7b63		       85 3e		      sta	SET_BANK_RAM
   1007  7b65		       4c 1a f1 	      jmp	DrawIntoStack
   1008  7b68
   1009  7b68
   1010  7b68							;---------------------------------------------------------------------------
   1011  7b68
   1012  7b68
   1013  7b68				   Reset
      0  7b68					      CLEAN_START
      1  7b68		       78		      sei
      2  7b69		       d8		      cld
      3  7b6a
      4  7b6a		       a2 00		      ldx	#0
      5  7b6c		       8a		      txa
      6  7b6d		       a8		      tay
      7  7b6e		       ca	   .CLEAR_STACK dex
      8  7b6f		       9a		      txs
      9  7b70		       48		      pha
     10  7b71		       d0 fb		      bne	.CLEAR_STACK
     11  7b73
   1015  7b73
   1016  7b73							;lda #2
   1017  7b73							;sta VSYNC
   1018  7b73							;lda #%01000010		  ; bit6 is not required
   1019  7b73							;sta VBLANK			  ; end of screen - enter blanking
   1020  7b73
   1021  7b73							; Scoring bank is copied once (not per game, not per level...)
   1022  7b73							; otherwise non-SaveKey high score gets zapped
   1023  7b73
   1024  7b73		       a2 02		      ldx	#ROM_SHADOW_OF_BANK_SCORING
   1025  7b75		       a0 09		      ldy	#BANK_SCORING
   1026  7b77		       20 69 fd 	      jsr	CopyROM2RAM_F000
   1027  7b7a
   1028  7b7a				   Restart		; go here on RESET + SELECT
   1029  7b7a
   1030  7b7a
   1031  7b7a				   Title
   1032  7b7a		       a2 ff		      ldx	#$ff	; adjust stack pointer after RESET + SELECT
   1033  7b7c		       9a		      txs
   1034  7b7d
   1035  7b7d							; temporary vars from title screen are used to init level
   1036  7b7d		       a9 03		      lda	#BANK_Cart_Init	; 2
   1037  7b7f		       85 3f		      sta	SET_BANK	; 3
   1038  7b81		       20 cf f3 	      jsr	Cart_Init	; 6+x
   1039  7b84
   1040  7b84
   1041  7b84							;---------------------------------------------------------------------------
   1042  7b84
   1043  7b84
   1044  7b84		       f0 00	   SEGMENT_DECODE_LEVEL_SHADOW =	$F000	; if not = $F000, this will cause an assertion failure
   1045  7b84
   1046  7b84		       a2 03		      ldx	#BANK_DECODE_LEVEL_SHADOW
   1047  7b86		       a0 0a		      ldy	#BANK_DECODE_LEVEL
   1048  7b88		       20 69 fd 	      jsr	CopyROM2RAM_F000
   1049  7b8b
   1050  7b8b
   1051  7b8b							;---------------------------------------------------------------------------
   1052  7b8b							; Once-only game initialisation goes here...
   1053  7b8b							; now we have two players so things get a bit tricky
   1054  7b8b
   1055  7b8b		       a9 09		      lda	#BANK_SCORING
   1056  7b8d		       85 3e		      sta	SET_BANK_RAM
   1057  7b8f		       20 63 f3 	      jsr	GameInitialise
   1058  7b92
   1059  7b92
   1060  7b92							;---------------------------------------------------------------------------
   1061  7b92
------- FILE sound/intro1_init.asm LEVEL 3 PASS 4
      0  7b92					      include	"sound/intro1_init.asm"
      1  7b92							; TIATracker music player
      2  7b92							; Copyright 2016 Andre "Kylearan" Wichmann
      3  7b92							; Website: https://bitbucket.org/kylearan/tiatracker
      4  7b92							; Email: andre.wichmann@gmx.de
      5  7b92							;
      6  7b92							; Licensed under the Apache License, Version 2.0 (the "License");
      7  7b92							; you may not use this file except in compliance with the License.
      8  7b92							; You may obtain a copy of the License at
      9  7b92							;
     10  7b92							;   http://www.apache.org/licenses/LICENSE-2.0
     11  7b92							;
     12  7b92							; Unless required by applicable law or agreed to in writing, software
     13  7b92							; distributed under the License is distributed on an "AS IS" BASIS,
     14  7b92							; WITHOUT WARRANTIES OR CONDITIONS OF ANY KIND, either express or implied.
     15  7b92							; See the License for the specific language governing permissions and
     16  7b92							; limitations under the License.
     17  7b92
     18  7b92							; Song author: 
     19  7b92							; Song name: 
     20  7b92
     21  7b92							; @com.wudsn.ide.asm.hardware=ATARI2600
     22  7b92
     23  7b92							; =====================================================================
     24  7b92							; Initialize music.
     25  7b92							; Set tt_cur_pat_index_c0/1 to the indexes of the first patterns from
     26  7b92							; tt_SequenceTable for each channel.
     27  7b92							; Set tt_timer and tt_cur_note_index_c0/1 to 0.
     28  7b92							; All other variables can start with any value.
     29  7b92							; =====================================================================
     30  7b92		       a9 00		      lda	#0
     31  7b94		       85 d7		      sta	tt_cur_pat_index_c0
     32  7b96		       a9 05		      lda	#5
     33  7b98		       85 d8		      sta	tt_cur_pat_index_c1
     34  7b9a							; the rest should be 0 already from startup code. If not,
     35  7b9a							; set the following variables to 0 manually:
     36  7b9a							; - tt_timer
     37  7b9a							; - tt_cur_pat_index_c0
     38  7b9a							; - tt_cur_pat_index_c1
     39  7b9a							; - tt_cur_note_index_c0
     40  7b9a							; - tt_cur_note_index_c1
     41  7b9a
------- FILE BANK_FIXED.asm
   1063  7b9a
      0  7b9a					      SET_PLATFORM
      1  7b9a
      2  7b9a
      3  7b9a
      4  7b9a
      5  7b9a		       ad 82 02 	      lda	SWCHB
      6  7b9d		       2a		      rol
      7  7b9e		       2a		      rol
      8  7b9f		       2a		      rol
      9  7ba0		       29 03		      and	#%11
     10  7ba2		       49 02		      eor	#PAL
     11  7ba4		       85 81		      sta	Platform
   1065  7ba6
   1066  7ba6		       a9 0a		      lda	#BANK_TitleScreen
   1067  7ba8		       85 3f		      sta	SET_BANK
   1068  7baa		       20 00 f0 	      jsr	TitleSequence
   1069  7bad
   1070  7bad				   RestartLevelNextPlayer
   1071  7bad
   1072  7bad
   1073  7bad							; a player has lost a life.
   1074  7bad							; store his vars, swap to other player, continue
   1075  7bad
   1076  7bad							;lda #BANK_SCORING
   1077  7bad							;sta SET_BANK_RAM
   1078  7bad							;jsr SwapPlayers
   1079  7bad
   1080  7bad		       a9 03		      lda	#BANK_SwapPlayersGeneric
   1081  7baf		       85 3f		      sta	SET_BANK
   1082  7bb1		       20 28 f4 	      jsr	SwapPlayersGeneric
   1083  7bb4
   1084  7bb4				   NextLevelLevel
   1085  7bb4				   skipDemoCheck
   1086  7bb4
   1087  7bb4							; Initialise all in-game variables; those that must be re-initialised at the start of each level,
   1088  7bb4							; including those for general systems function. But NOT those which do not need re-initialising between
   1089  7bb4							; levels.
   1090  7bb4		       a9 03		      lda	#BANK_LevelInit	; 2
   1091  7bb6		       85 3f		      sta	SET_BANK	; 3
   1092  7bb8		       20 77 f4 	      jsr	LevelInit	; 6+x
   1093  7bbb
   1094  7bbb		       a9 00		      lda	#0
   1095  7bbd		       85 e1		      sta	base_x
   1096  7bbf		       85 e2		      sta	base_y
   1097  7bc1
   1098  7bc1		       a9 0a		      lda	#BANK_DECODE_LEVEL
   1099  7bc3		       85 3e		      sta	SET_BANK_RAM
   1100  7bc5		       20 62 f2 	      jsr	UnpackLevel
   1101  7bc8
   1102  7bc8							; TODO now we KNOW the width, we can set the top left accordingly and re-unpack
   1103  7bc8
   1104  7bc8		       a9 18		      lda	#SIZE_BOARD_X
   1105  7bca		       85 99		      sta	BoardLimit_Width
   1106  7bcc		       a9 14		      lda	#SIZE_BOARD_Y
   1107  7bce		       85 9a		      sta	BoardLimit_Height
   1108  7bd0
   1109  7bd0							; Setup player animation and scroll limits.
   1110  7bd0							; Mangle the board colours based on level
   1111  7bd0
   1112  7bd0		       a9 03		      lda	#BANK_CreateCreatures	; 2
   1113  7bd2		       85 3f		      sta	SET_BANK	; 3
   1114  7bd4		       20 40 f4 	      jsr	CreateCreatures	; 6+x
   1115  7bd7
   1116  7bd7							; Setup the various digit and display pointers
   1117  7bd7							; Grab current player's score/level from backup
   1118  7bd7
   1119  7bd7		       a9 09		      lda	#BANK_SCORING
   1120  7bd9		       85 3e		      sta	SET_BANK_RAM
   1121  7bdb		       20 93 f2 	      jsr	GeneralScoringSetups
   1122  7bde							;lda ROM_Bank
   1123  7bde							;sta SET_BANK
   1124  7bde
   1125  7bde							; copy the screen draw ROM shadow to RAM
   1126  7bde
   1127  7bde		       a0 07		      ldy	#SCREEN_LINES-1
   1128  7be0		       a2 00	   CopyScreenBanks ldx	#ROM_SHADOW_OF_RAMBANK_CODE
   1129  7be2		       20 69 fd 	      jsr	CopyROM2RAM_F000	; copy draw ROMShadow to RAM
   1130  7be5		       20 71 f0 	      jsr	SetPlatformColours	; set NTSC or PAL RGB values for draw + index
   1131  7be8		       88		      dey
   1132  7be9		       10 f5		      bpl	CopyScreenBanks
   1133  7beb
   1134  7beb		       a2 01		      ldx	#ROM_SHADOW_OF_BANK_DRAW_BUFFERS
   1135  7bed		       a0 08		      ldy	#BANK_DRAW_BUFFERS
   1136  7bef		       20 3d f0 	      jsr	CopyROMShadowToRAM_F000
   1137  7bf2
   1138  7bf2							;---------------------------------------------------------------------------
   1139  7bf2
   1140  7bf2					      IF	WAIT_FOR_INITIAL_DRAW
   1141  7bf2		       a9 02		      lda	#%10
   1142  7bf4		       85 b4		      sta	blankState
   1143  7bf6					      ENDIF
   1144  7bf6
   1145  7bf6		       a9 03		      lda	#BANK_Resync	; 2
   1146  7bf8		       85 3f		      sta	SET_BANK	; 3
   1147  7bfa		       20 a2 f4 	      jsr	Resync	; 6+x
   1148  7bfd
   1149  7bfd				   NewFrameStart
   1150  7bfd
   1151  7bfd		       24 d0		      bit	NextLevelTrigger
   1152  7bff		       10 b3		      bpl	NextLevelLevel	; game-triggered next level
   1153  7c01		       70 aa		      bvs	RestartLevelNextPlayer	; loss of life
   1154  7c03
   1155  7c03							; Note: VSYNC must NOT be on when starting a new level! Else you get annoying TV signals.
   1156  7c03
   1157  7c03		       a9 0e		      lda	#%1110	; VSYNC ON
   1158  7c05		       85 42	   .loopVSync sta	WSYNC
   1159  7c07		       85 40		      sta	VSYNC
   1160  7c09		       4a		      lsr
   1161  7c0a		       d0 f9		      bne	.loopVSync	; branch until VYSNC has been reset
   1162  7c0c
   1163  7c0c							; moved *after* the loop since this allows to *increase* timer values by 1!
   1164  7c0c
   1165  7c0c		       a6 81		      ldx	Platform
   1166  7c0e		       bc 32 fd 	      ldy	VBlankTime,x
   1167  7c11		       8c 96 02 	      sty	TIM64T
   1168  7c14
------- FILE sound/intro1_player.asm LEVEL 3 PASS 4
      0  7c14					      include	"sound/intro1_player.asm"
      1  7c14							; TIATracker music player
      2  7c14							; Copyright 2016 Andre "Kylearan" Wichmann
      3  7c14							; Website: https://bitbucket.org/kylearan/tiatracker
      4  7c14							; Email: andre.wichmann@gmx.de
      5  7c14							;
      6  7c14							; Licensed under the Apache License, Version 2.0 (the "License");
      7  7c14							; you may not use this file except in compliance with the License.
      8  7c14							; You may obtain a copy of the License at
      9  7c14							;
     10  7c14							;   http://www.apache.org/licenses/LICENSE-2.0
     11  7c14							;
     12  7c14							; Unless required by applicable law or agreed to in writing, software
     13  7c14							; distributed under the License is distributed on an "AS IS" BASIS,
     14  7c14							; WITHOUT WARRANTIES OR CONDITIONS OF ANY KIND, either express or implied.
     15  7c14							; See the License for the specific language governing permissions and
     16  7c14							; limitations under the License.
     17  7c14
     18  7c14							; Song author: 
     19  7c14							; Song name: 
     20  7c14
     21  7c14							; @com.wudsn.ide.asm.hardware=ATARI2600
     22  7c14
     23  7c14							; =====================================================================
     24  7c14							; TIATracker Player
     25  7c14							; =====================================================================
     26  7c14				   tt_PlayerStart
     27  7c14
     28  7c14							; PLANNED PLAYER VARIANTS:
     29  7c14							; - RAM, speed, player ROM: c0/c1 patterns have same length
     30  7c14							; - RAM: Pack 2 values (out of cur_pat_index, cur_note_index, envelope_index)
     31  7c14							;	 into one and use lsr/asl to unpack them, allowing only ranges of
     32  7c14							;	 16/16 or 32/8 for them, depending on number of patterns, max
     33  7c14							;	 pattern size and max ADSR size
     34  7c14							; - ROM: Check if tt_SequenceTable can hold ptrs directly without indexing
     35  7c14							;	 tt_PatternPtrLo/Hi. Can be smaller if not many patterns get repeated
     36  7c14							;	 (saves table and decode routine)
     37  7c14							; - Speed: Inline tt_CalcInsIndex
     38  7c14							; - Speed: Store ptr to current note in RAM instead of reconstructing it?
     39  7c14							;	 Might also save the need for cur_note_index
     40  7c14
     41  7c14
     42  7c14							; ---------------------------------------------------------------------
     43  7c14							; Helper macro: Retrieves current note. May advance pattern if needed.
     44  7c14							; Becomes a subroutine if TT_USE_OVERLAY is used.
     45  7c14							; ---------------------------------------------------------------------
     46  7c14					      MAC	tt_fetch_current_note
     47  7c14							; construct ptr to pattern
     48  7c14				   .constructPatPtr
     49  7c14					      ldy	tt_cur_pat_index_c0,x	; get current pattern (index into tt_SequenceTable)
     50  7c14					      lda	tt_SequenceTable,y
     51  7c14					      IF	TT_USE_GOTO = 1
     52  7c14					      bpl	.noPatternGoto
     53  7c14					      and	#%01111111	; mask out goto bit to get pattern number
     54  7c14					      sta	tt_cur_pat_index_c0,x	; store goto'ed pattern index
     55  7c14					      bpl	.constructPatPtr	; unconditional
     56  7c14				   .noPatternGoto
     57  7c14					      ENDIF
     58  7c14					      tay
     59  7c14					      lda	tt_PatternPtrLo,y
     60  7c14					      sta	tt_ptr
     61  7c14					      lda	tt_PatternPtrHi,y
     62  7c14					      sta	tt_ptr+1
     63  7c14							; get new note
     64  7c14					      IF	TT_USE_OVERLAY = 0
     65  7c14					      ldy	tt_cur_note_index_c0,x
     66  7c14					      ELSE
     67  7c14							; If the V flag is set and if the new note is an instrument,
     68  7c14							; it means it got pre-fetched by an overlay percussion, it has
     69  7c14							; to remain in sustain.
     70  7c14					      clv
     71  7c14							; check if note had been pre-fetched by overlay perc already
     72  7c14					      lda	tt_cur_note_index_c0,x
     73  7c14					      bpl	.notPrefetched
     74  7c14							; If so, remove flag
     75  7c14					      and	#%01111111
     76  7c14					      sta	tt_cur_note_index_c0,x
     77  7c14							; Set V flag for later
     78  7c14					      bit	tt_Bit6Set
     79  7c14				   .notPrefetched
     80  7c14					      tay
     81  7c14					      ENDIF
     82  7c14					      lda	(tt_ptr),y
     83  7c14							; pre-process new note
     84  7c14							; 7..5: instrument (1..7), 4..0 (0..31): frequency
     85  7c14							; 0/0: End of pattern
     86  7c14					      bne	.noEndOfPattern
     87  7c14							; End of pattern: Advance to next pattern
     88  7c14					      sta	tt_cur_note_index_c0,x	; a is 0
     89  7c14					      inc	tt_cur_pat_index_c0,x
     90  7c14					      bne	.constructPatPtr	; unconditional
     91  7c14				   .noEndOfPattern
     92  7c14					      ENDM
     93  7c14
     94  7c14
     95  7c14							; ---------------------------------------------------------------------
     96  7c14							; Music player entry. Call once per frame.
     97  7c14							; ---------------------------------------------------------------------
     98  7c14				   tt_Player  SUBROUTINE
     99  7c14							; ==================== Sequencer ====================
    100  7c14							; Decrease speed timer
    101  7c14		       c6 d6		      dec	tt_timer
    102  7c16		       10 6e		      bpl	.noNewNote
    103  7c18
    104  7c18							; Timer ran out: Do sequencer
    105  7c18							; Advance to next note
    106  7c18		       a2 01		      ldx	#1	; 2 channels
    107  7c1a				   .advanceLoop
    108  7c1a					      IF	TT_USE_OVERLAY = 1
    109  7c1a		       20 30 fc 	      jsr	tt_FetchNote
    110  7c1d				  -	      ELSE
    111  7c1d				  -	      TT_FETCH_CURRENT_NOTE
    112  7c1d					      ENDIF
    113  7c1d							; Parse new note from pattern
    114  7c1d		       c9 10		      cmp	#TT_INS_PAUSE
    115  7c1f					      IF	TT_USE_SLIDE = 0
    116  7c1f		       90 55		      bcc	.finishedNewNote
    117  7c21		       d0 3d		      bne	.newNote
    118  7c23				  -	      ELSE
    119  7c23				  -	      beq	.pause
    120  7c23				  -	      bcs	.newNote
    121  7c23				  -
    122  7c23				  -			; --- slide/hold ---
    123  7c23				  -			; Adjust frequency and hold note in sustain.
    124  7c23				  -			; composer/tracker has to make sure that no unwanted
    125  7c23				  -			; under/overflow happens.
    126  7c23				  -			; Note: f = f + (8-(16-x)) = x + f - 8
    127  7c23				  -	      adc	tt_cur_ins_c0,x	; carry is clear after cmp
    128  7c23				  -	      sec
    129  7c23				  -	      sbc	#8
    130  7c23				  -	      sta	tt_cur_ins_c0,x
    131  7c23				  -	      bcs	.finishedNewNote	; unconditional, since legally no underflow can happen (ins>0 or HOLD for ins=0)
    132  7c23					      ENDIF
    133  7c23
    134  7c23							; --- pause ---
    135  7c23				   .pause
    136  7c23							; Get release index for current instrument. Since a pause can
    137  7c23							; only follow an instrument, we don't need to handle percussion
    138  7c23							; or commands.
    139  7c23		       b5 dd		      lda	tt_cur_ins_c0,x
    140  7c25		       20 be fc 	      jsr	tt_CalcInsIndex
    141  7c28		       b9 80 fd 	      lda	tt_InsReleaseIndexes-1,y	; -1 b/c instruments start at #1
    142  7c2b							; Put it into release. Skip junk byte so index no longer indicates
    143  7c2b							; sustain phase.
    144  7c2b		       18		      clc
    145  7c2c		       69 01		      adc	#1
    146  7c2e		       90 44		      bcc	.storeADIndex	; unconditional
    147  7c30
    148  7c30							; ---------------------------------------------------------------------
    149  7c30							; Helper subroutine to minimize ROM footprint. Will be inlined if
    150  7c30							; TT_USE_OVERLAY is not used.
    151  7c30							; Interleaved here so player can be inlined.
    152  7c30							; ---------------------------------------------------------------------
    153  7c30					      IF	TT_USE_OVERLAY = 1
    154  7c30				   tt_FetchNote
      0  7c30					      TT_FETCH_CURRENT_NOTE
      1  7c30
      2  7c30				   .constructPatPtr
      3  7c30		       b4 d7		      ldy	tt_cur_pat_index_c0,x
      4  7c32		       b9 93 fe 	      lda	tt_SequenceTable,y
      5  7c35					      IF	TT_USE_GOTO = 1
      6  7c35		       10 06		      bpl	.noPatternGoto
      7  7c37		       29 7f		      and	#%01111111
      8  7c39		       95 d7		      sta	tt_cur_pat_index_c0,x
      9  7c3b		       10 f3		      bpl	.constructPatPtr
     10  7c3d				   .noPatternGoto
     11  7c3d					      ENDIF
     12  7c3d		       a8		      tay
     13  7c3e		       b9 89 fe 	      lda	tt_PatternPtrLo,y
     14  7c41		       85 df		      sta	tt_ptr
     15  7c43		       b9 8e fe 	      lda	tt_PatternPtrHi,y
     16  7c46		       85 e0		      sta	tt_ptr+1
     17  7c48
     18  7c48				  -	      IF	TT_USE_OVERLAY = 0
     19  7c48				  -	      ldy	tt_cur_note_index_c0,x
     20  7c48					      ELSE
     21  7c48
     22  7c48
     23  7c48
     24  7c48		       b8		      clv
     25  7c49
     26  7c49		       b5 d9		      lda	tt_cur_note_index_c0,x
     27  7c4b		       10 07		      bpl	.notPrefetched
     28  7c4d
     29  7c4d		       29 7f		      and	#%01111111
     30  7c4f		       95 d9		      sta	tt_cur_note_index_c0,x
     31  7c51
     32  7c51		       2c c4 fc 	      bit	tt_Bit6Set
     33  7c54				   .notPrefetched
     34  7c54		       a8		      tay
     35  7c55					      ENDIF
     36  7c55		       b1 df		      lda	(tt_ptr),y
     37  7c57
     38  7c57
     39  7c57
     40  7c57		       d0 06		      bne	.noEndOfPattern
     41  7c59
     42  7c59		       95 d9		      sta	tt_cur_note_index_c0,x
     43  7c5b		       f6 d7		      inc	tt_cur_pat_index_c0,x
     44  7c5d		       d0 d1		      bne	.constructPatPtr
     45  7c5f				   .noEndOfPattern
    156  7c5f		       60		      rts
    157  7c60					      ENDIF
    158  7c60
    159  7c60
    160  7c60							; --- start instrument or percussion ---
    161  7c60				   .newNote
    162  7c60		       95 dd		      sta	tt_cur_ins_c0,x	; set new instrument
    163  7c62							; Instrument or percussion?
    164  7c62		       c9 20		      cmp	#TT_FREQ_MASK+1
    165  7c64		       b0 06		      bcs	.startInstrument
    166  7c66
    167  7c66							; --- start percussion ---
    168  7c66							; Get index of envelope
    169  7c66		       a8		      tay
    170  7c67							; -TT_FIRST_PERC because percussion start with TT_FIRST_PERC
    171  7c67		       b9 a4 fd 	      lda	tt_PercIndexes-TT_FIRST_PERC,y
    172  7c6a		       d0 08		      bne	.storeADIndex	; unconditional, since index values are >0
    173  7c6c
    174  7c6c							; --- start instrument ---
    175  7c6c				   .startInstrument
    176  7c6c					      IF	TT_USE_OVERLAY = 1
    177  7c6c							; If V flag is set, this note had been pre-fetched. That means
    178  7c6c							; it should remain in sustain.
    179  7c6c		       70 08		      bvs	.finishedNewNote
    180  7c6e					      ENDIF
    181  7c6e							; Put note into attack/decay
    182  7c6e		       20 be fc 	      jsr	tt_CalcInsIndex
    183  7c71		       b9 76 fd 	      lda	tt_InsADIndexes-1,y	; -1 because instruments start at #1
    184  7c74				   .storeADIndex
    185  7c74		       95 db		      sta	tt_envelope_index_c0,x
    186  7c76
    187  7c76							; --- Finished parsing new note ---
    188  7c76				   .finishedNewNote
    189  7c76							; increase note index into pattern
    190  7c76		       f6 d9		      inc	tt_cur_note_index_c0,x
    191  7c78							; loop over channels
    192  7c78				   .sequencerNextChannel
    193  7c78		       ca		      dex
    194  7c79		       10 9f		      bpl	.advanceLoop
    195  7c7b
    196  7c7b							; Reset timer value
    197  7c7b				  -	      IF	TT_GLOBAL_SPEED = 0
    198  7c7b				  -			; Get timer value for current pattern in channel 0
    199  7c7b				  -	      ldx	tt_cur_pat_index_c0	; get current pattern (index into tt_SequenceTable)
    200  7c7b				  -	      ldy	tt_SequenceTable,x	; Current pattern index now in y
    201  7c7b				  -	      IF	TT_USE_FUNKTEMPO = 0
    202  7c7b				  -	      lda	tt_PatternSpeeds,y
    203  7c7b				  -	      sta	tt_timer
    204  7c7b				  -	      ELSE
    205  7c7b				  -			; Test for odd/even frame
    206  7c7b				  -	      lda	tt_cur_note_index_c0
    207  7c7b				  -	      lsr
    208  7c7b				  -	      lda	tt_PatternSpeeds,y	; does not affect carry flag
    209  7c7b				  -	      bcc	.evenFrame
    210  7c7b				  -	      and	#$0f	; does not affect carry flag
    211  7c7b				  -	      bcs	.storeFunkTempo
    212  7c7b				  -.evenFrame
    213  7c7b				  -	      lsr
    214  7c7b				  -	      lsr
    215  7c7b				  -	      lsr
    216  7c7b				  -	      lsr
    217  7c7b				  -.storeFunkTempo
    218  7c7b				  -	      sta	tt_timer
    219  7c7b				  -	      ENDIF		; TT_USE_FUNKTEMPO = 0
    220  7c7b				  -
    221  7c7b					      ELSE
    222  7c7b							; Global tempo
    223  7c7b		       a2 04		      ldx	#TT_SPEED-1
    224  7c7d					      IF	TT_USE_FUNKTEMPO = 1
    225  7c7d		       a5 d9		      lda	tt_cur_note_index_c0
    226  7c7f		       4a		      lsr
    227  7c80		       90 02		      bcc	.noOddFrame
    228  7c82		       a2 03		      ldx	#TT_ODD_SPEED-1
    229  7c84				   .noOddFrame
    230  7c84					      ENDIF		; TT_USE_FUNKTEMPO = 1
    231  7c84		       86 d6		      stx	tt_timer
    232  7c86					      ENDIF		; TT_GLOBAL_SPEED = 0
    233  7c86
    234  7c86							; No new note to process
    235  7c86				   .noNewNote
    236  7c86
    237  7c86							; ==================== Update registers ====================
    238  7c86		       a2 01		      ldx	#1	; 2 channels
    239  7c88				   .updateLoop
    240  7c88							; Percussion or melodic instrument?
    241  7c88		       b5 dd		      lda	tt_cur_ins_c0,x
    242  7c8a				  -	      IF	TT_STARTS_WITH_NOTES = 0
    243  7c8a				  -			; This branch can be removed if track starts with a note in each channel
    244  7c8a				  -	      beq	.afterAudioUpdate
    245  7c8a					      ENDIF
    246  7c8a		       c9 20		      cmp	#TT_FREQ_MASK+1
    247  7c8c		       b0 37		      bcs	.instrument	; Melodic instrument
    248  7c8e
    249  7c8e							; --- Percussion: Get envelope index ---
    250  7c8e		       b4 db		      ldy	tt_envelope_index_c0,x
    251  7c90							; Set AUDC and AUDV value from envelope
    252  7c90		       b9 cd fd 	      lda	tt_PercCtrlVolTable-1,y	; -1 because values are stored +1
    253  7c93		       f0 02		      beq	.endOfPercussion	; 0 means end of percussion data
    254  7c95		       f6 db		      inc	tt_envelope_index_c0,x	; if end not reached: advance index
    255  7c97				   .endOfPercussion
    256  7c97		       95 59		      sta	AUDV0,x
    257  7c99		       4a		      lsr
    258  7c9a		       4a		      lsr
    259  7c9b		       4a		      lsr
    260  7c9c		       4a		      lsr
    261  7c9d		       95 55		      sta	AUDC0,x
    262  7c9f							; Set AUDF
    263  7c9f		       b9 b7 fd 	      lda	tt_PercFreqTable-1,y	; -1 because values are stored +1
    264  7ca2							; Bit 7 (overlay) might be set, but is unused in AUDF
    265  7ca2		       95 57		      sta	AUDF0,x
    266  7ca4					      IF	TT_USE_OVERLAY = 1
    267  7ca4		       10 48		      bpl	.afterAudioUpdate
    268  7ca6							; Overlay percussion: Fetch next note out of order
    269  7ca6		       20 30 fc 	      jsr	tt_FetchNote
    270  7ca9							; Only do something if it's a melodic instrument
    271  7ca9		       c9 20		      cmp	#TT_FREQ_MASK+1
    272  7cab		       90 41		      bcc	.afterAudioUpdate
    273  7cad							; Instrument: Put into sustain
    274  7cad		       95 dd		      sta	tt_cur_ins_c0,x	; set new instrument
    275  7caf		       20 be fc 	      jsr	tt_CalcInsIndex
    276  7cb2		       b9 7b fd 	      lda	tt_InsSustainIndexes-1,y	; -1 because instruments start at #1
    277  7cb5		       95 db		      sta	tt_envelope_index_c0,x
    278  7cb7							; Set prefetch flag. asl-sec-ror is smaller than lda-ora #128-sta
    279  7cb7		       16 d9		      asl	tt_cur_note_index_c0,x
    280  7cb9		       38		      sec
    281  7cba		       76 d9		      ror	tt_cur_note_index_c0,x
    282  7cbc		       30 30		      bmi	.afterAudioUpdate	; unconditional
    283  7cbe				  -	      ELSE
    284  7cbe				  -	      jmp	.afterAudioUpdate
    285  7cbe					      ENDIF
    286  7cbe
    287  7cbe
    288  7cbe							; ---------------------------------------------------------------------
    289  7cbe							; Helper subroutine to minimize ROM footprint.
    290  7cbe							; Interleaved here so player routine can be inlined.
    291  7cbe							; ---------------------------------------------------------------------
    292  7cbe				   tt_CalcInsIndex
    293  7cbe							; move upper 3 bits to lower 3
    294  7cbe		       4a		      lsr
    295  7cbf		       4a		      lsr
    296  7cc0		       4a		      lsr
    297  7cc1		       4a		      lsr
    298  7cc2		       4a		      lsr
    299  7cc3		       a8		      tay
    300  7cc4				   tt_Bit6Set		; This opcode has bit #6 set, for use with bit instruction
    301  7cc4		       60		      rts
    302  7cc5
    303  7cc5
    304  7cc5				   .instrument
    305  7cc5							; --- Melodic instrument ---
    306  7cc5							; Compute index into ADSR indexes and master Ctrl tables
    307  7cc5		       20 be fc 	      jsr	tt_CalcInsIndex
    308  7cc8							; Set AUDC with master value for this instrument, while we are at it
    309  7cc8		       b9 71 fd 	      lda	tt_InsCtrlTable-1,y	; -1 because instruments start with #1
    310  7ccb		       95 55		      sta	AUDC0,x
    311  7ccd							; advance ADSR counter and compare to end of Sustain
    312  7ccd		       b5 db		      lda	tt_envelope_index_c0,x
    313  7ccf		       d9 80 fd 	      cmp	tt_InsReleaseIndexes-1,y	; -1 because instruments start with #1
    314  7cd2		       d0 03		      bne	.noEndOfSustain
    315  7cd4							; End of sustain: Go back to start of sustain
    316  7cd4		       b9 7b fd 	      lda	tt_InsSustainIndexes-1,y	; -1 because instruments start with #1
    317  7cd7				   .noEndOfSustain
    318  7cd7		       a8		      tay
    319  7cd8							; Set volume from envelope
    320  7cd8		       b9 86 fd 	      lda	tt_InsFreqVolTable,y
    321  7cdb		       f0 01		      beq	.endOfEnvelope	; 0 means end of release has been reached:
    322  7cdd		       c8		      iny		; advance index otherwise
    323  7cde				   .endOfEnvelope
    324  7cde		       94 db		      sty	tt_envelope_index_c0,x
    325  7ce0		       95 59		      sta	AUDV0,x
    326  7ce2							; Now adjust frequency with ADSR value from envelope
    327  7ce2		       4a		      lsr
    328  7ce3		       4a		      lsr
    329  7ce4		       4a		      lsr
    330  7ce5		       4a		      lsr
    331  7ce6		       18		      clc
    332  7ce7		       75 dd		      adc	tt_cur_ins_c0,x
    333  7ce9		       38		      sec
    334  7cea		       e9 08		      sbc	#8
    335  7cec		       95 57		      sta	AUDF0,x
    336  7cee
    337  7cee				   .afterAudioUpdate
    338  7cee							; loop over channels
    339  7cee		       ca		      dex
    340  7cef		       10 97		      bpl	.updateLoop
    341  7cf1
 Music player size:  $dd
    342  7cf1					      echo	"Music player size: ", *-tt_PlayerStart
------- FILE BANK_FIXED.asm
   1170  7cf1
   1171  7cf1		       20 ad fa 	      jsr	StealCharDraw	; NOTE THIS IS THE *ONLY* AREA BIG ENOUGH FOR > 30 INTIM NEEDS
   1172  7cf4
   1173  7cf4							;---------------------------------------------------------------------------
   1174  7cf4
   1175  7cf4		       a9 09		      lda	#BANK_SCORING	; 2
   1176  7cf6		       85 3e		      sta	SET_BANK_RAM	; 3
   1177  7cf8		       20 d5 f1 	      jsr	DrawDigits	; 6 = 11
   1178  7cfb
   1179  7cfb							;---------------------------------------------------------------------------
   1180  7cfb							; A 42-cycle timing window in the screen draw code.  Perform any general
   1181  7cfb							; per-frame code here, provided it takes exactly 42 cycles to execute.
   1182  7cfb							; TJ: Well, not exactly 42 cycles, but it works! :)
   1183  7cfb							;	 @09
   1184  7cfb							;sta COLUBK		      ; 3     value comes from subroutine
   1185  7cfb							; + the 'black' left-side of top screen colour change when look-around is actually a HMOVE bar, so we can't fix it :)
   1186  7cfb
   1187  7cfb							;		  inc Throttle		      ; 5     speed limiter
      0  7cfb					      SLEEP	2	;	 TODO: optimize for space
      1  7cfb				   .CYCLES    SET	2
      2  7cfb
      3  7cfb				  -	      IF	.CYCLES < 2
      4  7cfb				  -	      ECHO	"MACRO ERROR: 'SLEEP': Duration must be > 1"
      5  7cfb				  -	      ERR
      6  7cfb					      ENDIF
      7  7cfb
      8  7cfb				  -	      IF	.CYCLES & 1
      9  7cfb				  -	      IFNCONST	NO_ILLEGAL_OPCODES
     10  7cfb				  -	      nop	0
     11  7cfb				  -	      ELSE
     12  7cfb				  -	      bit	VSYNC
     13  7cfb				  -	      ENDIF
     14  7cfb				  -.CYCLES    SET	.CYCLES - 3
     15  7cfb					      ENDIF
     16  7cfb
     17  7cfb					      REPEAT	.CYCLES / 2
     18  7cfb		       ea		      nop
     19  7cfc					      REPEND
   1189  7cfc
   1190  7cfc		       a9 15		      lda	#%00010101	; 2	 double width missile, double width player
   1191  7cfe		       ca		      dex		; 2	 = $6f, stars effect!
   1192  7cff		       86 62		      stx	HMM0	; 3	 @24, exactly 21 cycles after the HMOVE
   1193  7d01
   1194  7d01		       85 44		      sta	NUSIZ0	; 3
   1195  7d03		       84 65		      sty	VDELP0	; 3	 y = 0!
   1196  7d05
   1197  7d05		       c8		      iny		; 2	 this relies on Y == 0 before...
   1198  7d06		       c4 cd		      cpy	extraLifeTimer	; 3	 ..,and bit 0 is set in A
   1199  7d08		       69 02		      adc	#2	; 2
   1200  7d0a		       85 5d		      sta	ENAM0	; 3	 dis/enable Cosmic Ark star effect
   1201  7d0c
   1202  7d0c		       a5 a9		      lda	ManLastDirection	; 3
   1203  7d0e		       85 4b		      sta	REFP0	; 3
   1204  7d10
   1205  7d10		       a9 00		      lda	#BANK_SCREENMARKII1	; 2
   1206  7d12		       85 3f		      sta	SET_BANK	; testing
   1207  7d14		       85 3e		      sta	SET_BANK_RAM	; 3
   1208  7d16		       20 00 f0 	      jsr	DrawTheScreen	; 6	 @57 from RAM, no less!!
   1209  7d19							;	 @66
   1210  7d19		       a9 03		      lda	#BANK_PostScreenCleanup	; 2
   1211  7d1b		       85 3f		      sta	SET_BANK	; 3
   1212  7d1d		       20 6c f5 	      jsr	PostScreenCleanup	; 6+x
   1213  7d20
   1214  7d20		       a9 00		      lda	#BANK_SelfModDrawPlayers	; 2
   1215  7d22		       85 3f		      sta	SET_BANK	; 3
   1216  7d24		       20 60 f3 	      jsr	SelfModDrawPlayers	; 6+x
   1217  7d27
   1218  7d27		       20 ad fa    SkipSc     jsr	StealCharDraw
   1219  7d2a
   1220  7d2a		       ad 84 02    OverscanBD lda	INTIM	;4
   1221  7d2d		       d0 fb		      bne	OverscanBD	;2/3
   1222  7d2f
   1223  7d2f		       4c fd fb 	      jmp	NewFrameStart
   1224  7d32				   VBlankTime
   1225  7d32		       32 32		      .byte.b	VBLANK_TIM_NTSC, VBLANK_TIM_NTSC
   1226  7d34		       55 55		      .byte.b	VBLANK_TIM_PAL, VBLANK_TIM_PAL
   1227  7d36
   1228  7d36
   1229  7d36				  -	      if	0
   1230  7d36				  -	      DEFINE_SUBROUTINE	SokoScreen
   1231  7d36				  -
   1232  7d36				  -
   1233  7d36				  -
   1234  7d36				  -			;---------------------------------------------------------------------------
   1235  7d36				  -			; A 42-cycle timing window in the screen draw code.  Perform any general
   1236  7d36				  -			; per-frame code here, provided it takes exactly 42 cycles to execute.
   1237  7d36				  -			; TJ: Well, not exactly 42 cycles, but it works! :)
   1238  7d36				  -			;	 @09
   1239  7d36				  -			;sta COLUBK		      ; 3     value comes from subroutine
   1240  7d36				  -			; + the 'black' left-side of top screen colour change when look-around is actually a HMOVE bar, so we can't fix it :)
   1241  7d36				  -
   1242  7d36				  -			;		  inc Throttle		      ; 5     speed limiter
   1243  7d36				  -	      SLEEP	5	;	 TODO: optimize for space
   1244  7d36				  -
   1245  7d36				  -	      lda	#%00010101	; 2	 double width missile, double width player
   1246  7d36				  -	      dex		; 2	 = $6f, stars effect!
   1247  7d36				  -	      stx	HMM0	; 3	 @24, exactly 21 cycles after the HMOVE
   1248  7d36				  -
   1249  7d36				  -	      sta	NUSIZ0	; 3
   1250  7d36				  -	      sty	VDELP0	; 3	 y = 0!
   1251  7d36				  -
   1252  7d36				  -	      iny		; 2	 this relies on Y == 0 before...
   1253  7d36				  -	      cpy	extraLifeTimer	; 3	 ..,and bit 0 is set in A
   1254  7d36				  -	      adc	#2	; 2
   1255  7d36				  -	      sta	ENAM0	; 3	 dis/enable Cosmic Ark star effect
   1256  7d36				  -
   1257  7d36				  -	      lda	ManLastDirection	; 3
   1258  7d36				  -	      sta	REFP0	; 3		    lda #BANK_SCREENMARKII1	; 2
   1259  7d36				  -	      sta	SET_BANK_RAM	; 3
   1260  7d36				  -	      jsr	DrawTheScreen	; 6	 @57 from RAM, no less!!
   1261  7d36				  -			;	 @66
   1262  7d36				  -	      lda	#BANK_PostScreenCleanup	; 2
   1263  7d36				  -	      sta	SET_BANK	; 3
   1264  7d36				  -	      jsr	PostScreenCleanup	; 6+x
   1265  7d36				  -
   1266  7d36				  -	      lda	#BANK_SelfModDrawPlayers	; 2
   1267  7d36				  -	      sta	SET_BANK	; 3
   1268  7d36				  -	      jsr	SelfModDrawPlayers	; 6+x
   1269  7d36				  -
   1270  7d36				  -frame
   1271  7d36				  -	      jsr	StealCharDraw
   1272  7d36				  -	      lda	INTIM
   1273  7d36				  -	      bne	frame
   1274  7d36				  -
   1275  7d36				  -
   1276  7d36				  -	      lda	#BANK_TitleScreen
   1277  7d36				  -	      sta	SET_BANK
   1278  7d36				  -	      rts
   1279  7d36					      endif
   1280  7d36
   1281  7d36							;---------------------------------------------------------------------------
   1282  7d36
      0  7d36					      DEFINE_SUBROUTINE	nextLevelMan
      1  7d36		       00 0f	   BANK_nextLevelMan =	_CURRENT_BANK
      2  7d36					      SUBROUTINE
      3  7d36				   nextLevelMan
   1284  7d36
   1285  7d36		       a9 14		      lda	#20
   1286  7d38		       85 ad		      sta	DelayEndOfLevel
   1287  7d3a		       a5 81		      lda	Platform
   1288  7d3c		       85 cc		      sta	ColourFlash
   1289  7d3e		       a9 14		      lda	#20
   1290  7d40		       85 cb		      sta	ColourTimer
   1291  7d42
   1292  7d42
   1293  7d42		       a9 00		      lda	#0
   1294  7d44		       85 af		      sta	circle_d
   1295  7d46		       85 b0		      sta	circle_d+1
   1296  7d48
   1297  7d48				  -	      if	0
   1298  7d48				  -
   1299  7d48				  -			; Fire up a circle-drawing special-effect object...
   1300  7d48				  -
   1301  7d48				  -
   1302  7d48				  -	      lda	#TYPE_CIRCLE
   1303  7d48				  -	      sta	POS_Type
   1304  7d48				  -	      jsr	InsertObjectStack
   1305  7d48				  -
   1306  7d48					      endif
   1307  7d48
   1308  7d48
   1309  7d48				  -	      if	0
   1310  7d48				  -	      lda	#$08
   1311  7d48				  -	      sta	color
   1312  7d48				  -	      lda	#$04
   1313  7d48				  -	      sta	color+1
   1314  7d48				  -	      lda	#$0A
   1315  7d48				  -	      sta	color+2
   1316  7d48					      endif
   1317  7d48		       e6 a4		      inc	ManMode
   1318  7d4a		       60		      rts
   1319  7d4b
      0  7d4b					      DEFINE_SUBROUTINE	nextLevelMan2
      1  7d4b		       00 0f	   BANK_nextLevelMan2 =	_CURRENT_BANK
      2  7d4b					      SUBROUTINE
      3  7d4b				   nextLevelMan2
   1321  7d4b
   1322  7d4b				  -	      if	0
   1323  7d4b				  -	      ldy	#SCREEN_LINES-1
   1324  7d4b				  -CopyScreenBank2 ldx	#ROM_SHADOW_OF_RAMBANK_CODE
   1325  7d4b				  -	      sty	RAM_Bank
   1326  7d4b				  -	      jsr	SetPlatformColours	; set NTSC or PAL RGB values for draw + index
   1327  7d4b				  -	      dey
   1328  7d4b				  -	      bpl	CopyScreenBank2
   1329  7d4b				  -
   1330  7d4b				  -	      ldx	#2
   1331  7d4b				  -fade       lda	color,x
   1332  7d4b				  -	      and	#$F
   1333  7d4b				  -	      bne	nz
   1334  7d4b				  -	      lda	#1
   1335  7d4b				  -	      sta	color,x
   1336  7d4b				  -nz	      dec	color,x
   1337  7d4b				  -zalready   dex
   1338  7d4b				  -	      bpl	fade
   1339  7d4b					      endif
   1340  7d4b
   1341  7d4b							;dec DelayEndOfLevel
   1342  7d4b							;beq goNL3
   1343  7d4b
   1344  7d4b		       e6 b0		      inc	circle_d+1
   1345  7d4d		       a5 b0		      lda	circle_d+1
   1346  7d4f		       c9 14		      cmp	#20
   1347  7d51		       b0 01		      bcs	goNL3
   1348  7d53
   1349  7d53
   1350  7d53		       60		      rts
   1351  7d54
   1352  7d54				   goNL3
   1353  7d54		       e6 a4		      inc	ManMode
   1354  7d56
      0  7d56					      DEFINE_SUBROUTINE	switchLevels
      1  7d56		       00 0f	   BANK_switchLevels =	_CURRENT_BANK
      2  7d56					      SUBROUTINE
      3  7d56				   switchLevels
   1356  7d56
   1357  7d56							;lda #BANK_NextLevelX
   1358  7d56							;sta SET_BANK
   1359  7d56							;jmp NextLevelX
   1360  7d56
   1361  7d56							; Now do the actual switching
   1362  7d56
   1363  7d56		       a5 d0		      lda	NextLevelTrigger
   1364  7d58		       29 7f		      and	#<(~BIT_NEXTLEVEL)
   1365  7d5a		       85 d0		      sta	NextLevelTrigger
   1366  7d5c
   1367  7d5c							; Next level is due. Point to the next level, but if we're at the end of playable levels,
   1368  7d5c							; then increment the level number. This is completely circular, so we eventually wrap
   1369  7d5c							; the level back to 0 and start afresh.
   1370  7d5c
   1371  7d5c		       e6 b8		      inc	levelX
   1372  7d5e		       a5 b8		      lda	levelX
   1373  7d60		       c9 9e		      cmp	#MAX_LEVEL_NUMBER
   1374  7d62		       90 02		      bcc	.level_ok
   1375  7d64		       a9 00		      lda	#0
   1376  7d66		       85 b8	   .level_ok  sta	levelX
   1377  7d68		       60		      rts
   1378  7d69
   1379  7d69							;---------------------------------------------------------------------------
   1380  7d69
   1381  7d69
      0  7d69					      DEFINE_SUBROUTINE	CopyROM2RAM_F000
      1  7d69		       00 0f	   BANK_CopyROM2RAM_F000 =	_CURRENT_BANK
      2  7d69					      SUBROUTINE
      3  7d69				   CopyROM2RAM_F000
   1383  7d69
   1384  7d69		       a9 0b		      lda	#BANK_CopyROMShadowToRAM
   1385  7d6b		       85 3f		      sta	SET_BANK
   1386  7d6d		       85 c9		      sta	ROM_Bank
   1387  7d6f		       4c 3d f0 	      jmp	CopyROMShadowToRAM_F000
   1388  7d72
   1389  7d72
   1390  7d72							;---------------------------------------------------------------------------
   1391  7d72
   1392  7d72							;---------------------------------------------------------------------------
   1393  7d72
   1394  7d72							;include "circle.asm"
------- FILE sound/intro1_trackdata.asm LEVEL 3 PASS 4
      0  7d72					      include	"sound/intro1_trackdata.asm"
      1  7d72							; TIATracker music player
      2  7d72							; Copyright 2016 Andre "Kylearan" Wichmann
      3  7d72							; Website: https://bitbucket.org/kylearan/tiatracker
      4  7d72							; Email: andre.wichmann@gmx.de
      5  7d72							;
      6  7d72							; Licensed under the Apache License, Version 2.0 (the "License");
      7  7d72							; you may not use this file except in compliance with the License.
      8  7d72							; You may obtain a copy of the License at
      9  7d72							;
     10  7d72							;   http://www.apache.org/licenses/LICENSE-2.0
     11  7d72							;
     12  7d72							; Unless required by applicable law or agreed to in writing, software
     13  7d72							; distributed under the License is distributed on an "AS IS" BASIS,
     14  7d72							; WITHOUT WARRANTIES OR CONDITIONS OF ANY KIND, either express or implied.
     15  7d72							; See the License for the specific language governing permissions and
     16  7d72							; limitations under the License.
     17  7d72
     18  7d72							; Song author: 
     19  7d72							; Song name: 
     20  7d72
     21  7d72							; @com.wudsn.ide.asm.hardware=ATARI2600
     22  7d72
     23  7d72							; =====================================================================
     24  7d72							; TIATracker melodic and percussion instruments, patterns and sequencer
     25  7d72							; data.
     26  7d72							; =====================================================================
     27  7d72				   tt_TrackDataStart
     28  7d72
     29  7d72							; =====================================================================
     30  7d72							; Melodic instrument definitions (up to 7). tt_envelope_index_c0/1 hold
     31  7d72							; the index values into these tables for the current instruments played
     32  7d72							; in channel 0 and 1.
     33  7d72							; 
     34  7d72							; Each instrument is defined by:
     35  7d72							; - tt_InsCtrlTable: the AUDC value
     36  7d72							; - tt_InsADIndexes: the index of the start of the ADSR envelope as
     37  7d72							;	 defined in tt_InsFreqVolTable
     38  7d72							; - tt_InsSustainIndexes: the index of the start of the Sustain phase
     39  7d72							;	 of the envelope
     40  7d72							; - tt_InsReleaseIndexes: the index of the start of the Release phase
     41  7d72							; - tt_InsFreqVolTable: The AUDF frequency and AUDV volume values of
     42  7d72							;	 the envelope
     43  7d72							; =====================================================================
     44  7d72
     45  7d72							; Instrument master CTRL values
     46  7d72				   tt_InsCtrlTable
     47  7d72		       07 04 0c 04*	      dc.b	$07, $04, $0c, $04, $0c
     48  7d77
     49  7d77
     50  7d77							; Instrument Attack/Decay start indexes into ADSR tables.
     51  7d77				   tt_InsADIndexes
     52  7d77		       00 0e 0e 1e*	      dc.b	$00, $0e, $0e, $1e, $1e
     53  7d7c
     54  7d7c
     55  7d7c							; Instrument Sustain start indexes into ADSR tables
     56  7d7c				   tt_InsSustainIndexes
     57  7d7c		       08 19 19 2b*	      dc.b	$08, $19, $19, $2b, $2b
     58  7d81
     59  7d81
     60  7d81							; Instrument Release start indexes into ADSR tables
     61  7d81							; Caution: Values are stored with an implicit -1 modifier! To get the
     62  7d81							; real index, add 1.
     63  7d81				   tt_InsReleaseIndexes
     64  7d81		       09 1b 1b 2c*	      dc.b	$09, $1b, $1b, $2c, $2c
     65  7d86
     66  7d86
     67  7d86							; AUDVx and AUDFx ADSR envelope values.
     68  7d86							; Each byte encodes the frequency and volume:
     69  7d86							; - Bits 7..4: Freqency modifier for the current note ([-8..7]),
     70  7d86							;	 8 means no change. Bit 7 is the sign bit.
     71  7d86							; - Bits 3..0: Volume
     72  7d86							; Between sustain and release is one byte that is not used and
     73  7d86							; can be any value.
     74  7d86							; The end of the release phase is encoded by a 0.
     75  7d86				   tt_InsFreqVolTable
     76  7d86							; 0: Pizzicato bassb
     77  7d86		       8a 8a 89 88*	      dc.b	$8a, $8a, $89, $88, $86, $85, $85, $84
     78  7d8e		       83 00 83 83*	      dc.b	$83, $00, $83, $83, $83, $00
     79  7d94							; 1+2: Square2
     80  7d94		       8c 8c 8b 89*	      dc.b	$8c, $8c, $8b, $89, $87, $85, $84, $83
     81  7d9c		       82 82 81 81*	      dc.b	$82, $82, $81, $81, $81, $00, $81, $00
     82  7da4							; 3+4: Square
     83  7da4		       85 85 85 85*	      dc.b	$85, $85, $85, $85, $84, $83, $83, $82
     84  7dac		       82 82 81 81*	      dc.b	$82, $82, $81, $81, $81, $81, $00, $80
     85  7db4		       00		      dc.b	$00
     86  7db5
     87  7db5
     88  7db5
     89  7db5							; =====================================================================
     90  7db5							; Percussion instrument definitions (up to 15)
     91  7db5							;
     92  7db5							; Each percussion instrument is defined by:
     93  7db5							; - tt_PercIndexes: The index of the first percussion frame as defined
     94  7db5							;	 in tt_PercFreqTable and tt_PercCtrlVolTable
     95  7db5							; - tt_PercFreqTable: The AUDF frequency value
     96  7db5							; - tt_PercCtrlVolTable: The AUDV volume and AUDC values
     97  7db5							; =====================================================================
     98  7db5
     99  7db5							; Indexes into percussion definitions signifying the first frame for
    100  7db5							; each percussion in tt_PercFreqTable.
    101  7db5							; Caution: Values are stored with an implicit +1 modifier! To get the
    102  7db5							; real index, subtract 1.
    103  7db5				   tt_PercIndexes
    104  7db5		       01 0a 0c 	      dc.b	$01, $0a, $0c
    105  7db8
    106  7db8
    107  7db8							; The AUDF frequency values for the percussion instruments.
    108  7db8							; If the second to last value is negative (>=128), it means it's an
    109  7db8							; "overlay" percussion, i.e. the player fetches the next instrument note
    110  7db8							; immediately and starts it in the sustain phase next frame. (Needs
    111  7db8							; TT_USE_OVERLAY)
    112  7db8				   tt_PercFreqTable
    113  7db8							; 0: Kick
    114  7db8		       00 01 02 03*	      dc.b	$00, $01, $02, $03, $04, $05, $06, $87
    115  7dc0		       00		      dc.b	$00
    116  7dc1							; 1: HH
    117  7dc1		       80 00		      dc.b	$80, $00
    118  7dc3							; 2: Snare
    119  7dc3		       01 03 06 0e*	      dc.b	$01, $03, $06, $0e, $13, $11, $15, $14
    120  7dcb		       17 1b 00 	      dc.b	$17, $1b, $00
    121  7dce
    122  7dce
    123  7dce							; The AUDCx and AUDVx volume values for the percussion instruments.
    124  7dce							; - Bits 7..4: AUDC value
    125  7dce							; - Bits 3..0: AUDV value
    126  7dce							; 0 means end of percussion data.
    127  7dce				   tt_PercCtrlVolTable
    128  7dce							; 0: Kick
    129  7dce		       ee ed ed eb*	      dc.b	$ee, $ed, $ed, $eb, $e9, $e8, $e8, $e6
    130  7dd6		       00		      dc.b	$00
    131  7dd7							; 1: HH
    132  7dd7		       87 00		      dc.b	$87, $00
    133  7dd9							; 2: Snare
    134  7dd9		       8b 8a 8a 8a*	      dc.b	$8b, $8a, $8a, $8a, $8a, $8a, $89, $88
    135  7de1		       87 86 00 	      dc.b	$87, $86, $00
    136  7de4
    137  7de4
    138  7de4
    139  7de4							; =====================================================================
    140  7de4							; Track definition
    141  7de4							; The track is defined by:
    142  7de4							; - tt_PatternX (X=0, 1, ...): Pattern definitions
    143  7de4							; - tt_PatternPtrLo/Hi: Pointers to the tt_PatternX tables, serving
    144  7de4							;	 as index values
    145  7de4							; - tt_SequenceTable: The order in which the patterns should be played,
    146  7de4							;	 i.e. indexes into tt_PatternPtrLo/Hi. Contains the sequences
    147  7de4							;	 for all channels and sub-tracks. The variables
    148  7de4							;	 tt_cur_pat_index_c0/1 hold an index into tt_SequenceTable for
    149  7de4							;	 each channel.
    150  7de4							;
    151  7de4							; So tt_SequenceTable holds indexes into tt_PatternPtrLo/Hi, which
    152  7de4							; in turn point to pattern definitions (tt_PatternX) in which the notes
    153  7de4							; to play are specified.
    154  7de4							; =====================================================================
    155  7de4
    156  7de4							; ---------------------------------------------------------------------
    157  7de4							; Pattern definitions, one table per pattern. tt_cur_note_index_c0/1
    158  7de4							; hold the index values into these tables for the current pattern
    159  7de4							; played in channel 0 and 1.
    160  7de4							;
    161  7de4							; A pattern is a sequence of notes (one byte per note) ending with a 0.
    162  7de4							; A note can be either:
    163  7de4							; - Pause: Put melodic instrument into release. Must only follow a
    164  7de4							;	 melodic instrument.
    165  7de4							; - Hold: Continue to play last note (or silence). Default "empty" note.
    166  7de4							; - Slide (needs TT_USE_SLIDE): Adjust frequency of last melodic note
    167  7de4							;	 by -7..+7 and keep playing it
    168  7de4							; - Play new note with melodic instrument
    169  7de4							; - Play new note with percussion instrument
    170  7de4							; - End of pattern
    171  7de4							;
    172  7de4							; A note is defined by:
    173  7de4							; - Bits 7..5: 1-7 means play melodic instrument 1-7 with a new note
    174  7de4							;	 and frequency in bits 4..0. If bits 7..5 are 0, bits 4..0 are
    175  7de4							;	 defined as:
    176  7de4							;	 - 0: End of pattern
    177  7de4							;	 - [1..15]: Slide -7..+7 (needs TT_USE_SLIDE)
    178  7de4							;	 - 8: Hold
    179  7de4							;	 - 16: Pause
    180  7de4							;	 - [17..31]: Play percussion instrument 1..15
    181  7de4							;
    182  7de4							; The tracker must ensure that a pause only follows a melodic
    183  7de4							; instrument or a hold/slide.
    184  7de4							; ---------------------------------------------------------------------
    185  7de4		       00 1f	   TT_FREQ_MASK =	%00011111
    186  7de4		       00 08	   TT_INS_HOLD =	8
    187  7de4		       00 10	   TT_INS_PAUSE =	16
    188  7de4		       00 11	   TT_FIRST_PERC =	17
    189  7de4
    190  7de4							; Intro left
    191  7de4				   tt_pattern0
    192  7de4		       11 08 3e 08*	      dc.b	$11, $08, $3e, $08, $12, $3e, $3e, $08
    193  7dec		       13 08 3e 08*	      dc.b	$13, $08, $3e, $08, $12, $3e, $3e, $08
    194  7df4		       11 08 3e 08*	      dc.b	$11, $08, $3e, $08, $12, $3e, $12, $3e
    195  7dfc		       13 08 3e 08*	      dc.b	$13, $08, $3e, $08, $12, $3e, $13, $08
    196  7e04		       00		      dc.b	$00
    197  7e05
    198  7e05							; Intro2 L
    199  7e05				   tt_pattern1
    200  7e05		       11 08 34 08*	      dc.b	$11, $08, $34, $08, $12, $34, $34, $08
    201  7e0d		       13 08 34 08*	      dc.b	$13, $08, $34, $08, $12, $34, $34, $08
    202  7e15		       11 08 34 08*	      dc.b	$11, $08, $34, $08, $12, $34, $12, $34
    203  7e1d		       13 08 34 08*	      dc.b	$13, $08, $34, $08, $12, $34, $13, $08
    204  7e25		       00		      dc.b	$00
    205  7e26
    206  7e26							; Intro2-fill L
    207  7e26				   tt_pattern2
    208  7e26		       11 08 34 08*	      dc.b	$11, $08, $34, $08, $12, $34, $34, $08
    209  7e2e		       13 08 34 08*	      dc.b	$13, $08, $34, $08, $12, $34, $34, $08
    210  7e36		       11 08 34 08*	      dc.b	$11, $08, $34, $08, $12, $34, $12, $34
    211  7e3e		       13 08 34 08*	      dc.b	$13, $08, $34, $08, $12, $34, $13, $08
    212  7e46		       00		      dc.b	$00
    213  7e47
    214  7e47							; Intro right
    215  7e47				   tt_pattern3
    216  7e47		       6f 08 73 08*	      dc.b	$6f, $08, $73, $08, $6e, $08, $73, $08
    217  7e4f		       6f 08 73 08*	      dc.b	$6f, $08, $73, $08, $73, $08, $73, $08
    218  7e57		       6f 08 73 08*	      dc.b	$6f, $08, $73, $08, $6e, $08, $b3, $08
    219  7e5f		       6f 08 73 08*	      dc.b	$6f, $08, $73, $08, $b3, $08, $73, $08
    220  7e67		       00		      dc.b	$00
    221  7e68
    222  7e68							; Intro2 R
    223  7e68				   tt_pattern4
    224  7e68		       71 08 73 08*	      dc.b	$71, $08, $73, $08, $74, $08, $71, $08
    225  7e70		       6f 08 73 08*	      dc.b	$6f, $08, $73, $08, $b3, $08, $73, $08
    226  7e78		       b3 08 73 08*	      dc.b	$b3, $08, $73, $08, $b3, $08, $73, $08
    227  7e80		       71 08 73 08*	      dc.b	$71, $08, $73, $08, $74, $08, $71, $08
    228  7e88		       00		      dc.b	$00
    229  7e89
    230  7e89
    231  7e89
    232  7e89
    233  7e89							; Individual pattern speeds (needs TT_GLOBAL_SPEED = 0).
    234  7e89							; Each byte encodes the speed of one pattern in the order
    235  7e89							; of the tt_PatternPtr tables below.
    236  7e89							; If TT_USE_FUNKTEMPO is 1, then the low nibble encodes
    237  7e89							; the even speed and the high nibble the odd speed.
    238  7e89				  -	      IF	TT_GLOBAL_SPEED = 0
    239  7e89				  -tt_PatternSpeeds
    240  7e89				  -%%PATTERNSPEEDS%%
    241  7e89					      ENDIF
    242  7e89
    243  7e89
    244  7e89							; ---------------------------------------------------------------------
    245  7e89							; Pattern pointers look-up table.
    246  7e89							; ---------------------------------------------------------------------
    247  7e89				   tt_PatternPtrLo
    248  7e89		       e4 05 26 47	      dc.b	<tt_pattern0, <tt_pattern1, <tt_pattern2, <tt_pattern3
    249  7e8d		       68		      dc.b	<tt_pattern4
    250  7e8e				   tt_PatternPtrHi
    251  7e8e		       fd fe fe fe	      dc.b	>tt_pattern0, >tt_pattern1, >tt_pattern2, >tt_pattern3
    252  7e92		       fe		      dc.b	>tt_pattern4
    253  7e93
    254  7e93
    255  7e93							; ---------------------------------------------------------------------
    256  7e93							; Pattern sequence table. Each byte is an index into the
    257  7e93							; tt_PatternPtrLo/Hi tables where the pointers to the pattern
    258  7e93							; definitions can be found. When a pattern has been played completely,
    259  7e93							; the next byte from this table is used to get the address of the next
    260  7e93							; pattern to play. tt_cur_pat_index_c0/1 hold the current index values
    261  7e93							; into this table for channels 0 and 1.
    262  7e93							; If TT_USE_GOTO is used, a value >=128 denotes a goto to the pattern
    263  7e93							; number encoded in bits 6..0 (i.e. value AND %01111111).
    264  7e93							; ---------------------------------------------------------------------
    265  7e93				   tt_SequenceTable
    266  7e93							; ---------- Channel 0 ----------
    267  7e93		       00 00 01 02*	      dc.b	$00, $00, $01, $02, $80
    268  7e98
    269  7e98
    270  7e98							; ---------- Channel 1 ----------
    271  7e98		       03 04 03 04*	      dc.b	$03, $04, $03, $04, $85
    272  7e9d
    273  7e9d
 Track size:  $12b
    274  7e9d					      echo	"Track size: ", *-tt_TrackDataStart
------- FILE BANK_FIXED.asm
   1396  7e9d
------- FILE characterset/character_TARGET.asm LEVEL 3 PASS 4
      0  7e9d					      include	"characterset/character_TARGET.asm"
      1  7e9d							;    Sokoboo - a Sokoban implementation
      2  7e9d							;    using a generic tile-based display engine for the Atari 2600
      3  7e9d							;    Sokoban (倉庫番)™ is © Falcon Co., Ltd.
      4  7e9d							;
      5  7e9d							;    Code related to this Sokoban™ implementation was developed by Andrew Davie.
      6  7e9d							;
      7  7e9d							;    Code related to the generic tile-based display engine was developed by
      8  7e9d							;    Andrew Davie and Thomas Jentzsch during 2003-2011 and is
      9  7e9d							;    Copyright(C)2003-2019 Thomas Jentzsch and Andrew Davie - contacts details:
     10  7e9d							;    Andrew Davie (andrew@taswegian.com), Thomas Jentzsch (tjentzsch@yahoo.de).
     11  7e9d							;
     12  7e9d							;    Code related to music and sound effects uses the TIATracker music player
     13  7e9d							;    Copyright 2016 Andre "Kylearan" Wichmann - see source code in the "sound"
     14  7e9d							;    directory for Apache licensing details.
     15  7e9d							;
     16  7e9d							;    Some level data incorporated in this program were created by Lee J Haywood.
     17  7e9d							;    See the copyright notices in the License directory for a list of level
     18  7e9d							;    contributors.
     19  7e9d							;
     20  7e9d							;    Except where otherwise indicated, this software is released under the
     21  7e9d							;    following licensing arrangement...
     22  7e9d							;
     23  7e9d							;    This program is free software: you can redistribute it and/or modify
     24  7e9d							;    it under the terms of the GNU General Public License as published by
     25  7e9d							;    the Free Software Foundation, either version 3 of the License, or
     26  7e9d							;    (at your option) any later version.
     27  7e9d							;    see https://www.gnu.org/licenses/gpl-3.0.en.html
     28  7e9d
     29  7e9d							;    This program is distributed in the hope that it will be useful,
     30  7e9d							;    but WITHOUT ANY WARRANTY; without even the implied warranty of
     31  7e9d							;    MERCHANTABILITY or FITNESS FOR A PARTICULAR PURPOSE.  See the
     32  7e9d							;    GNU General Public License for more details.
     33  7e9d
     34  7e9d		       00 02	   TARGET_DEF =	2
     35  7e9d
     36  7e9d					      if	TARGET_DEF = 2
     37  7e9d
      0  7e9d					      OPTIONAL_PAGEBREAK	"CHARACTERSHAPE_TARGET", LINES_PER_CHAR+1
     10  7e9d					      LIST	ON
     39  7e9d							;CHARACTERSHAPE_TARGET2_MIRRORED
     40  7e9d							;    .byte %00000000
     41  7e9d				   CHARACTERSHAPE_TARGET
     42  7e9d				   CHARACTERSHAPE_TARGET_MIRRORED
     43  7e9d		       00		      .byte.b	%00000000
     44  7e9e		       00		      .byte.b	%00000000
     45  7e9f		       66		      .byte.b	%01100110
     46  7ea0		       66		      .byte.b	%01100110
     47  7ea1		       66		      .byte.b	%01100110
     48  7ea2		       66		      .byte.b	%01100110
     49  7ea3		       00		      .byte.b	%00000000
     50  7ea4		       00		      .byte.b	%00000000
     51  7ea5		       00		      .byte.b	%00000000	;R
     52  7ea6		       00		      .byte.b	%00000000
     53  7ea7		       66		      .byte.b	%01100110
     54  7ea8		       66		      .byte.b	%01100110
     55  7ea9		       66		      .byte.b	%01100110
     56  7eaa		       66		      .byte.b	%01100110
     57  7eab		       00		      .byte.b	%00000000
     58  7eac		       00		      .byte.b	%00000000
     59  7ead		       00		      .byte.b	%00000000	;B
     60  7eae		       00		      .byte.b	%00000000
     61  7eaf		       66		      .byte.b	%01100110
     62  7eb0		       66		      .byte.b	%01100110
     63  7eb1		       66		      .byte.b	%01100110
     64  7eb2		       66		      .byte.b	%01100110
     65  7eb3		       00		      .byte.b	%00000000
     66  7eb4		       00		      .byte.b	%00000000
     67  7eb5
     68  7eb5							;--------------------------------------------------------------------------
     69  7eb5							;     OPTIONAL_PAGEBREAK "CHARACTERSHAPE_TARGET_MIRRORED", LINES_PER_CHAR+1
     70  7eb5
     71  7eb5							;CHARACTERSHAPE_TARGET2
     72  7eb5							;CHARACTERSHAPE_TARGET2_MIRRORED
     73  7eb5							;    ds 21,0	      ; replace with BLANK?!
     74  7eb5
     75  7eb5							;    CHECKPAGE CHARACTERSHAPE_TARGET2 ; since we share one byte!
     76  7eb5
     77  7eb5					      endif
------- FILE BANK_FIXED.asm
------- FILE characterset/character_STEEL.asm LEVEL 3 PASS 4
      0  7eb5					      include	"characterset/character_STEEL.asm"
      1  7eb5							;    Sokoboo - a Sokoban implementation
      2  7eb5							;    using a generic tile-based display engine for the Atari 2600
      3  7eb5							;    Sokoban (倉庫番)™ is © Falcon Co., Ltd.
      4  7eb5							;
      5  7eb5							;    Code related to this Sokoban™ implementation was developed by Andrew Davie.
      6  7eb5							;
      7  7eb5							;    Code related to the generic tile-based display engine was developed by
      8  7eb5							;    Andrew Davie and Thomas Jentzsch during 2003-2011 and is
      9  7eb5							;    Copyright(C)2003-2019 Thomas Jentzsch and Andrew Davie - contacts details:
     10  7eb5							;    Andrew Davie (andrew@taswegian.com), Thomas Jentzsch (tjentzsch@yahoo.de).
     11  7eb5							;
     12  7eb5							;    Code related to music and sound effects uses the TIATracker music player
     13  7eb5							;    Copyright 2016 Andre "Kylearan" Wichmann - see source code in the "sound"
     14  7eb5							;    directory for Apache licensing details.
     15  7eb5							;
     16  7eb5							;    Some level data incorporated in this program were created by Lee J Haywood.
     17  7eb5							;    See the copyright notices in the License directory for a list of level
     18  7eb5							;    contributors.
     19  7eb5							;
     20  7eb5							;    Except where otherwise indicated, this software is released under the
     21  7eb5							;    following licensing arrangement...
     22  7eb5							;
     23  7eb5							;    This program is free software: you can redistribute it and/or modify
     24  7eb5							;    it under the terms of the GNU General Public License as published by
     25  7eb5							;    the Free Software Foundation, either version 3 of the License, or
     26  7eb5							;    (at your option) any later version.
     27  7eb5							;    see https://www.gnu.org/licenses/gpl-3.0.en.html
     28  7eb5
     29  7eb5							;    This program is distributed in the hope that it will be useful,
     30  7eb5							;    but WITHOUT ANY WARRANTY; without even the implied warranty of
     31  7eb5							;    MERCHANTABILITY or FITNESS FOR A PARTICULAR PURPOSE.  See the
     32  7eb5							;    GNU General Public License for more details.
     33  7eb5
     34  7eb5							;--------------------------------------------------------------------------
      0  7eb5					      OPTIONAL_PAGEBREAK	"CHARACTERSHAPE_STEEL", LINES_PER_CHAR
     10  7eb5					      LIST	ON
     36  7eb5				   CHARACTERSHAPE_STEEL
     37  7eb5		       00 88 00 00*	      .byte.b	%00000000,%10001000,%00000000,%00000000,%00000000,%00100010,%00000000,%00000000	;R
     38  7ebd		       ff ff 77 ff*	      .byte.b	%11111111,%11111111,%01110111,%11111111,%11111111,%11111111,%11011101,%11111111	;G
     39  7ec5		       ff ff 77 ff*	      .byte.b	%11111111,%11111111,%01110111,%11111111,%11111111,%11111111,%11011101,%11111111	;B
     40  7ecd
     41  7ecd							;--------------------------------------------------------------------------
      0  7ecd					      OPTIONAL_PAGEBREAK	"CHARACTERSHAPE_STEEL_MIRRORED", LINES_PER_CHAR
     10  7ecd					      LIST	ON
     43  7ecd				   CHARACTERSHAPE_STEEL_MIRRORED
     44  7ecd		       00 11 00 00*	      .byte.b	%00000000,%00010001,%00000000,%00000000,%00000000,%01000100,%00000000,%00000000	;R
     45  7ed5		       ff ff ee ff*	      .byte.b	%11111111,%11111111,%11101110,%11111111,%11111111,%11111111,%10111011,%11111111	;G
     46  7edd		       ff ff ee ff*	      .byte.b	%11111111,%11111111,%11101110,%11111111,%11111111,%11111111,%10111011,%11111111	;B
------- FILE BANK_FIXED.asm
------- FILE characterset/character_SOIL.asm LEVEL 3 PASS 4
      0  7ee5					      include	"characterset/character_SOIL.asm"
      1  7ee5							;    Sokoboo - a Sokoban implementation
      2  7ee5							;    using a generic tile-based display engine for the Atari 2600
      3  7ee5							;    Sokoban (倉庫番)™ is © Falcon Co., Ltd.
      4  7ee5							;
      5  7ee5							;    Code related to this Sokoban™ implementation was developed by Andrew Davie.
      6  7ee5							;
      7  7ee5							;    Code related to the generic tile-based display engine was developed by
      8  7ee5							;    Andrew Davie and Thomas Jentzsch during 2003-2011 and is
      9  7ee5							;    Copyright(C)2003-2019 Thomas Jentzsch and Andrew Davie - contacts details:
     10  7ee5							;    Andrew Davie (andrew@taswegian.com), Thomas Jentzsch (tjentzsch@yahoo.de).
     11  7ee5							;
     12  7ee5							;    Code related to music and sound effects uses the TIATracker music player
     13  7ee5							;    Copyright 2016 Andre "Kylearan" Wichmann - see source code in the "sound"
     14  7ee5							;    directory for Apache licensing details.
     15  7ee5							;
     16  7ee5							;    Some level data incorporated in this program were created by Lee J Haywood.
     17  7ee5							;    See the copyright notices in the License directory for a list of level
     18  7ee5							;    contributors.
     19  7ee5							;
     20  7ee5							;    Except where otherwise indicated, this software is released under the
     21  7ee5							;    following licensing arrangement...
     22  7ee5							;
     23  7ee5							;    This program is free software: you can redistribute it and/or modify
     24  7ee5							;    it under the terms of the GNU General Public License as published by
     25  7ee5							;    the Free Software Foundation, either version 3 of the License, or
     26  7ee5							;    (at your option) any later version.
     27  7ee5							;    see https://www.gnu.org/licenses/gpl-3.0.en.html
     28  7ee5
     29  7ee5							;    This program is distributed in the hope that it will be useful,
     30  7ee5							;    but WITHOUT ANY WARRANTY; without even the implied warranty of
     31  7ee5							;    MERCHANTABILITY or FITNESS FOR A PARTICULAR PURPOSE.  See the
     32  7ee5							;    GNU General Public License for more details.
     33  7ee5
      0  7ee5					      OPTIONAL_PAGEBREAK	"CHARACTERSHAPE_SOIL", LINES_PER_CHAR
     10  7ee5					      LIST	ON
     35  7ee5				   CHARACTERSHAPE_SOIL
     36  7ee5				   CHARACTERSHAPE_SOIL_MIRRORED
     37  7ee5		       00 00 00 00*	      .byte.b	0,0,0,0,0,0,0,0
     38  7eed		       ff ff ff ff*	      .byte.b	%11111111,%11111111,%11111111,%11111111,%11111111,%11111111,%11111111,%11111111
     39  7ef5		       00 00 00 00*	      .byte.b	0,0,0,0,0,0,0,0
------- FILE BANK_FIXED.asm
------- FILE characterset/character_BOX.asm LEVEL 3 PASS 4
      0  7efd					      include	"characterset/character_BOX.asm"
      1  7efd							;    Sokoboo - a Sokoban implementation
      2  7efd							;    using a generic tile-based display engine for the Atari 2600
      3  7efd							;    Sokoban (倉庫番)™ is © Falcon Co., Ltd.
      4  7efd							;
      5  7efd							;    Code related to this Sokoban™ implementation was developed by Andrew Davie.
      6  7efd							;
      7  7efd							;    Code related to the generic tile-based display engine was developed by
      8  7efd							;    Andrew Davie and Thomas Jentzsch during 2003-2011 and is
      9  7efd							;    Copyright(C)2003-2019 Thomas Jentzsch and Andrew Davie - contacts details:
     10  7efd							;    Andrew Davie (andrew@taswegian.com), Thomas Jentzsch (tjentzsch@yahoo.de).
     11  7efd							;
     12  7efd							;    Code related to music and sound effects uses the TIATracker music player
     13  7efd							;    Copyright 2016 Andre "Kylearan" Wichmann - see source code in the "sound"
     14  7efd							;    directory for Apache licensing details.
     15  7efd							;
     16  7efd							;    Some level data incorporated in this program were created by Lee J Haywood.
     17  7efd							;    See the copyright notices in the License directory for a list of level
     18  7efd							;    contributors.
     19  7efd							;
     20  7efd							;    Except where otherwise indicated, this software is released under the
     21  7efd							;    following licensing arrangement...
     22  7efd							;
     23  7efd							;    This program is free software: you can redistribute it and/or modify
     24  7efd							;    it under the terms of the GNU General Public License as published by
     25  7efd							;    the Free Software Foundation, either version 3 of the License, or
     26  7efd							;    (at your option) any later version.
     27  7efd							;    see https://www.gnu.org/licenses/gpl-3.0.en.html
     28  7efd
     29  7efd							;    This program is distributed in the hope that it will be useful,
     30  7efd							;    but WITHOUT ANY WARRANTY; without even the implied warranty of
     31  7efd							;    MERCHANTABILITY or FITNESS FOR A PARTICULAR PURPOSE.  See the
     32  7efd							;    GNU General Public License for more details.
     33  7efd
      0  7efd					      OPTIONAL_PAGEBREAK	"CHARACTERSHAPE_BOX", LINES_PER_CHAR
 PAGE BREAK INSERTED FOR  CHARACTERSHAPE_BOX
 REQUESTED SIZE =  $18
 WASTED SPACE =  $3
 PAGEBREAK LOCATION =  $ff00
     10  7f00					      LIST	ON
     35  7f00				   CHARACTERSHAPE_BOX
     36  7f00				  -	      if	MIRRORED_BOX = NO
     37  7f00				  -CHARACTERSHAPE_BOX_MIRRORED
     38  7f00					      endif
     39  7f00		       ff ff 99 99*	      .byte.b	%11111111,%11111111,%10011001,%10011001,%10011001,%11111111,%11111111,%0	;R
     40  7f08		       ff ff 99 99*	      .byte.b	%11111111,%11111111,%10011001,%10011001,%10011001,%11111111,%11111111,%11111111	;G
     41  7f10		       00 00 00 00*	      .byte.b	%0,%0,%0,0,%0,%0,%0,0	;B
     42  7f18
     43  7f18							;--------------------------------------------------------------------------
     44  7f18					      if	MIRRORED_BOX = YES
      0  7f18					      OPTIONAL_PAGEBREAK	"CHARACTERSHAPE_BOX_MIRRORED", LINES_PER_CHAR
     10  7f18					      LIST	ON
     46  7f18				   CHARACTERSHAPE_BOX_MIRRORED
     47  7f18		       ff ff 99 99*	      .byte.b	%11111111,%11111111,%10011001,%10011001,%10011001,%11111111,%11111111,%0	;R
     48  7f20		       ff ff 99 99*	      .byte.b	%11111111,%11111111,%10011001,%10011001,%10011001,%11111111,%11111111,%11111111	;G
     49  7f28		       00 00 00 00*	      .byte.b	%0,%0,0,0,%0,%0,%0,0	;B
     50  7f30					      endif
     51  7f30
      0  7f30					      OPTIONAL_PAGEBREAK	"CHARACTERSHAPE_BOX_ON_TARGET", LINES_PER_CHAR
     10  7f30					      LIST	ON
     53  7f30				   CHARACTERSHAPE_BOX_ON_TARGET
     54  7f30				  -	      if	MIRRORED_BOX = NO
     55  7f30				  -CHARACTERSHAPE_BOX_ON_TARGET_MIRRORED
     56  7f30					      endif
     57  7f30		       ff ff ff ff*	      .byte.b	%11111111,%11111111,%11111111,%11111111,%11111111,%11111111,%11111111,%0	;R
     58  7f38		       ff ff ff ff*	      .byte.b	%11111111,%11111111,%11111111,%11111111,%11111111,%11111111,%11111111,%11111111	;G
     59  7f40		       00 66 66 66*	      .byte.b	%0,%01100110,%01100110,%01100110,%01100110,%0,%0,0	;B
     60  7f48
     61  7f48							;--------------------------------------------------------------------------
     62  7f48					      if	MIRRORED_BOX = YES
      0  7f48					      OPTIONAL_PAGEBREAK	"CHARACTERSHAPE_BOX_ON_TARGET_MIRRORED", LINES_PER_CHAR
     10  7f48					      LIST	ON
     64  7f48				   CHARACTERSHAPE_BOX_ON_TARGET_MIRRORED
     65  7f48		       ff ff ff ff*	      .byte.b	%11111111,%11111111,%11111111,%11111111,%11111111,%11111111,%11111111,%0	;R
     66  7f50		       ff ff ff ff*	      .byte.b	%11111111,%11111111,%11111111,%11111111,%11111111,%11111111,%11111111,%11111111	;G
     67  7f58		       00 66 66 66*	      .byte.b	%0,%01100110,%01100110,%01100110,%01100110,0,%0,%0	;B
     68  7f60					      endif
------- FILE BANK_FIXED.asm
------- FILE characterset/character_WALL.asm LEVEL 3 PASS 4
      0  7f60					      include	"characterset/character_WALL.asm"
      1  7f60							;    Sokoboo - a Sokoban implementation
      2  7f60							;    using a generic tile-based display engine for the Atari 2600
      3  7f60							;    Sokoban (倉庫番)™ is © Falcon Co., Ltd.
      4  7f60							;
      5  7f60							;    Code related to this Sokoban™ implementation was developed by Andrew Davie.
      6  7f60							;
      7  7f60							;    Code related to the generic tile-based display engine was developed by
      8  7f60							;    Andrew Davie and Thomas Jentzsch during 2003-2011 and is
      9  7f60							;    Copyright(C)2003-2019 Thomas Jentzsch and Andrew Davie - contacts details:
     10  7f60							;    Andrew Davie (andrew@taswegian.com), Thomas Jentzsch (tjentzsch@yahoo.de).
     11  7f60							;
     12  7f60							;    Code related to music and sound effects uses the TIATracker music player
     13  7f60							;    Copyright 2016 Andre "Kylearan" Wichmann - see source code in the "sound"
     14  7f60							;    directory for Apache licensing details.
     15  7f60							;
     16  7f60							;    Some level data incorporated in this program were created by Lee J Haywood.
     17  7f60							;    See the copyright notices in the License directory for a list of level
     18  7f60							;    contributors.
     19  7f60							;
     20  7f60							;    Except where otherwise indicated, this software is released under the
     21  7f60							;    following licensing arrangement...
     22  7f60							;
     23  7f60							;    This program is free software: you can redistribute it and/or modify
     24  7f60							;    it under the terms of the GNU General Public License as published by
     25  7f60							;    the Free Software Foundation, either version 3 of the License, or
     26  7f60							;    (at your option) any later version.
     27  7f60							;    see https://www.gnu.org/licenses/gpl-3.0.en.html
     28  7f60
     29  7f60							;    This program is distributed in the hope that it will be useful,
     30  7f60							;    but WITHOUT ANY WARRANTY; without even the implied warranty of
     31  7f60							;    MERCHANTABILITY or FITNESS FOR A PARTICULAR PURPOSE.  See the
     32  7f60							;    GNU General Public License for more details.
     33  7f60
      0  7f60					      OPTIONAL_PAGEBREAK	"CHARACTERSHAPE_WALL", LINES_PER_CHAR
     10  7f60					      LIST	ON
     35  7f60
     36  7f60		       00 00	   BRICK_WALL_DEF =	0
     37  7f60
     38  7f60				   CHARACTERSHAPE_WALL
     39  7f60				   CHARACTERSHAPE_WALL0
     40  7f60
     41  7f60
     42  7f60
     43  7f60				  -	      if	MIRRORED_WALL = NO
     44  7f60				  -CHARACTERSHAPE_WALL_MIRRORED
     45  7f60				  -CHARACTERSHAPE_WALL0_MIRRORED
     46  7f60					      endif
     47  7f60
     48  7f60					      if	BRICK_WALL_DEF = 0
     49  7f60		       00 ee ee ee*	      .byte.b	%00000000,%11101110,%11101110,%11101110,%00000000,%10111011,%10111011,%10111011	;R
     50  7f68		       ee ee ee ee*	      .byte.b	%11101110,%11101110,%11101110,%11101110,%00000000,%10111011,%10111011,%10111011	;G
     51  7f70		       ff ff ff ff*	      .byte.b	%11111111,%11111111,%11111111,%11111111,%11111111,%11111111,%11111111,%11111111	;B
     52  7f78					      endif
     53  7f78
     54  7f78
     55  7f78
     56  7f78							;--------------------------------------------------------------------------
     57  7f78					      if	MIRRORED_WALL = YES
      0  7f78					      OPTIONAL_PAGEBREAK	"CHARACTERSHAPE_WALL_MIRRORED", LINES_PER_CHAR
     10  7f78					      LIST	ON
     59  7f78				   CHARACTERSHAPE_WALL_MIRRORED
     60  7f78				   CHARACTERSHAPE_WALL0_MIRRORED
     61  7f78
     62  7f78					      if	BRICK_WALL_DEF = 0
     63  7f78		       00 77 77 77*	      .byte.b	%00000000,%01110111,%01110111,%01110111,%00000000,%11011101,%11011101,%11011101	;R
     64  7f80		       77 77 77 77*	      .byte.b	%01110111,%01110111,%01110111,%01110111,%00000000,%11011101,%11011101,%11011101	;G
     65  7f88		       ff ff ff ff*	      .byte.b	%11111111,%11111111,%11111111,%11111111,%11111111,%11111111,%11111111,%11111111	;B
     66  7f90					      endif
     67  7f90
     68  7f90
     69  7f90					      endif
------- FILE BANK_FIXED.asm
   1402  7f90
   1403  7f90				  -	      if	DIGITS
   1404  7f90				  -	      include	"characterset/character_9.asm"
   1405  7f90				  -	      include	"characterset/character_8.asm"
   1406  7f90				  -	      include	"characterset/character_7.asm"
   1407  7f90				  -	      include	"characterset/character_6.asm"
   1408  7f90				  -	      include	"characterset/character_5.asm"
   1409  7f90				  -	      include	"characterset/character_4.asm"
   1410  7f90				  -	      include	"characterset/character_3.asm"
   1411  7f90				  -	      include	"characterset/character_2.asm"
   1412  7f90				  -	      include	"characterset/character_1.asm"
   1413  7f90				  -	      include	"characterset/character_0.asm"
   1414  7f90					      endif
   1415  7f90
   1416  7f90				  -	      if	TROPHY
   1417  7f90				  -	      include	"trophyData.asm"
   1418  7f90					      endif
   1419  7f90
   1420  7f90
   1421  7f90
   1422  7f90
 FREE BYTES IN FIXED BANK =  $6b
   1423  7f90					      ECHO	"FREE BYTES IN FIXED BANK = ", $FFFB - *
   1424  7f90
   1425  7f90							;---------------------------------------------------------------------------
   1426  7f90							; The reset vectors
   1427  7f90							; these must live in the fixed bank (last 2K of any ROM image in TigerVision)
   1428  7f90
   1429  8000 ????				      SEG	InterruptVectors
   1430  7ffc					      ORG	FIXED_BANK + $7FC
   1431  7ffc					      RORG	$7ffC
   1432  7ffc
   1433  7ffc							;		 .word Reset	       ; NMI	    (not used)
   1434  7ffc		       68 fb		      .word.w	Reset	; RESET
   1435  7ffe		       68 fb		      .word.w	Reset	; IRQ	      (not used)
   1436  8000
   1437  8000							;---------------------------------------------------------------------------
------- FILE ./sokoboo.asm
    880  8000
    881  8000					      END
